SF:/Users/rawkode/Code/src/github.com/cuenv/cuenv/crates/1password/src/secrets/core.rs
FN:42,_RNCNCNvNtNtCsalErSHYqnpj_15cuenv_1password7secrets4core21create_host_functions00B9_
FN:47,_RNCNCNvNtNtCsalErSHYqnpj_15cuenv_1password7secrets4core21create_host_functions0s_0B9_
FN:142,_RNCNvMNtNtCsalErSHYqnpj_15cuenv_1password7secrets4coreNtB4_10SharedCore11get_or_init0B8_
FN:156,_RNCNvMNtNtCsalErSHYqnpj_15cuenv_1password7secrets4coreNtB4_10SharedCore11get_or_inits_0B8_
FN:211,_RNCNvMNtNtCsalErSHYqnpj_15cuenv_1password7secrets4coreNtB4_10SharedCore11init_client0B8_
FN:228,_RNCNvMNtNtCsalErSHYqnpj_15cuenv_1password7secrets4coreNtB4_10SharedCore11init_clients0_0B8_
FN:236,_RNCNvMNtNtCsalErSHYqnpj_15cuenv_1password7secrets4coreNtB4_10SharedCore11init_clients1_0B8_
FN:248,_RNCNvMNtNtCsalErSHYqnpj_15cuenv_1password7secrets4coreNtB4_10SharedCore11init_clients2_0B8_
FN:219,_RNCNvMNtNtCsalErSHYqnpj_15cuenv_1password7secrets4coreNtB4_10SharedCore11init_clients_0B8_
FN:291,_RNCNvMNtNtCsalErSHYqnpj_15cuenv_1password7secrets4coreNtB4_10SharedCore6invoke0B8_
FN:306,_RNCNvMNtNtCsalErSHYqnpj_15cuenv_1password7secrets4coreNtB4_10SharedCore6invokes0_0B8_
FN:314,_RNCNvMNtNtCsalErSHYqnpj_15cuenv_1password7secrets4coreNtB4_10SharedCore6invokes1_0B8_
FN:299,_RNCNvMNtNtCsalErSHYqnpj_15cuenv_1password7secrets4coreNtB4_10SharedCore6invokes_0B8_
FN:15,_RNCNvNtNtCsalErSHYqnpj_15cuenv_1password7secrets4core11SHARED_CORE0B7_
FN:36,_RNCNvNtNtCsalErSHYqnpj_15cuenv_1password7secrets4core21create_host_functions0B7_
FN:85,_RNCNvNtNtCsalErSHYqnpj_15cuenv_1password7secrets4core21create_host_functionss0_0B7_
FN:106,_RNCNvNtNtCsalErSHYqnpj_15cuenv_1password7secrets4core21create_host_functionss1_0B7_
FN:66,_RNCNvNtNtCsalErSHYqnpj_15cuenv_1password7secrets4core21create_host_functionss_0B7_
FN:138,_RNvMNtNtCsalErSHYqnpj_15cuenv_1password7secrets4coreNtB2_10SharedCore11get_or_init
FN:183,_RNvMNtNtCsalErSHYqnpj_15cuenv_1password7secrets4coreNtB2_10SharedCore11init_client
FN:328,_RNvMNtNtCsalErSHYqnpj_15cuenv_1password7secrets4coreNtB2_10SharedCore14release_client
FN:270,_RNvMNtNtCsalErSHYqnpj_15cuenv_1password7secrets4coreNtB2_10SharedCore6invoke
FN:25,_RNvNtNtCsalErSHYqnpj_15cuenv_1password7secrets4core21create_host_functions
FN:385,_RNvNtNtNtCsde6TLMm0c0j_15cuenv_1password7secrets4core5testss_15test_os_mapping
FN:399,_RNvNtNtNtCsde6TLMm0c0j_15cuenv_1password7secrets4core5testss_17test_arch_mapping
FN:438,_RNvNtNtNtCsde6TLMm0c0j_15cuenv_1password7secrets4core5testss_21test_arch_mapping_arm
FN:418,_RNvNtNtNtCsde6TLMm0c0j_15cuenv_1password7secrets4core5testss_21test_os_mapping_linux
FN:449,_RNvNtNtNtCsde6TLMm0c0j_15cuenv_1password7secrets4core5testss_23test_arch_mapping_riscv
FN:428,_RNvNtNtNtCsde6TLMm0c0j_15cuenv_1password7secrets4core5testss_23test_os_mapping_windows
FN:343,_RNvNtNtNtCsde6TLMm0c0j_15cuenv_1password7secrets4core5testss_26test_shared_core_lazy_init
FN:356,_RNvNtNtNtCsde6TLMm0c0j_15cuenv_1password7secrets4core5testss_29test_host_functions_are_valid
FN:377,_RNvNtNtNtCsde6TLMm0c0j_15cuenv_1password7secrets4core5testss_32test_shared_core_static_is_mutex
FN:475,_RNvNtNtNtCsde6TLMm0c0j_15cuenv_1password7secrets4core5testss_36test_shared_core_mutex_initial_state
FN:459,_RNvNtNtNtCsde6TLMm0c0j_15cuenv_1password7secrets4core5testss_39test_host_functions_creates_random_fill
FN:467,_RNvNtNtNtCsde6TLMm0c0j_15cuenv_1password7secrets4core5testss_42test_create_host_functions_no_side_effects
FN:486,_RNvNtNtNtCsde6TLMm0c0j_15cuenv_1password7secrets4core5testss_43test_get_or_init_without_wasm_returns_error
FN:350,_RNvNtNtNtCsde6TLMm0c0j_15cuenv_1password7secrets4core5testss_49test_create_host_functions_returns_four_functions
FN:369,_RNvNtNtNtCsde6TLMm0c0j_15cuenv_1password7secrets4core5testss_56test_create_host_functions_can_be_created_multiple_times
FN:42,_RNCNCNvNtNtCsde6TLMm0c0j_15cuenv_1password7secrets4core21create_host_functions00B9_
FN:47,_RNCNCNvNtNtCsde6TLMm0c0j_15cuenv_1password7secrets4core21create_host_functions0s_0B9_
FN:142,_RNCNvMNtNtCsde6TLMm0c0j_15cuenv_1password7secrets4coreNtB4_10SharedCore11get_or_init0B8_
FN:156,_RNCNvMNtNtCsde6TLMm0c0j_15cuenv_1password7secrets4coreNtB4_10SharedCore11get_or_inits_0B8_
FN:211,_RNCNvMNtNtCsde6TLMm0c0j_15cuenv_1password7secrets4coreNtB4_10SharedCore11init_client0B8_
FN:228,_RNCNvMNtNtCsde6TLMm0c0j_15cuenv_1password7secrets4coreNtB4_10SharedCore11init_clients0_0B8_
FN:236,_RNCNvMNtNtCsde6TLMm0c0j_15cuenv_1password7secrets4coreNtB4_10SharedCore11init_clients1_0B8_
FN:248,_RNCNvMNtNtCsde6TLMm0c0j_15cuenv_1password7secrets4coreNtB4_10SharedCore11init_clients2_0B8_
FN:219,_RNCNvMNtNtCsde6TLMm0c0j_15cuenv_1password7secrets4coreNtB4_10SharedCore11init_clients_0B8_
FN:291,_RNCNvMNtNtCsde6TLMm0c0j_15cuenv_1password7secrets4coreNtB4_10SharedCore6invoke0B8_
FN:306,_RNCNvMNtNtCsde6TLMm0c0j_15cuenv_1password7secrets4coreNtB4_10SharedCore6invokes0_0B8_
FN:314,_RNCNvMNtNtCsde6TLMm0c0j_15cuenv_1password7secrets4coreNtB4_10SharedCore6invokes1_0B8_
FN:299,_RNCNvMNtNtCsde6TLMm0c0j_15cuenv_1password7secrets4coreNtB4_10SharedCore6invokes_0B8_
FN:15,_RNCNvNtNtCsde6TLMm0c0j_15cuenv_1password7secrets4core11SHARED_CORE0B7_
FN:36,_RNCNvNtNtCsde6TLMm0c0j_15cuenv_1password7secrets4core21create_host_functions0B7_
FN:85,_RNCNvNtNtCsde6TLMm0c0j_15cuenv_1password7secrets4core21create_host_functionss0_0B7_
FN:106,_RNCNvNtNtCsde6TLMm0c0j_15cuenv_1password7secrets4core21create_host_functionss1_0B7_
FN:66,_RNCNvNtNtCsde6TLMm0c0j_15cuenv_1password7secrets4core21create_host_functionss_0B7_
FN:138,_RNvMNtNtCsde6TLMm0c0j_15cuenv_1password7secrets4coreNtB2_10SharedCore11get_or_init
FN:183,_RNvMNtNtCsde6TLMm0c0j_15cuenv_1password7secrets4coreNtB2_10SharedCore11init_client
FN:328,_RNvMNtNtCsde6TLMm0c0j_15cuenv_1password7secrets4coreNtB2_10SharedCore14release_client
FN:270,_RNvMNtNtCsde6TLMm0c0j_15cuenv_1password7secrets4coreNtB2_10SharedCore6invoke
FN:25,_RNvNtNtCsde6TLMm0c0j_15cuenv_1password7secrets4core21create_host_functions
FNDA:0,_RNCNCNvNtNtCsalErSHYqnpj_15cuenv_1password7secrets4core21create_host_functions00B9_
FNDA:0,_RNCNCNvNtNtCsalErSHYqnpj_15cuenv_1password7secrets4core21create_host_functions0s_0B9_
FNDA:0,_RNCNvMNtNtCsalErSHYqnpj_15cuenv_1password7secrets4coreNtB4_10SharedCore11get_or_init0B8_
FNDA:0,_RNCNvMNtNtCsalErSHYqnpj_15cuenv_1password7secrets4coreNtB4_10SharedCore11get_or_inits_0B8_
FNDA:0,_RNCNvMNtNtCsalErSHYqnpj_15cuenv_1password7secrets4coreNtB4_10SharedCore11init_client0B8_
FNDA:0,_RNCNvMNtNtCsalErSHYqnpj_15cuenv_1password7secrets4coreNtB4_10SharedCore11init_clients0_0B8_
FNDA:0,_RNCNvMNtNtCsalErSHYqnpj_15cuenv_1password7secrets4coreNtB4_10SharedCore11init_clients1_0B8_
FNDA:0,_RNCNvMNtNtCsalErSHYqnpj_15cuenv_1password7secrets4coreNtB4_10SharedCore11init_clients2_0B8_
FNDA:0,_RNCNvMNtNtCsalErSHYqnpj_15cuenv_1password7secrets4coreNtB4_10SharedCore11init_clients_0B8_
FNDA:0,_RNCNvMNtNtCsalErSHYqnpj_15cuenv_1password7secrets4coreNtB4_10SharedCore6invoke0B8_
FNDA:0,_RNCNvMNtNtCsalErSHYqnpj_15cuenv_1password7secrets4coreNtB4_10SharedCore6invokes0_0B8_
FNDA:0,_RNCNvMNtNtCsalErSHYqnpj_15cuenv_1password7secrets4coreNtB4_10SharedCore6invokes1_0B8_
FNDA:0,_RNCNvMNtNtCsalErSHYqnpj_15cuenv_1password7secrets4coreNtB4_10SharedCore6invokes_0B8_
FNDA:1,_RNCNvNtNtCsalErSHYqnpj_15cuenv_1password7secrets4core11SHARED_CORE0B7_
FNDA:0,_RNCNvNtNtCsalErSHYqnpj_15cuenv_1password7secrets4core21create_host_functions0B7_
FNDA:0,_RNCNvNtNtCsalErSHYqnpj_15cuenv_1password7secrets4core21create_host_functionss0_0B7_
FNDA:0,_RNCNvNtNtCsalErSHYqnpj_15cuenv_1password7secrets4core21create_host_functionss1_0B7_
FNDA:0,_RNCNvNtNtCsalErSHYqnpj_15cuenv_1password7secrets4core21create_host_functionss_0B7_
FNDA:1,_RNvMNtNtCsalErSHYqnpj_15cuenv_1password7secrets4coreNtB2_10SharedCore11get_or_init
FNDA:0,_RNvMNtNtCsalErSHYqnpj_15cuenv_1password7secrets4coreNtB2_10SharedCore11init_client
FNDA:0,_RNvMNtNtCsalErSHYqnpj_15cuenv_1password7secrets4coreNtB2_10SharedCore14release_client
FNDA:0,_RNvMNtNtCsalErSHYqnpj_15cuenv_1password7secrets4coreNtB2_10SharedCore6invoke
FNDA:2,_RNvNtNtCsalErSHYqnpj_15cuenv_1password7secrets4core21create_host_functions
FNDA:1,_RNvNtNtNtCsde6TLMm0c0j_15cuenv_1password7secrets4core5testss_15test_os_mapping
FNDA:1,_RNvNtNtNtCsde6TLMm0c0j_15cuenv_1password7secrets4core5testss_17test_arch_mapping
FNDA:1,_RNvNtNtNtCsde6TLMm0c0j_15cuenv_1password7secrets4core5testss_21test_arch_mapping_arm
FNDA:1,_RNvNtNtNtCsde6TLMm0c0j_15cuenv_1password7secrets4core5testss_21test_os_mapping_linux
FNDA:1,_RNvNtNtNtCsde6TLMm0c0j_15cuenv_1password7secrets4core5testss_23test_arch_mapping_riscv
FNDA:1,_RNvNtNtNtCsde6TLMm0c0j_15cuenv_1password7secrets4core5testss_23test_os_mapping_windows
FNDA:1,_RNvNtNtNtCsde6TLMm0c0j_15cuenv_1password7secrets4core5testss_26test_shared_core_lazy_init
FNDA:1,_RNvNtNtNtCsde6TLMm0c0j_15cuenv_1password7secrets4core5testss_29test_host_functions_are_valid
FNDA:1,_RNvNtNtNtCsde6TLMm0c0j_15cuenv_1password7secrets4core5testss_32test_shared_core_static_is_mutex
FNDA:1,_RNvNtNtNtCsde6TLMm0c0j_15cuenv_1password7secrets4core5testss_36test_shared_core_mutex_initial_state
FNDA:1,_RNvNtNtNtCsde6TLMm0c0j_15cuenv_1password7secrets4core5testss_39test_host_functions_creates_random_fill
FNDA:1,_RNvNtNtNtCsde6TLMm0c0j_15cuenv_1password7secrets4core5testss_42test_create_host_functions_no_side_effects
FNDA:1,_RNvNtNtNtCsde6TLMm0c0j_15cuenv_1password7secrets4core5testss_43test_get_or_init_without_wasm_returns_error
FNDA:1,_RNvNtNtNtCsde6TLMm0c0j_15cuenv_1password7secrets4core5testss_49test_create_host_functions_returns_four_functions
FNDA:1,_RNvNtNtNtCsde6TLMm0c0j_15cuenv_1password7secrets4core5testss_56test_create_host_functions_can_be_created_multiple_times
FNDA:0,_RNCNCNvNtNtCsde6TLMm0c0j_15cuenv_1password7secrets4core21create_host_functions00B9_
FNDA:0,_RNCNCNvNtNtCsde6TLMm0c0j_15cuenv_1password7secrets4core21create_host_functions0s_0B9_
FNDA:0,_RNCNvMNtNtCsde6TLMm0c0j_15cuenv_1password7secrets4coreNtB4_10SharedCore11get_or_init0B8_
FNDA:0,_RNCNvMNtNtCsde6TLMm0c0j_15cuenv_1password7secrets4coreNtB4_10SharedCore11get_or_inits_0B8_
FNDA:0,_RNCNvMNtNtCsde6TLMm0c0j_15cuenv_1password7secrets4coreNtB4_10SharedCore11init_client0B8_
FNDA:0,_RNCNvMNtNtCsde6TLMm0c0j_15cuenv_1password7secrets4coreNtB4_10SharedCore11init_clients0_0B8_
FNDA:0,_RNCNvMNtNtCsde6TLMm0c0j_15cuenv_1password7secrets4coreNtB4_10SharedCore11init_clients1_0B8_
FNDA:0,_RNCNvMNtNtCsde6TLMm0c0j_15cuenv_1password7secrets4coreNtB4_10SharedCore11init_clients2_0B8_
FNDA:0,_RNCNvMNtNtCsde6TLMm0c0j_15cuenv_1password7secrets4coreNtB4_10SharedCore11init_clients_0B8_
FNDA:0,_RNCNvMNtNtCsde6TLMm0c0j_15cuenv_1password7secrets4coreNtB4_10SharedCore6invoke0B8_
FNDA:0,_RNCNvMNtNtCsde6TLMm0c0j_15cuenv_1password7secrets4coreNtB4_10SharedCore6invokes0_0B8_
FNDA:0,_RNCNvMNtNtCsde6TLMm0c0j_15cuenv_1password7secrets4coreNtB4_10SharedCore6invokes1_0B8_
FNDA:0,_RNCNvMNtNtCsde6TLMm0c0j_15cuenv_1password7secrets4coreNtB4_10SharedCore6invokes_0B8_
FNDA:1,_RNCNvNtNtCsde6TLMm0c0j_15cuenv_1password7secrets4core11SHARED_CORE0B7_
FNDA:0,_RNCNvNtNtCsde6TLMm0c0j_15cuenv_1password7secrets4core21create_host_functions0B7_
FNDA:0,_RNCNvNtNtCsde6TLMm0c0j_15cuenv_1password7secrets4core21create_host_functionss0_0B7_
FNDA:0,_RNCNvNtNtCsde6TLMm0c0j_15cuenv_1password7secrets4core21create_host_functionss1_0B7_
FNDA:0,_RNCNvNtNtCsde6TLMm0c0j_15cuenv_1password7secrets4core21create_host_functionss_0B7_
FNDA:1,_RNvMNtNtCsde6TLMm0c0j_15cuenv_1password7secrets4coreNtB2_10SharedCore11get_or_init
FNDA:0,_RNvMNtNtCsde6TLMm0c0j_15cuenv_1password7secrets4coreNtB2_10SharedCore11init_client
FNDA:0,_RNvMNtNtCsde6TLMm0c0j_15cuenv_1password7secrets4coreNtB2_10SharedCore14release_client
FNDA:0,_RNvMNtNtCsde6TLMm0c0j_15cuenv_1password7secrets4coreNtB2_10SharedCore6invoke
FNDA:8,_RNvNtNtCsde6TLMm0c0j_15cuenv_1password7secrets4core21create_host_functions
FNF:38
FNH:18
DA:15,2
DA:25,10
DA:31,10
DA:33,10
DA:34,10
DA:35,10
DA:36,0
DA:37,0
DA:40,0
DA:41,0
DA:42,0
DA:45,0
DA:46,0
DA:47,0
DA:51,0
DA:52,0
DA:53,0
DA:54,0
DA:56,10
DA:61,10
DA:63,10
DA:64,10
DA:65,10
DA:66,0
DA:69,0
DA:70,0
DA:71,0
DA:72,0
DA:73,0
DA:74,0
DA:75,0
DA:77,10
DA:80,10
DA:82,10
DA:83,10
DA:84,10
DA:85,0
DA:88,0
DA:89,0
DA:90,0
DA:91,0
DA:92,0
DA:93,0
DA:94,0
DA:96,10
DA:101,10
DA:103,10
DA:104,10
DA:105,10
DA:106,0
DA:108,0
DA:109,0
DA:110,0
DA:111,0
DA:113,10
DA:115,10
DA:116,10
DA:138,2
DA:139,2
DA:140,2
DA:141,2
DA:142,0
DA:143,0
DA:144,0
DA:146,2
DA:147,2
DA:149,2
DA:150,2
DA:151,2
DA:152,2
DA:155,2
DA:156,2
DA:157,0
DA:158,0
DA:159,0
DA:160,0
DA:161,0
DA:163,2
DA:164,2
DA:165,0
DA:168,2
DA:169,2
DA:170,2
DA:183,0
DA:185,0
DA:186,0
DA:187,0
DA:189,0
DA:190,0
DA:191,0
DA:192,0
DA:196,0
DA:197,0
DA:198,0
DA:199,0
DA:200,0
DA:201,0
DA:202,0
DA:203,0
DA:204,0
DA:205,0
DA:206,0
DA:209,0
DA:210,0
DA:211,0
DA:212,0
DA:213,0
DA:215,0
DA:216,0
DA:217,0
DA:218,0
DA:219,0
DA:220,0
DA:221,0
DA:226,0
DA:227,0
DA:228,0
DA:229,0
DA:230,0
DA:233,0
DA:234,0
DA:235,0
DA:236,0
DA:237,0
DA:238,0
DA:239,0
DA:240,0
DA:241,0
DA:242,0
DA:245,0
DA:246,0
DA:247,0
DA:248,0
DA:249,0
DA:250,0
DA:252,0
DA:253,0
DA:254,0
DA:270,0
DA:271,0
DA:272,0
DA:273,0
DA:274,0
DA:275,0
DA:276,0
DA:279,0
DA:280,0
DA:281,0
DA:282,0
DA:283,0
DA:284,0
DA:289,0
DA:290,0
DA:291,0
DA:292,0
DA:293,0
DA:295,0
DA:296,0
DA:297,0
DA:298,0
DA:299,0
DA:300,0
DA:301,0
DA:304,0
DA:305,0
DA:306,0
DA:307,0
DA:308,0
DA:311,0
DA:312,0
DA:313,0
DA:314,0
DA:315,0
DA:316,0
DA:317,0
DA:318,0
DA:319,0
DA:320,0
DA:322,0
DA:323,0
DA:328,0
DA:330,0
DA:331,0
DA:332,0
DA:333,0
DA:334,0
DA:335,0
DA:343,1
DA:346,1
DA:347,1
DA:350,1
DA:351,1
DA:352,1
DA:353,1
DA:356,1
DA:358,1
DA:365,1
DA:366,1
DA:369,1
DA:371,1
DA:372,1
DA:373,1
DA:374,1
DA:377,1
DA:379,1
DA:380,1
DA:382,1
DA:385,1
DA:387,1
DA:388,1
DA:389,0
DA:393,1
DA:394,1
DA:395,0
DA:396,1
DA:399,1
DA:401,1
DA:402,1
DA:403,0
DA:404,0
DA:408,1
DA:409,1
DA:410,0
DA:412,1
DA:413,0
DA:414,1
DA:415,1
DA:418,1
DA:420,1
DA:421,1
DA:422,1
DA:424,1
DA:425,1
DA:428,1
DA:430,1
DA:431,1
DA:432,1
DA:434,1
DA:435,1
DA:438,1
DA:440,1
DA:441,1
DA:442,1
DA:443,1
DA:445,1
DA:446,1
DA:449,1
DA:450,1
DA:451,1
DA:452,1
DA:453,1
DA:455,1
DA:456,1
DA:459,1
DA:461,1
DA:463,1
DA:464,1
DA:467,1
DA:469,1
DA:470,1
DA:472,1
DA:475,1
DA:477,1
DA:478,1
DA:479,1
DA:482,1
DA:483,1
DA:486,1
DA:490,1
DA:492,1
DA:493,1
BRF:0
BRH:0
LF:285
LH:119
end_of_record
SF:/Users/rawkode/Code/src/github.com/cuenv/cuenv/crates/1password/src/secrets/resolver.rs
FN:189,_RNvMs0_NtNtCsalErSHYqnpj_15cuenv_1password7secrets8resolverNtB5_19OnePasswordResolver11resolve_cli
FN:140,_RNvMs0_NtNtCsalErSHYqnpj_15cuenv_1password7secrets8resolverNtB5_19OnePasswordResolver12can_use_http
FN:145,_RNvMs0_NtNtCsalErSHYqnpj_15cuenv_1password7secrets8resolverNtB5_19OnePasswordResolver12resolve_http
FN:113,_RNvMs0_NtNtCsalErSHYqnpj_15cuenv_1password7secrets8resolverNtB5_19OnePasswordResolver16init_wasm_client
FN:349,_RNvMs0_NtNtCsalErSHYqnpj_15cuenv_1password7secrets8resolverNtB5_19OnePasswordResolver17resolve_batch_cli
FN:230,_RNvMs0_NtNtCsalErSHYqnpj_15cuenv_1password7secrets8resolverNtB5_19OnePasswordResolver18resolve_batch_http
FN:95,_RNvMs0_NtNtCsalErSHYqnpj_15cuenv_1password7secrets8resolverNtB5_19OnePasswordResolver19http_mode_available
FN:215,_RNvMs0_NtNtCsalErSHYqnpj_15cuenv_1password7secrets8resolverNtB5_19OnePasswordResolver19resolve_with_config
FN:71,_RNvMs0_NtNtCsalErSHYqnpj_15cuenv_1password7secrets8resolverNtB5_19OnePasswordResolver3new
FN:385,_RNvXs7_NtNtCsalErSHYqnpj_15cuenv_1password7secrets8resolverNtB5_19OnePasswordResolverNtCscUiqXkDFUoB_13cuenv_secrets14SecretResolver13provider_name
FN:408,_RNvXs7_NtNtCsalErSHYqnpj_15cuenv_1password7secrets8resolverNtB5_19OnePasswordResolverNtCscUiqXkDFUoB_13cuenv_secrets14SecretResolver13resolve_batch
FN:389,_RNvXs7_NtNtCsalErSHYqnpj_15cuenv_1password7secrets8resolverNtB5_19OnePasswordResolverNtCscUiqXkDFUoB_13cuenv_secrets14SecretResolver21supports_native_batch
FN:394,_RNvXs7_NtNtCsalErSHYqnpj_15cuenv_1password7secrets8resolverNtB5_19OnePasswordResolverNtCscUiqXkDFUoB_13cuenv_secrets14SecretResolver7resolve
FN:54,_RNvXs_NtNtCsalErSHYqnpj_15cuenv_1password7secrets8resolverNtB4_19OnePasswordResolverNtNtCskzPJi2J8k3N_4core3fmt5Debug3fmt
FN:372,_RNvXs1_NtNtCsalErSHYqnpj_15cuenv_1password7secrets8resolverNtB5_19OnePasswordResolverNtNtNtCskzPJi2J8k3N_4core3ops4drop4Drop4drop
FN:30,_RINvMNtNtCsalErSHYqnpj_15cuenv_1password7secrets8resolverNtB3_17OnePasswordConfig3newNtNtCsganj50Cd8Gx_5alloc6string6StringEB7_
FN:360,_RNCNCNCNvMs0_NtNtCsalErSHYqnpj_15cuenv_1password7secrets8resolverNtBb_19OnePasswordResolver17resolve_batch_cli000Bf_
FN:199,_RNCNCNvMs0_NtNtCsalErSHYqnpj_15cuenv_1password7secrets8resolverNtB9_19OnePasswordResolver11resolve_cli00Bd_
FN:357,_RNCNCNvMs0_NtNtCsalErSHYqnpj_15cuenv_1password7secrets8resolverNtB9_19OnePasswordResolver17resolve_batch_cli00Bd_
FN:367,_RNCNCNvMs0_NtNtCsalErSHYqnpj_15cuenv_1password7secrets8resolverNtB9_19OnePasswordResolver17resolve_batch_cli0s_0Bd_
FN:193,_RNCNvMs0_NtNtCsalErSHYqnpj_15cuenv_1password7secrets8resolverNtB7_19OnePasswordResolver11resolve_cli0Bb_
FN:149,_RNCNvMs0_NtNtCsalErSHYqnpj_15cuenv_1password7secrets8resolverNtB7_19OnePasswordResolver12resolve_http0Bb_
FN:164,_RNCNvMs0_NtNtCsalErSHYqnpj_15cuenv_1password7secrets8resolverNtB7_19OnePasswordResolver12resolve_https0_0Bb_
FN:181,_RNCNvMs0_NtNtCsalErSHYqnpj_15cuenv_1password7secrets8resolverNtB7_19OnePasswordResolver12resolve_https1_0Bb_
FN:157,_RNCNvMs0_NtNtCsalErSHYqnpj_15cuenv_1password7secrets8resolverNtB7_19OnePasswordResolver12resolve_https_0Bb_
FN:114,_RNCNvMs0_NtNtCsalErSHYqnpj_15cuenv_1password7secrets8resolverNtB7_19OnePasswordResolver16init_wasm_client0Bb_
FN:132,_RNCNvMs0_NtNtCsalErSHYqnpj_15cuenv_1password7secrets8resolverNtB7_19OnePasswordResolver16init_wasm_clients0_0Bb_
FN:125,_RNCNvMs0_NtNtCsalErSHYqnpj_15cuenv_1password7secrets8resolverNtB7_19OnePasswordResolver16init_wasm_clients_0Bb_
FN:352,_RNCNvMs0_NtNtCsalErSHYqnpj_15cuenv_1password7secrets8resolverNtB7_19OnePasswordResolver17resolve_batch_cli0Bb_
FN:237,_RNCNvMs0_NtNtCsalErSHYqnpj_15cuenv_1password7secrets8resolverNtB7_19OnePasswordResolver18resolve_batch_http0Bb_
FN:252,_RNCNvMs0_NtNtCsalErSHYqnpj_15cuenv_1password7secrets8resolverNtB7_19OnePasswordResolver18resolve_batch_https0_0Bb_
FN:262,_RNCNvMs0_NtNtCsalErSHYqnpj_15cuenv_1password7secrets8resolverNtB7_19OnePasswordResolver18resolve_batch_https1_0Bb_
FN:281,_RNCNvMs0_NtNtCsalErSHYqnpj_15cuenv_1password7secrets8resolverNtB7_19OnePasswordResolver18resolve_batch_https2_0Bb_
FN:293,_RNCNvMs0_NtNtCsalErSHYqnpj_15cuenv_1password7secrets8resolverNtB7_19OnePasswordResolver18resolve_batch_https3_0Bb_
FN:298,_RNCNvMs0_NtNtCsalErSHYqnpj_15cuenv_1password7secrets8resolverNtB7_19OnePasswordResolver18resolve_batch_https4_0Bb_
FN:312,_RNCNvMs0_NtNtCsalErSHYqnpj_15cuenv_1password7secrets8resolverNtB7_19OnePasswordResolver18resolve_batch_https5_0Bb_
FN:331,_RNCNvMs0_NtNtCsalErSHYqnpj_15cuenv_1password7secrets8resolverNtB7_19OnePasswordResolver18resolve_batch_https6_0Bb_
FN:333,_RNCNvMs0_NtNtCsalErSHYqnpj_15cuenv_1password7secrets8resolverNtB7_19OnePasswordResolver18resolve_batch_https7_0Bb_
FN:245,_RNCNvMs0_NtNtCsalErSHYqnpj_15cuenv_1password7secrets8resolverNtB7_19OnePasswordResolver18resolve_batch_https_0Bb_
FN:219,_RNCNvMs0_NtNtCsalErSHYqnpj_15cuenv_1password7secrets8resolverNtB7_19OnePasswordResolver19resolve_with_config0Bb_
FN:76,_RNCNvMs0_NtNtCsalErSHYqnpj_15cuenv_1password7secrets8resolverNtB7_19OnePasswordResolver3new0Bb_
FN:575,_RNCNvNtNtNtCsde6TLMm0c0j_15cuenv_1password7secrets8resolver5testss_24test_resolve_batch_empty0B9_
FN:372,_RNvXs1_NtNtCsde6TLMm0c0j_15cuenv_1password7secrets8resolverNtB5_19OnePasswordResolverNtNtNtCskzPJi2J8k3N_4core3ops4drop4Drop4drop
FN:476,_RNvNtNtNtCsde6TLMm0c0j_15cuenv_1password7secrets8resolver5testss_17test_config_clone
FN:483,_RNvNtNtNtCsde6TLMm0c0j_15cuenv_1password7secrets8resolver5testss_17test_config_debug
FN:441,_RNvNtNtNtCsde6TLMm0c0j_15cuenv_1password7secrets8resolver5testss_18test_simple_config
FN:466,_RNvNtNtNtCsde6TLMm0c0j_15cuenv_1password7secrets8resolver5testss_20test_config_equality
FN:575,_RNvNtNtNtCsde6TLMm0c0j_15cuenv_1password7secrets8resolver5testss_24test_resolve_batch_empty
FN:562,_RNvNtNtNtCsde6TLMm0c0j_15cuenv_1password7secrets8resolver5testss_26test_resolver_debug_output
FN:596,_RNvNtNtNtCsde6TLMm0c0j_15cuenv_1password7secrets8resolver5testss_27test_config_empty_reference
FN:453,_RNvNtNtNtCsde6TLMm0c0j_15cuenv_1password7secrets8resolver5testss_27test_config_new_from_string
FN:447,_RNvNtNtNtCsde6TLMm0c0j_15cuenv_1password7secrets8resolver5testss_27test_http_credentials_check
FN:529,_RNvNtNtNtCsde6TLMm0c0j_15cuenv_1password7secrets8resolver5testss_27test_resolver_provider_name
FN:603,_RNvNtNtNtCsde6TLMm0c0j_15cuenv_1password7secrets8resolver5testss_29test_config_unicode_reference
FN:459,_RNvNtNtNtCsde6TLMm0c0j_15cuenv_1password7secrets8resolver5testss_30test_config_new_from_str_slice
FN:588,_RNvNtNtNtCsde6TLMm0c0j_15cuenv_1password7secrets8resolver5testss_35test_config_roundtrip_serialization
FN:513,_RNvNtNtNtCsde6TLMm0c0j_15cuenv_1password7secrets8resolver5testss_35test_config_with_special_characters
FN:541,_RNvNtNtNtCsde6TLMm0c0j_15cuenv_1password7secrets8resolver5testss_35test_resolver_supports_native_batch
FN:520,_RNvNtNtNtCsde6TLMm0c0j_15cuenv_1password7secrets8resolver5testss_36test_http_mode_available_without_env
FN:428,_RNvNtNtNtCsde6TLMm0c0j_15cuenv_1password7secrets8resolver5testss_37test_onepassword_config_serialization
FN:498,_RNvNtNtNtCsde6TLMm0c0j_15cuenv_1password7secrets8resolver5testss_38test_config_deserialization_camel_case
FN:506,_RNvNtNtNtCsde6TLMm0c0j_15cuenv_1password7secrets8resolver5testss_39test_config_deserialization_missing_ref
FN:491,_RNvNtNtNtCsde6TLMm0c0j_15cuenv_1password7secrets8resolver5testss_40test_config_deserialization_with_ref_key
FN:551,_RNvNtNtNtCsde6TLMm0c0j_15cuenv_1password7secrets8resolver5testss_47test_resolver_can_use_http_false_without_client
FN:30,_RINvMNtNtCsde6TLMm0c0j_15cuenv_1password7secrets8resolverNtB3_17OnePasswordConfig3newNtNtCsganj50Cd8Gx_5alloc6string6StringEB7_
FN:30,_RINvMNtNtCsde6TLMm0c0j_15cuenv_1password7secrets8resolverNtB3_17OnePasswordConfig3newReEB7_
FN:360,_RNCNCNCNvMs0_NtNtCsde6TLMm0c0j_15cuenv_1password7secrets8resolverNtBb_19OnePasswordResolver17resolve_batch_cli000Bf_
FN:199,_RNCNCNvMs0_NtNtCsde6TLMm0c0j_15cuenv_1password7secrets8resolverNtB9_19OnePasswordResolver11resolve_cli00Bd_
FN:357,_RNCNCNvMs0_NtNtCsde6TLMm0c0j_15cuenv_1password7secrets8resolverNtB9_19OnePasswordResolver17resolve_batch_cli00Bd_
FN:367,_RNCNCNvMs0_NtNtCsde6TLMm0c0j_15cuenv_1password7secrets8resolverNtB9_19OnePasswordResolver17resolve_batch_cli0s_0Bd_
FN:193,_RNCNvMs0_NtNtCsde6TLMm0c0j_15cuenv_1password7secrets8resolverNtB7_19OnePasswordResolver11resolve_cli0Bb_
FN:149,_RNCNvMs0_NtNtCsde6TLMm0c0j_15cuenv_1password7secrets8resolverNtB7_19OnePasswordResolver12resolve_http0Bb_
FN:164,_RNCNvMs0_NtNtCsde6TLMm0c0j_15cuenv_1password7secrets8resolverNtB7_19OnePasswordResolver12resolve_https0_0Bb_
FN:181,_RNCNvMs0_NtNtCsde6TLMm0c0j_15cuenv_1password7secrets8resolverNtB7_19OnePasswordResolver12resolve_https1_0Bb_
FN:157,_RNCNvMs0_NtNtCsde6TLMm0c0j_15cuenv_1password7secrets8resolverNtB7_19OnePasswordResolver12resolve_https_0Bb_
FN:114,_RNCNvMs0_NtNtCsde6TLMm0c0j_15cuenv_1password7secrets8resolverNtB7_19OnePasswordResolver16init_wasm_client0Bb_
FN:132,_RNCNvMs0_NtNtCsde6TLMm0c0j_15cuenv_1password7secrets8resolverNtB7_19OnePasswordResolver16init_wasm_clients0_0Bb_
FN:125,_RNCNvMs0_NtNtCsde6TLMm0c0j_15cuenv_1password7secrets8resolverNtB7_19OnePasswordResolver16init_wasm_clients_0Bb_
FN:352,_RNCNvMs0_NtNtCsde6TLMm0c0j_15cuenv_1password7secrets8resolverNtB7_19OnePasswordResolver17resolve_batch_cli0Bb_
FN:237,_RNCNvMs0_NtNtCsde6TLMm0c0j_15cuenv_1password7secrets8resolverNtB7_19OnePasswordResolver18resolve_batch_http0Bb_
FN:252,_RNCNvMs0_NtNtCsde6TLMm0c0j_15cuenv_1password7secrets8resolverNtB7_19OnePasswordResolver18resolve_batch_https0_0Bb_
FN:262,_RNCNvMs0_NtNtCsde6TLMm0c0j_15cuenv_1password7secrets8resolverNtB7_19OnePasswordResolver18resolve_batch_https1_0Bb_
FN:281,_RNCNvMs0_NtNtCsde6TLMm0c0j_15cuenv_1password7secrets8resolverNtB7_19OnePasswordResolver18resolve_batch_https2_0Bb_
FN:293,_RNCNvMs0_NtNtCsde6TLMm0c0j_15cuenv_1password7secrets8resolverNtB7_19OnePasswordResolver18resolve_batch_https3_0Bb_
FN:298,_RNCNvMs0_NtNtCsde6TLMm0c0j_15cuenv_1password7secrets8resolverNtB7_19OnePasswordResolver18resolve_batch_https4_0Bb_
FN:312,_RNCNvMs0_NtNtCsde6TLMm0c0j_15cuenv_1password7secrets8resolverNtB7_19OnePasswordResolver18resolve_batch_https5_0Bb_
FN:331,_RNCNvMs0_NtNtCsde6TLMm0c0j_15cuenv_1password7secrets8resolverNtB7_19OnePasswordResolver18resolve_batch_https6_0Bb_
FN:333,_RNCNvMs0_NtNtCsde6TLMm0c0j_15cuenv_1password7secrets8resolverNtB7_19OnePasswordResolver18resolve_batch_https7_0Bb_
FN:245,_RNCNvMs0_NtNtCsde6TLMm0c0j_15cuenv_1password7secrets8resolverNtB7_19OnePasswordResolver18resolve_batch_https_0Bb_
FN:219,_RNCNvMs0_NtNtCsde6TLMm0c0j_15cuenv_1password7secrets8resolverNtB7_19OnePasswordResolver19resolve_with_config0Bb_
FN:76,_RNCNvMs0_NtNtCsde6TLMm0c0j_15cuenv_1password7secrets8resolverNtB7_19OnePasswordResolver3new0Bb_
FN:189,_RNvMs0_NtNtCsde6TLMm0c0j_15cuenv_1password7secrets8resolverNtB5_19OnePasswordResolver11resolve_cli
FN:140,_RNvMs0_NtNtCsde6TLMm0c0j_15cuenv_1password7secrets8resolverNtB5_19OnePasswordResolver12can_use_http
FN:145,_RNvMs0_NtNtCsde6TLMm0c0j_15cuenv_1password7secrets8resolverNtB5_19OnePasswordResolver12resolve_http
FN:113,_RNvMs0_NtNtCsde6TLMm0c0j_15cuenv_1password7secrets8resolverNtB5_19OnePasswordResolver16init_wasm_client
FN:349,_RNvMs0_NtNtCsde6TLMm0c0j_15cuenv_1password7secrets8resolverNtB5_19OnePasswordResolver17resolve_batch_cli
FN:230,_RNvMs0_NtNtCsde6TLMm0c0j_15cuenv_1password7secrets8resolverNtB5_19OnePasswordResolver18resolve_batch_http
FN:95,_RNvMs0_NtNtCsde6TLMm0c0j_15cuenv_1password7secrets8resolverNtB5_19OnePasswordResolver19http_mode_available
FN:215,_RNvMs0_NtNtCsde6TLMm0c0j_15cuenv_1password7secrets8resolverNtB5_19OnePasswordResolver19resolve_with_config
FN:108,_RNvMs0_NtNtCsde6TLMm0c0j_15cuenv_1password7secrets8resolverNtB5_19OnePasswordResolver26http_credentials_available
FN:71,_RNvMs0_NtNtCsde6TLMm0c0j_15cuenv_1password7secrets8resolverNtB5_19OnePasswordResolver3new
FN:385,_RNvXs7_NtNtCsde6TLMm0c0j_15cuenv_1password7secrets8resolverNtB5_19OnePasswordResolverNtCscUiqXkDFUoB_13cuenv_secrets14SecretResolver13provider_name
FN:408,_RNvXs7_NtNtCsde6TLMm0c0j_15cuenv_1password7secrets8resolverNtB5_19OnePasswordResolverNtCscUiqXkDFUoB_13cuenv_secrets14SecretResolver13resolve_batch
FN:389,_RNvXs7_NtNtCsde6TLMm0c0j_15cuenv_1password7secrets8resolverNtB5_19OnePasswordResolverNtCscUiqXkDFUoB_13cuenv_secrets14SecretResolver21supports_native_batch
FN:394,_RNvXs7_NtNtCsde6TLMm0c0j_15cuenv_1password7secrets8resolverNtB5_19OnePasswordResolverNtCscUiqXkDFUoB_13cuenv_secrets14SecretResolver7resolve
FN:54,_RNvXs_NtNtCsde6TLMm0c0j_15cuenv_1password7secrets8resolverNtB4_19OnePasswordResolverNtNtCskzPJi2J8k3N_4core3fmt5Debug3fmt
FNDA:0,_RNvMs0_NtNtCsalErSHYqnpj_15cuenv_1password7secrets8resolverNtB5_19OnePasswordResolver11resolve_cli
FNDA:0,_RNvMs0_NtNtCsalErSHYqnpj_15cuenv_1password7secrets8resolverNtB5_19OnePasswordResolver12can_use_http
FNDA:0,_RNvMs0_NtNtCsalErSHYqnpj_15cuenv_1password7secrets8resolverNtB5_19OnePasswordResolver12resolve_http
FNDA:0,_RNvMs0_NtNtCsalErSHYqnpj_15cuenv_1password7secrets8resolverNtB5_19OnePasswordResolver16init_wasm_client
FNDA:0,_RNvMs0_NtNtCsalErSHYqnpj_15cuenv_1password7secrets8resolverNtB5_19OnePasswordResolver17resolve_batch_cli
FNDA:0,_RNvMs0_NtNtCsalErSHYqnpj_15cuenv_1password7secrets8resolverNtB5_19OnePasswordResolver18resolve_batch_http
FNDA:0,_RNvMs0_NtNtCsalErSHYqnpj_15cuenv_1password7secrets8resolverNtB5_19OnePasswordResolver19http_mode_available
FNDA:0,_RNvMs0_NtNtCsalErSHYqnpj_15cuenv_1password7secrets8resolverNtB5_19OnePasswordResolver19resolve_with_config
FNDA:0,_RNvMs0_NtNtCsalErSHYqnpj_15cuenv_1password7secrets8resolverNtB5_19OnePasswordResolver3new
FNDA:0,_RNvXs7_NtNtCsalErSHYqnpj_15cuenv_1password7secrets8resolverNtB5_19OnePasswordResolverNtCscUiqXkDFUoB_13cuenv_secrets14SecretResolver13provider_name
FNDA:0,_RNvXs7_NtNtCsalErSHYqnpj_15cuenv_1password7secrets8resolverNtB5_19OnePasswordResolverNtCscUiqXkDFUoB_13cuenv_secrets14SecretResolver13resolve_batch
FNDA:0,_RNvXs7_NtNtCsalErSHYqnpj_15cuenv_1password7secrets8resolverNtB5_19OnePasswordResolverNtCscUiqXkDFUoB_13cuenv_secrets14SecretResolver21supports_native_batch
FNDA:0,_RNvXs7_NtNtCsalErSHYqnpj_15cuenv_1password7secrets8resolverNtB5_19OnePasswordResolverNtCscUiqXkDFUoB_13cuenv_secrets14SecretResolver7resolve
FNDA:0,_RNvXs_NtNtCsalErSHYqnpj_15cuenv_1password7secrets8resolverNtB4_19OnePasswordResolverNtNtCskzPJi2J8k3N_4core3fmt5Debug3fmt
FNDA:0,_RNvXs1_NtNtCsalErSHYqnpj_15cuenv_1password7secrets8resolverNtB5_19OnePasswordResolverNtNtNtCskzPJi2J8k3N_4core3ops4drop4Drop4drop
FNDA:0,_RINvMNtNtCsalErSHYqnpj_15cuenv_1password7secrets8resolverNtB3_17OnePasswordConfig3newNtNtCsganj50Cd8Gx_5alloc6string6StringEB7_
FNDA:0,_RNCNCNCNvMs0_NtNtCsalErSHYqnpj_15cuenv_1password7secrets8resolverNtBb_19OnePasswordResolver17resolve_batch_cli000Bf_
FNDA:0,_RNCNCNvMs0_NtNtCsalErSHYqnpj_15cuenv_1password7secrets8resolverNtB9_19OnePasswordResolver11resolve_cli00Bd_
FNDA:0,_RNCNCNvMs0_NtNtCsalErSHYqnpj_15cuenv_1password7secrets8resolverNtB9_19OnePasswordResolver17resolve_batch_cli00Bd_
FNDA:0,_RNCNCNvMs0_NtNtCsalErSHYqnpj_15cuenv_1password7secrets8resolverNtB9_19OnePasswordResolver17resolve_batch_cli0s_0Bd_
FNDA:0,_RNCNvMs0_NtNtCsalErSHYqnpj_15cuenv_1password7secrets8resolverNtB7_19OnePasswordResolver11resolve_cli0Bb_
FNDA:0,_RNCNvMs0_NtNtCsalErSHYqnpj_15cuenv_1password7secrets8resolverNtB7_19OnePasswordResolver12resolve_http0Bb_
FNDA:0,_RNCNvMs0_NtNtCsalErSHYqnpj_15cuenv_1password7secrets8resolverNtB7_19OnePasswordResolver12resolve_https0_0Bb_
FNDA:0,_RNCNvMs0_NtNtCsalErSHYqnpj_15cuenv_1password7secrets8resolverNtB7_19OnePasswordResolver12resolve_https1_0Bb_
FNDA:0,_RNCNvMs0_NtNtCsalErSHYqnpj_15cuenv_1password7secrets8resolverNtB7_19OnePasswordResolver12resolve_https_0Bb_
FNDA:0,_RNCNvMs0_NtNtCsalErSHYqnpj_15cuenv_1password7secrets8resolverNtB7_19OnePasswordResolver16init_wasm_client0Bb_
FNDA:0,_RNCNvMs0_NtNtCsalErSHYqnpj_15cuenv_1password7secrets8resolverNtB7_19OnePasswordResolver16init_wasm_clients0_0Bb_
FNDA:0,_RNCNvMs0_NtNtCsalErSHYqnpj_15cuenv_1password7secrets8resolverNtB7_19OnePasswordResolver16init_wasm_clients_0Bb_
FNDA:0,_RNCNvMs0_NtNtCsalErSHYqnpj_15cuenv_1password7secrets8resolverNtB7_19OnePasswordResolver17resolve_batch_cli0Bb_
FNDA:0,_RNCNvMs0_NtNtCsalErSHYqnpj_15cuenv_1password7secrets8resolverNtB7_19OnePasswordResolver18resolve_batch_http0Bb_
FNDA:0,_RNCNvMs0_NtNtCsalErSHYqnpj_15cuenv_1password7secrets8resolverNtB7_19OnePasswordResolver18resolve_batch_https0_0Bb_
FNDA:0,_RNCNvMs0_NtNtCsalErSHYqnpj_15cuenv_1password7secrets8resolverNtB7_19OnePasswordResolver18resolve_batch_https1_0Bb_
FNDA:0,_RNCNvMs0_NtNtCsalErSHYqnpj_15cuenv_1password7secrets8resolverNtB7_19OnePasswordResolver18resolve_batch_https2_0Bb_
FNDA:0,_RNCNvMs0_NtNtCsalErSHYqnpj_15cuenv_1password7secrets8resolverNtB7_19OnePasswordResolver18resolve_batch_https3_0Bb_
FNDA:0,_RNCNvMs0_NtNtCsalErSHYqnpj_15cuenv_1password7secrets8resolverNtB7_19OnePasswordResolver18resolve_batch_https4_0Bb_
FNDA:0,_RNCNvMs0_NtNtCsalErSHYqnpj_15cuenv_1password7secrets8resolverNtB7_19OnePasswordResolver18resolve_batch_https5_0Bb_
FNDA:0,_RNCNvMs0_NtNtCsalErSHYqnpj_15cuenv_1password7secrets8resolverNtB7_19OnePasswordResolver18resolve_batch_https6_0Bb_
FNDA:0,_RNCNvMs0_NtNtCsalErSHYqnpj_15cuenv_1password7secrets8resolverNtB7_19OnePasswordResolver18resolve_batch_https7_0Bb_
FNDA:0,_RNCNvMs0_NtNtCsalErSHYqnpj_15cuenv_1password7secrets8resolverNtB7_19OnePasswordResolver18resolve_batch_https_0Bb_
FNDA:0,_RNCNvMs0_NtNtCsalErSHYqnpj_15cuenv_1password7secrets8resolverNtB7_19OnePasswordResolver19resolve_with_config0Bb_
FNDA:0,_RNCNvMs0_NtNtCsalErSHYqnpj_15cuenv_1password7secrets8resolverNtB7_19OnePasswordResolver3new0Bb_
FNDA:1,_RNCNvNtNtNtCsde6TLMm0c0j_15cuenv_1password7secrets8resolver5testss_24test_resolve_batch_empty0B9_
FNDA:5,_RNvXs1_NtNtCsde6TLMm0c0j_15cuenv_1password7secrets8resolverNtB5_19OnePasswordResolverNtNtNtCskzPJi2J8k3N_4core3ops4drop4Drop4drop
FNDA:1,_RNvNtNtNtCsde6TLMm0c0j_15cuenv_1password7secrets8resolver5testss_17test_config_clone
FNDA:1,_RNvNtNtNtCsde6TLMm0c0j_15cuenv_1password7secrets8resolver5testss_17test_config_debug
FNDA:1,_RNvNtNtNtCsde6TLMm0c0j_15cuenv_1password7secrets8resolver5testss_18test_simple_config
FNDA:1,_RNvNtNtNtCsde6TLMm0c0j_15cuenv_1password7secrets8resolver5testss_20test_config_equality
FNDA:1,_RNvNtNtNtCsde6TLMm0c0j_15cuenv_1password7secrets8resolver5testss_24test_resolve_batch_empty
FNDA:1,_RNvNtNtNtCsde6TLMm0c0j_15cuenv_1password7secrets8resolver5testss_26test_resolver_debug_output
FNDA:1,_RNvNtNtNtCsde6TLMm0c0j_15cuenv_1password7secrets8resolver5testss_27test_config_empty_reference
FNDA:1,_RNvNtNtNtCsde6TLMm0c0j_15cuenv_1password7secrets8resolver5testss_27test_config_new_from_string
FNDA:1,_RNvNtNtNtCsde6TLMm0c0j_15cuenv_1password7secrets8resolver5testss_27test_http_credentials_check
FNDA:1,_RNvNtNtNtCsde6TLMm0c0j_15cuenv_1password7secrets8resolver5testss_27test_resolver_provider_name
FNDA:1,_RNvNtNtNtCsde6TLMm0c0j_15cuenv_1password7secrets8resolver5testss_29test_config_unicode_reference
FNDA:1,_RNvNtNtNtCsde6TLMm0c0j_15cuenv_1password7secrets8resolver5testss_30test_config_new_from_str_slice
FNDA:1,_RNvNtNtNtCsde6TLMm0c0j_15cuenv_1password7secrets8resolver5testss_35test_config_roundtrip_serialization
FNDA:1,_RNvNtNtNtCsde6TLMm0c0j_15cuenv_1password7secrets8resolver5testss_35test_config_with_special_characters
FNDA:1,_RNvNtNtNtCsde6TLMm0c0j_15cuenv_1password7secrets8resolver5testss_35test_resolver_supports_native_batch
FNDA:1,_RNvNtNtNtCsde6TLMm0c0j_15cuenv_1password7secrets8resolver5testss_36test_http_mode_available_without_env
FNDA:1,_RNvNtNtNtCsde6TLMm0c0j_15cuenv_1password7secrets8resolver5testss_37test_onepassword_config_serialization
FNDA:1,_RNvNtNtNtCsde6TLMm0c0j_15cuenv_1password7secrets8resolver5testss_38test_config_deserialization_camel_case
FNDA:1,_RNvNtNtNtCsde6TLMm0c0j_15cuenv_1password7secrets8resolver5testss_39test_config_deserialization_missing_ref
FNDA:1,_RNvNtNtNtCsde6TLMm0c0j_15cuenv_1password7secrets8resolver5testss_40test_config_deserialization_with_ref_key
FNDA:1,_RNvNtNtNtCsde6TLMm0c0j_15cuenv_1password7secrets8resolver5testss_47test_resolver_can_use_http_false_without_client
FNDA:1,_RINvMNtNtCsde6TLMm0c0j_15cuenv_1password7secrets8resolverNtB3_17OnePasswordConfig3newNtNtCsganj50Cd8Gx_5alloc6string6StringEB7_
FNDA:11,_RINvMNtNtCsde6TLMm0c0j_15cuenv_1password7secrets8resolverNtB3_17OnePasswordConfig3newReEB7_
FNDA:0,_RNCNCNCNvMs0_NtNtCsde6TLMm0c0j_15cuenv_1password7secrets8resolverNtBb_19OnePasswordResolver17resolve_batch_cli000Bf_
FNDA:0,_RNCNCNvMs0_NtNtCsde6TLMm0c0j_15cuenv_1password7secrets8resolverNtB9_19OnePasswordResolver11resolve_cli00Bd_
FNDA:0,_RNCNCNvMs0_NtNtCsde6TLMm0c0j_15cuenv_1password7secrets8resolverNtB9_19OnePasswordResolver17resolve_batch_cli00Bd_
FNDA:0,_RNCNCNvMs0_NtNtCsde6TLMm0c0j_15cuenv_1password7secrets8resolverNtB9_19OnePasswordResolver17resolve_batch_cli0s_0Bd_
FNDA:0,_RNCNvMs0_NtNtCsde6TLMm0c0j_15cuenv_1password7secrets8resolverNtB7_19OnePasswordResolver11resolve_cli0Bb_
FNDA:0,_RNCNvMs0_NtNtCsde6TLMm0c0j_15cuenv_1password7secrets8resolverNtB7_19OnePasswordResolver12resolve_http0Bb_
FNDA:0,_RNCNvMs0_NtNtCsde6TLMm0c0j_15cuenv_1password7secrets8resolverNtB7_19OnePasswordResolver12resolve_https0_0Bb_
FNDA:0,_RNCNvMs0_NtNtCsde6TLMm0c0j_15cuenv_1password7secrets8resolverNtB7_19OnePasswordResolver12resolve_https1_0Bb_
FNDA:0,_RNCNvMs0_NtNtCsde6TLMm0c0j_15cuenv_1password7secrets8resolverNtB7_19OnePasswordResolver12resolve_https_0Bb_
FNDA:0,_RNCNvMs0_NtNtCsde6TLMm0c0j_15cuenv_1password7secrets8resolverNtB7_19OnePasswordResolver16init_wasm_client0Bb_
FNDA:0,_RNCNvMs0_NtNtCsde6TLMm0c0j_15cuenv_1password7secrets8resolverNtB7_19OnePasswordResolver16init_wasm_clients0_0Bb_
FNDA:0,_RNCNvMs0_NtNtCsde6TLMm0c0j_15cuenv_1password7secrets8resolverNtB7_19OnePasswordResolver16init_wasm_clients_0Bb_
FNDA:0,_RNCNvMs0_NtNtCsde6TLMm0c0j_15cuenv_1password7secrets8resolverNtB7_19OnePasswordResolver17resolve_batch_cli0Bb_
FNDA:0,_RNCNvMs0_NtNtCsde6TLMm0c0j_15cuenv_1password7secrets8resolverNtB7_19OnePasswordResolver18resolve_batch_http0Bb_
FNDA:0,_RNCNvMs0_NtNtCsde6TLMm0c0j_15cuenv_1password7secrets8resolverNtB7_19OnePasswordResolver18resolve_batch_https0_0Bb_
FNDA:0,_RNCNvMs0_NtNtCsde6TLMm0c0j_15cuenv_1password7secrets8resolverNtB7_19OnePasswordResolver18resolve_batch_https1_0Bb_
FNDA:0,_RNCNvMs0_NtNtCsde6TLMm0c0j_15cuenv_1password7secrets8resolverNtB7_19OnePasswordResolver18resolve_batch_https2_0Bb_
FNDA:0,_RNCNvMs0_NtNtCsde6TLMm0c0j_15cuenv_1password7secrets8resolverNtB7_19OnePasswordResolver18resolve_batch_https3_0Bb_
FNDA:0,_RNCNvMs0_NtNtCsde6TLMm0c0j_15cuenv_1password7secrets8resolverNtB7_19OnePasswordResolver18resolve_batch_https4_0Bb_
FNDA:0,_RNCNvMs0_NtNtCsde6TLMm0c0j_15cuenv_1password7secrets8resolverNtB7_19OnePasswordResolver18resolve_batch_https5_0Bb_
FNDA:0,_RNCNvMs0_NtNtCsde6TLMm0c0j_15cuenv_1password7secrets8resolverNtB7_19OnePasswordResolver18resolve_batch_https6_0Bb_
FNDA:0,_RNCNvMs0_NtNtCsde6TLMm0c0j_15cuenv_1password7secrets8resolverNtB7_19OnePasswordResolver18resolve_batch_https7_0Bb_
FNDA:0,_RNCNvMs0_NtNtCsde6TLMm0c0j_15cuenv_1password7secrets8resolverNtB7_19OnePasswordResolver18resolve_batch_https_0Bb_
FNDA:0,_RNCNvMs0_NtNtCsde6TLMm0c0j_15cuenv_1password7secrets8resolverNtB7_19OnePasswordResolver19resolve_with_config0Bb_
FNDA:0,_RNCNvMs0_NtNtCsde6TLMm0c0j_15cuenv_1password7secrets8resolverNtB7_19OnePasswordResolver3new0Bb_
FNDA:0,_RNvMs0_NtNtCsde6TLMm0c0j_15cuenv_1password7secrets8resolverNtB5_19OnePasswordResolver11resolve_cli
FNDA:2,_RNvMs0_NtNtCsde6TLMm0c0j_15cuenv_1password7secrets8resolverNtB5_19OnePasswordResolver12can_use_http
FNDA:0,_RNvMs0_NtNtCsde6TLMm0c0j_15cuenv_1password7secrets8resolverNtB5_19OnePasswordResolver12resolve_http
FNDA:0,_RNvMs0_NtNtCsde6TLMm0c0j_15cuenv_1password7secrets8resolverNtB5_19OnePasswordResolver16init_wasm_client
FNDA:0,_RNvMs0_NtNtCsde6TLMm0c0j_15cuenv_1password7secrets8resolverNtB5_19OnePasswordResolver17resolve_batch_cli
FNDA:0,_RNvMs0_NtNtCsde6TLMm0c0j_15cuenv_1password7secrets8resolverNtB5_19OnePasswordResolver18resolve_batch_http
FNDA:6,_RNvMs0_NtNtCsde6TLMm0c0j_15cuenv_1password7secrets8resolverNtB5_19OnePasswordResolver19http_mode_available
FNDA:0,_RNvMs0_NtNtCsde6TLMm0c0j_15cuenv_1password7secrets8resolverNtB5_19OnePasswordResolver19resolve_with_config
FNDA:1,_RNvMs0_NtNtCsde6TLMm0c0j_15cuenv_1password7secrets8resolverNtB5_19OnePasswordResolver26http_credentials_available
FNDA:5,_RNvMs0_NtNtCsde6TLMm0c0j_15cuenv_1password7secrets8resolverNtB5_19OnePasswordResolver3new
FNDA:1,_RNvXs7_NtNtCsde6TLMm0c0j_15cuenv_1password7secrets8resolverNtB5_19OnePasswordResolverNtCscUiqXkDFUoB_13cuenv_secrets14SecretResolver13provider_name
FNDA:1,_RNvXs7_NtNtCsde6TLMm0c0j_15cuenv_1password7secrets8resolverNtB5_19OnePasswordResolverNtCscUiqXkDFUoB_13cuenv_secrets14SecretResolver13resolve_batch
FNDA:1,_RNvXs7_NtNtCsde6TLMm0c0j_15cuenv_1password7secrets8resolverNtB5_19OnePasswordResolverNtCscUiqXkDFUoB_13cuenv_secrets14SecretResolver21supports_native_batch
FNDA:0,_RNvXs7_NtNtCsde6TLMm0c0j_15cuenv_1password7secrets8resolverNtB5_19OnePasswordResolverNtCscUiqXkDFUoB_13cuenv_secrets14SecretResolver7resolve
FNDA:1,_RNvXs_NtNtCsde6TLMm0c0j_15cuenv_1password7secrets8resolverNtB4_19OnePasswordResolverNtNtCskzPJi2J8k3N_4core3fmt5Debug3fmt
FNF:64
FNH:32
DA:30,12
DA:31,12
DA:32,12
DA:33,12
DA:34,12
DA:54,1
DA:55,1
DA:56,1
DA:57,1
DA:58,1
DA:71,5
DA:72,5
DA:75,0
DA:76,0
DA:77,0
DA:78,0
DA:79,0
DA:80,0
DA:81,0
DA:83,0
DA:84,0
DA:85,0
DA:87,5
DA:88,5
DA:91,5
DA:92,5
DA:95,6
DA:96,6
DA:97,6
DA:98,6
DA:101,0
DA:103,6
DA:104,6
DA:108,1
DA:109,1
DA:110,1
DA:113,0
DA:114,0
DA:115,0
DA:116,0
DA:117,0
DA:118,0
DA:119,0
DA:121,0
DA:122,0
DA:123,0
DA:124,0
DA:125,0
DA:126,0
DA:127,0
DA:129,0
DA:130,0
DA:131,0
DA:132,0
DA:133,0
DA:134,0
DA:136,0
DA:137,0
DA:140,2
DA:141,2
DA:142,2
DA:145,0
DA:146,0
DA:147,0
DA:148,0
DA:149,0
DA:150,0
DA:151,0
DA:153,0
DA:154,0
DA:155,0
DA:156,0
DA:157,0
DA:158,0
DA:159,0
DA:161,0
DA:162,0
DA:163,0
DA:164,0
DA:165,0
DA:166,0
DA:169,0
DA:170,0
DA:171,0
DA:172,0
DA:175,0
DA:179,0
DA:180,0
DA:181,0
DA:182,0
DA:183,0
DA:185,0
DA:186,0
DA:189,0
DA:190,0
DA:191,0
DA:192,0
DA:193,0
DA:194,0
DA:195,0
DA:196,0
DA:197,0
DA:198,0
DA:199,0
DA:200,0
DA:201,0
DA:203,0
DA:204,0
DA:205,0
DA:206,0
DA:207,0
DA:208,0
DA:209,0
DA:211,0
DA:212,0
DA:215,0
DA:216,0
DA:217,0
DA:218,0
DA:219,0
DA:221,0
DA:222,0
DA:223,0
DA:226,0
DA:227,0
DA:230,0
DA:231,0
DA:232,0
DA:233,0
DA:234,0
DA:235,0
DA:236,0
DA:237,0
DA:238,0
DA:239,0
DA:241,0
DA:242,0
DA:243,0
DA:244,0
DA:245,0
DA:246,0
DA:247,0
DA:249,0
DA:250,0
DA:251,0
DA:252,0
DA:253,0
DA:254,0
DA:257,0
DA:258,0
DA:260,0
DA:261,0
DA:262,0
DA:264,0
DA:265,0
DA:266,0
DA:267,0
DA:269,0
DA:270,0
DA:271,0
DA:275,0
DA:276,0
DA:277,0
DA:279,0
DA:280,0
DA:281,0
DA:282,0
DA:287,0
DA:288,0
DA:291,0
DA:292,0
DA:293,0
DA:294,0
DA:295,0
DA:298,0
DA:299,0
DA:300,0
DA:301,0
DA:302,0
DA:303,0
DA:306,0
DA:308,0
DA:309,0
DA:310,0
DA:311,0
DA:312,0
DA:313,0
DA:314,0
DA:317,0
DA:318,0
DA:320,0
DA:321,0
DA:322,0
DA:323,0
DA:324,0
DA:325,0
DA:326,0
DA:329,0
DA:330,0
DA:331,0
DA:332,0
DA:333,0
DA:334,0
DA:335,0
DA:338,0
DA:339,0
DA:340,0
DA:341,0
DA:342,0
DA:345,0
DA:346,0
DA:349,0
DA:350,0
DA:351,0
DA:352,0
DA:355,0
DA:356,0
DA:357,0
DA:358,0
DA:359,0
DA:360,0
DA:361,0
DA:362,0
DA:363,0
DA:364,0
DA:365,0
DA:367,0
DA:368,0
DA:372,5
DA:373,5
DA:374,0
DA:375,0
DA:376,0
DA:377,0
DA:378,0
DA:379,5
DA:380,5
DA:385,1
DA:386,1
DA:387,1
DA:389,1
DA:391,1
DA:392,1
DA:394,0
DA:403,0
DA:408,1
DA:420,1
DA:428,1
DA:429,1
DA:430,1
DA:431,1
DA:433,1
DA:434,1
DA:436,1
DA:437,1
DA:438,1
DA:441,1
DA:442,1
DA:443,1
DA:444,1
DA:447,1
DA:449,1
DA:450,1
DA:453,1
DA:454,1
DA:455,1
DA:456,1
DA:459,1
DA:460,1
DA:461,1
DA:462,1
DA:463,1
DA:466,1
DA:467,1
DA:468,1
DA:469,1
DA:471,1
DA:472,1
DA:473,1
DA:476,1
DA:477,1
DA:478,1
DA:479,1
DA:480,1
DA:483,1
DA:484,1
DA:485,1
DA:486,1
DA:487,1
DA:488,1
DA:491,1
DA:492,1
DA:493,1
DA:494,1
DA:495,1
DA:498,1
DA:500,1
DA:501,1
DA:502,1
DA:503,1
DA:506,1
DA:507,1
DA:508,1
DA:509,1
DA:510,1
DA:513,1
DA:514,1
DA:515,1
DA:516,1
DA:517,1
DA:520,1
DA:523,1
DA:525,1
DA:526,1
DA:529,1
DA:532,1
DA:534,1
DA:535,1
DA:536,0
DA:537,0
DA:538,1
DA:541,1
DA:542,1
DA:544,1
DA:545,1
DA:546,0
DA:547,0
DA:548,1
DA:551,1
DA:553,1
DA:555,1
DA:556,1
DA:557,0
DA:558,0
DA:559,1
DA:562,1
DA:563,1
DA:565,1
DA:566,1
DA:567,1
DA:569,1
DA:570,0
DA:571,0
DA:572,1
DA:575,1
DA:576,1
DA:577,1
DA:578,1
DA:579,1
DA:580,1
DA:581,1
DA:582,1
DA:583,1
DA:584,1
DA:585,1
DA:588,1
DA:589,1
DA:590,1
DA:591,1
DA:592,1
DA:593,1
DA:596,1
DA:598,1
DA:599,1
DA:600,1
DA:603,1
DA:604,1
DA:605,1
DA:606,1
BRF:0
BRH:0
LF:404
LH:161
end_of_record
SF:/Users/rawkode/Code/src/github.com/cuenv/cuenv/crates/1password/src/secrets/wasm.rs
FN:64,_RNCNvNtNtCsalErSHYqnpj_15cuenv_1password7secrets4wasm21load_onepassword_wasm0B7_
FN:25,_RNCNvNtNtCsalErSHYqnpj_15cuenv_1password7secrets4wasm21onepassword_wasm_path0B7_
FN:38,_RNCNvNtNtCsalErSHYqnpj_15cuenv_1password7secrets4wasm26onepassword_wasm_available0B7_
FN:49,_RNvNtNtCsalErSHYqnpj_15cuenv_1password7secrets4wasm21load_onepassword_wasm
FN:17,_RNvNtNtCsalErSHYqnpj_15cuenv_1password7secrets4wasm21onepassword_wasm_path
FN:37,_RNvNtNtCsalErSHYqnpj_15cuenv_1password7secrets4wasm26onepassword_wasm_available
FN:64,_RNCNvNtNtCsde6TLMm0c0j_15cuenv_1password7secrets4wasm21load_onepassword_wasm0B7_
FN:25,_RNCNvNtNtCsde6TLMm0c0j_15cuenv_1password7secrets4wasm21onepassword_wasm_path0B7_
FN:38,_RNCNvNtNtCsde6TLMm0c0j_15cuenv_1password7secrets4wasm26onepassword_wasm_available0B7_
FN:141,_RNCNvNtNtNtCsde6TLMm0c0j_15cuenv_1password7secrets4wasm5testss_29test_wasm_path_file_extension0B9_
FN:74,_RNvNtNtNtCsde6TLMm0c0j_15cuenv_1password7secrets4wasm5testss_14test_wasm_path
FN:98,_RNvNtNtNtCsde6TLMm0c0j_15cuenv_1password7secrets4wasm5testss_26test_wasm_path_is_absolute
FN:120,_RNvNtNtNtCsde6TLMm0c0j_15cuenv_1password7secrets4wasm5testss_27test_load_wasm_missing_file
FN:139,_RNvNtNtNtCsde6TLMm0c0j_15cuenv_1password7secrets4wasm5testss_29test_wasm_path_file_extension
FN:112,_RNvNtNtNtCsde6TLMm0c0j_15cuenv_1password7secrets4wasm5testss_31test_wasm_available_consistency
FN:104,_RNvNtNtNtCsde6TLMm0c0j_15cuenv_1password7secrets4wasm5testss_35test_wasm_available_returns_boolean
FN:87,_RNvNtNtNtCsde6TLMm0c0j_15cuenv_1password7secrets4wasm5testss_39test_wasm_path_contains_cuenv_directory
FN:49,_RNvNtNtCsde6TLMm0c0j_15cuenv_1password7secrets4wasm21load_onepassword_wasm
FN:17,_RNvNtNtCsde6TLMm0c0j_15cuenv_1password7secrets4wasm21onepassword_wasm_path
FN:37,_RNvNtNtCsde6TLMm0c0j_15cuenv_1password7secrets4wasm26onepassword_wasm_available
FNDA:0,_RNCNvNtNtCsalErSHYqnpj_15cuenv_1password7secrets4wasm21load_onepassword_wasm0B7_
FNDA:0,_RNCNvNtNtCsalErSHYqnpj_15cuenv_1password7secrets4wasm21onepassword_wasm_path0B7_
FNDA:0,_RNCNvNtNtCsalErSHYqnpj_15cuenv_1password7secrets4wasm26onepassword_wasm_available0B7_
FNDA:1,_RNvNtNtCsalErSHYqnpj_15cuenv_1password7secrets4wasm21load_onepassword_wasm
FNDA:4,_RNvNtNtCsalErSHYqnpj_15cuenv_1password7secrets4wasm21onepassword_wasm_path
FNDA:0,_RNvNtNtCsalErSHYqnpj_15cuenv_1password7secrets4wasm26onepassword_wasm_available
FNDA:0,_RNCNvNtNtCsde6TLMm0c0j_15cuenv_1password7secrets4wasm21load_onepassword_wasm0B7_
FNDA:0,_RNCNvNtNtCsde6TLMm0c0j_15cuenv_1password7secrets4wasm21onepassword_wasm_path0B7_
FNDA:14,_RNCNvNtNtCsde6TLMm0c0j_15cuenv_1password7secrets4wasm26onepassword_wasm_available0B7_
FNDA:1,_RNCNvNtNtNtCsde6TLMm0c0j_15cuenv_1password7secrets4wasm5testss_29test_wasm_path_file_extension0B9_
FNDA:1,_RNvNtNtNtCsde6TLMm0c0j_15cuenv_1password7secrets4wasm5testss_14test_wasm_path
FNDA:1,_RNvNtNtNtCsde6TLMm0c0j_15cuenv_1password7secrets4wasm5testss_26test_wasm_path_is_absolute
FNDA:1,_RNvNtNtNtCsde6TLMm0c0j_15cuenv_1password7secrets4wasm5testss_27test_load_wasm_missing_file
FNDA:1,_RNvNtNtNtCsde6TLMm0c0j_15cuenv_1password7secrets4wasm5testss_29test_wasm_path_file_extension
FNDA:1,_RNvNtNtNtCsde6TLMm0c0j_15cuenv_1password7secrets4wasm5testss_31test_wasm_available_consistency
FNDA:1,_RNvNtNtNtCsde6TLMm0c0j_15cuenv_1password7secrets4wasm5testss_35test_wasm_available_returns_boolean
FNDA:1,_RNvNtNtNtCsde6TLMm0c0j_15cuenv_1password7secrets4wasm5testss_39test_wasm_path_contains_cuenv_directory
FNDA:2,_RNvNtNtCsde6TLMm0c0j_15cuenv_1password7secrets4wasm21load_onepassword_wasm
FNDA:20,_RNvNtNtCsde6TLMm0c0j_15cuenv_1password7secrets4wasm21onepassword_wasm_path
FNDA:14,_RNvNtNtCsde6TLMm0c0j_15cuenv_1password7secrets4wasm26onepassword_wasm_available
FNF:14
FNH:12
DA:17,24
DA:19,24
DA:20,1
DA:21,23
DA:24,23
DA:25,0
DA:26,0
DA:27,0
DA:29,23
DA:30,23
DA:31,23
DA:32,23
DA:33,24
DA:37,14
DA:38,14
DA:39,14
DA:49,3
DA:50,3
DA:52,3
DA:53,0
DA:54,0
DA:55,0
DA:56,0
DA:57,0
DA:58,0
DA:59,0
DA:60,0
DA:61,3
DA:63,3
DA:64,0
DA:65,0
DA:66,0
DA:67,3
DA:74,1
DA:75,1
DA:79,1
DA:80,0
DA:82,1
DA:84,1
DA:87,1
DA:89,1
DA:90,1
DA:91,1
DA:92,1
DA:93,1
DA:94,0
DA:95,1
DA:98,1
DA:99,1
DA:100,1
DA:101,1
DA:104,1
DA:106,1
DA:108,1
DA:109,1
DA:112,1
DA:114,1
DA:115,1
DA:116,1
DA:117,1
DA:120,1
DA:123,1
DA:124,1
DA:127,1
DA:128,0
DA:129,0
DA:130,0
DA:131,0
DA:132,0
DA:134,1
DA:135,0
DA:136,1
DA:139,1
DA:140,1
DA:141,1
DA:144,1
DA:145,1
DA:146,0
DA:147,1
BRF:0
BRH:0
LF:82
LH:58
end_of_record
SF:/Users/rawkode/Code/src/github.com/cuenv/cuenv/crates/aws/src/secrets.rs
FN:425,_RNvNtNtCs6hNSIdyjBlh_9cuenv_aws7secrets5testss_18test_simple_config
FN:563,_RNvNtNtCs6hNSIdyjBlh_9cuenv_aws7secrets5testss_21test_aws_config_clone
FN:575,_RNvNtNtCs6hNSIdyjBlh_9cuenv_aws7secrets5testss_21test_aws_config_debug
FN:583,_RNvNtNtCs6hNSIdyjBlh_9cuenv_aws7secrets5testss_24test_aws_config_equality
FN:633,_RNvNtNtCs6hNSIdyjBlh_9cuenv_aws7secrets5testss_24test_aws_config_with_arn
FN:737,_RNvNtNtCs6hNSIdyjBlh_9cuenv_aws7secrets5testss_24test_resolve_batch_empty
FN:640,_RNvNtNtCs6hNSIdyjBlh_9cuenv_aws7secrets5testss_25test_aws_config_roundtrip
FN:725,_RNvNtNtCs6hNSIdyjBlh_9cuenv_aws7secrets5testss_26test_resolver_debug_output
FN:436,_RNvNtNtCs6hNSIdyjBlh_9cuenv_aws7secrets5testss_27test_http_credentials_check
FN:705,_RNvNtNtCs6hNSIdyjBlh_9cuenv_aws7secrets5testss_27test_resolver_provider_name
FN:411,_RNvNtNtCs6hNSIdyjBlh_9cuenv_aws7secrets5testss_29test_aws_config_serialization
FN:669,_RNvNtNtCs6hNSIdyjBlh_9cuenv_aws7secrets5testss_29test_extract_json_key_unicode
FN:556,_RNvNtNtCs6hNSIdyjBlh_9cuenv_aws7secrets5testss_32test_extract_json_key_null_value
FN:547,_RNvNtNtCs6hNSIdyjBlh_9cuenv_aws7secrets5testss_33test_extract_json_key_array_value
FN:683,_RNvNtNtCs6hNSIdyjBlh_9cuenv_aws7secrets5testss_33test_extract_json_key_float_value
FN:451,_RNvNtNtCs6hNSIdyjBlh_9cuenv_aws7secrets5testss_34test_aws_config_full_serialization
FN:484,_RNvNtNtCs6hNSIdyjBlh_9cuenv_aws7secrets5testss_34test_extract_json_key_number_value
FN:477,_RNvNtNtCs6hNSIdyjBlh_9cuenv_aws7secrets5testss_34test_extract_json_key_string_value
FN:491,_RNvNtNtCs6hNSIdyjBlh_9cuenv_aws7secrets5testss_35test_extract_json_key_boolean_value
FN:537,_RNvNtNtCs6hNSIdyjBlh_9cuenv_aws7secrets5testss_35test_extract_json_key_nested_object
FN:715,_RNvNtNtCs6hNSIdyjBlh_9cuenv_aws7secrets5testss_35test_resolver_supports_native_batch
FN:676,_RNvNtNtCs6hNSIdyjBlh_9cuenv_aws7secrets5testss_36test_extract_json_key_numeric_string
FN:467,_RNvNtNtCs6hNSIdyjBlh_9cuenv_aws7secrets5testss_37test_aws_config_minimal_serialization
FN:442,_RNvNtNtCs6hNSIdyjBlh_9cuenv_aws7secrets5testss_37test_aws_config_new_with_string_slice
FN:750,_RNvNtNtCs6hNSIdyjBlh_9cuenv_aws7secrets5testss_37test_http_credentials_available_logic
FN:691,_RNvNtNtCs6hNSIdyjBlh_9cuenv_aws7secrets5testss_37test_resolver_new_without_credentials
FN:616,_RNvNtNtCs6hNSIdyjBlh_9cuenv_aws7secrets5testss_39test_aws_config_deserialization_minimal
FN:512,_RNvNtNtCs6hNSIdyjBlh_9cuenv_aws7secrets5testss_39test_extract_json_key_missing_key_error
FN:593,_RNvNtNtCs6hNSIdyjBlh_9cuenv_aws7secrets5testss_40test_aws_config_with_version_id_equality
FN:653,_RNvNtNtCs6hNSIdyjBlh_9cuenv_aws7secrets5testss_40test_extract_json_key_empty_string_value
FN:525,_RNvNtNtCs6hNSIdyjBlh_9cuenv_aws7secrets5testss_40test_extract_json_key_invalid_json_error
FN:660,_RNvNtNtCs6hNSIdyjBlh_9cuenv_aws7secrets5testss_40test_extract_json_key_special_characters
FN:606,_RNvNtNtCs6hNSIdyjBlh_9cuenv_aws7secrets5testss_41test_aws_config_deserialization_from_json
FN:505,_RNvNtNtCs6hNSIdyjBlh_9cuenv_aws7secrets5testss_41test_extract_json_key_plain_string_no_key
FN:498,_RNvNtNtCs6hNSIdyjBlh_9cuenv_aws7secrets5testss_48test_extract_json_key_no_key_returns_full_secret
FN:626,_RNvNtNtCs6hNSIdyjBlh_9cuenv_aws7secrets5testss_49test_aws_config_deserialization_missing_secret_id
FN:37,_RINvMNtCs6hNSIdyjBlh_9cuenv_aws7secretsNtB3_15AwsSecretConfig3newRNtNtCsganj50Cd8Gx_5alloc6string6StringEB5_
FN:37,_RINvMNtCs6hNSIdyjBlh_9cuenv_aws7secretsNtB3_15AwsSecretConfig3newReEB5_
FN:317,_RNCNCNCNCNvMs0_NtCs6hNSIdyjBlh_9cuenv_aws7secretsNtBd_11AwsResolver18resolve_batch_http0s1_000Bf_
FN:320,_RNCNCNCNCNvMs0_NtCs6hNSIdyjBlh_9cuenv_aws7secretsNtBd_11AwsResolver18resolve_batch_http0s1_00s_0Bf_
FN:355,_RNCNCNCNvMs0_NtCs6hNSIdyjBlh_9cuenv_aws7secretsNtBb_11AwsResolver17resolve_batch_cli000Bd_
FN:315,_RNCNCNCNvMs0_NtCs6hNSIdyjBlh_9cuenv_aws7secretsNtBb_11AwsResolver18resolve_batch_http0s1_00Bd_
FN:181,_RNCNCNvMs0_NtCs6hNSIdyjBlh_9cuenv_aws7secretsNtB9_11AwsResolver11resolve_cli00Bb_
FN:116,_RNCNCNvMs0_NtCs6hNSIdyjBlh_9cuenv_aws7secretsNtB9_11AwsResolver12resolve_http00Bb_
FN:142,_RNCNCNvMs0_NtCs6hNSIdyjBlh_9cuenv_aws7secretsNtB9_11AwsResolver12resolve_http0s0_0Bb_
FN:134,_RNCNCNvMs0_NtCs6hNSIdyjBlh_9cuenv_aws7secretsNtB9_11AwsResolver12resolve_http0s_0Bb_
FN:352,_RNCNCNvMs0_NtCs6hNSIdyjBlh_9cuenv_aws7secretsNtB9_11AwsResolver17resolve_batch_cli00Bb_
FN:362,_RNCNCNvMs0_NtCs6hNSIdyjBlh_9cuenv_aws7secretsNtB9_11AwsResolver17resolve_batch_cli0s_0Bb_
FN:252,_RNCNCNvMs0_NtCs6hNSIdyjBlh_9cuenv_aws7secretsNtB9_11AwsResolver18resolve_batch_http00Bb_
FN:281,_RNCNCNvMs0_NtCs6hNSIdyjBlh_9cuenv_aws7secretsNtB9_11AwsResolver18resolve_batch_http0s0_0Bb_
FN:312,_RNCNCNvMs0_NtCs6hNSIdyjBlh_9cuenv_aws7secretsNtB9_11AwsResolver18resolve_batch_http0s1_0Bb_
FN:340,_RNCNCNvMs0_NtCs6hNSIdyjBlh_9cuenv_aws7secretsNtB9_11AwsResolver18resolve_batch_http0s2_0Bb_
FN:261,_RNCNCNvMs0_NtCs6hNSIdyjBlh_9cuenv_aws7secretsNtB9_11AwsResolver18resolve_batch_http0s_0Bb_
FN:154,_RNCNvMs0_NtCs6hNSIdyjBlh_9cuenv_aws7secretsNtB7_11AwsResolver11resolve_cli0B9_
FN:111,_RNCNvMs0_NtCs6hNSIdyjBlh_9cuenv_aws7secretsNtB7_11AwsResolver12resolve_http0B9_
FN:206,_RNCNvMs0_NtCs6hNSIdyjBlh_9cuenv_aws7secretsNtB7_11AwsResolver16extract_json_key0B9_
FN:213,_RNCNvMs0_NtCs6hNSIdyjBlh_9cuenv_aws7secretsNtB7_11AwsResolver16extract_json_keys_0B9_
FN:347,_RNCNvMs0_NtCs6hNSIdyjBlh_9cuenv_aws7secretsNtB7_11AwsResolver17resolve_batch_cli0B9_
FN:245,_RNCNvMs0_NtCs6hNSIdyjBlh_9cuenv_aws7secretsNtB7_11AwsResolver18resolve_batch_http0B9_
FN:231,_RNCNvMs0_NtCs6hNSIdyjBlh_9cuenv_aws7secretsNtB7_11AwsResolver19resolve_with_config0B9_
FN:76,_RNCNvMs0_NtCs6hNSIdyjBlh_9cuenv_aws7secretsNtB7_11AwsResolver3new0B9_
FN:737,_RNCNvNtNtCs6hNSIdyjBlh_9cuenv_aws7secrets5testss_24test_resolve_batch_empty0B7_
FN:725,_RNCNvNtNtCs6hNSIdyjBlh_9cuenv_aws7secrets5testss_26test_resolver_debug_output0B7_
FN:705,_RNCNvNtNtCs6hNSIdyjBlh_9cuenv_aws7secrets5testss_27test_resolver_provider_name0B7_
FN:715,_RNCNvNtNtCs6hNSIdyjBlh_9cuenv_aws7secrets5testss_35test_resolver_supports_native_batch0B7_
FN:691,_RNCNvNtNtCs6hNSIdyjBlh_9cuenv_aws7secrets5testss_37test_resolver_new_without_credentials0B7_
FN:150,_RNvMs0_NtCs6hNSIdyjBlh_9cuenv_aws7secretsNtB5_11AwsResolver11resolve_cli
FN:102,_RNvMs0_NtCs6hNSIdyjBlh_9cuenv_aws7secretsNtB5_11AwsResolver12can_use_http
FN:107,_RNvMs0_NtCs6hNSIdyjBlh_9cuenv_aws7secretsNtB5_11AwsResolver12resolve_http
FN:198,_RNvMs0_NtCs6hNSIdyjBlh_9cuenv_aws7secretsNtB5_11AwsResolver16extract_json_key
FN:344,_RNvMs0_NtCs6hNSIdyjBlh_9cuenv_aws7secretsNtB5_11AwsResolver17resolve_batch_cli
FN:242,_RNvMs0_NtCs6hNSIdyjBlh_9cuenv_aws7secretsNtB5_11AwsResolver18resolve_batch_http
FN:227,_RNvMs0_NtCs6hNSIdyjBlh_9cuenv_aws7secretsNtB5_11AwsResolver19resolve_with_config
FN:97,_RNvMs0_NtCs6hNSIdyjBlh_9cuenv_aws7secretsNtB5_11AwsResolver26http_credentials_available
FN:76,_RNvMs0_NtCs6hNSIdyjBlh_9cuenv_aws7secretsNtB5_11AwsResolver3new
FN:368,_RNvXs6_NtCs6hNSIdyjBlh_9cuenv_aws7secretsNtB5_11AwsResolverNtCscUiqXkDFUoB_13cuenv_secrets14SecretResolver13provider_name
FN:391,_RNvXs6_NtCs6hNSIdyjBlh_9cuenv_aws7secretsNtB5_11AwsResolverNtCscUiqXkDFUoB_13cuenv_secrets14SecretResolver13resolve_batch
FN:372,_RNvXs6_NtCs6hNSIdyjBlh_9cuenv_aws7secretsNtB5_11AwsResolverNtCscUiqXkDFUoB_13cuenv_secrets14SecretResolver21supports_native_batch
FN:377,_RNvXs6_NtCs6hNSIdyjBlh_9cuenv_aws7secretsNtB5_11AwsResolverNtCscUiqXkDFUoB_13cuenv_secrets14SecretResolver7resolve
FN:61,_RNvXs_NtCs6hNSIdyjBlh_9cuenv_aws7secretsNtB4_11AwsResolverNtNtCskzPJi2J8k3N_4core3fmt5Debug3fmt
FNDA:1,_RNvNtNtCs6hNSIdyjBlh_9cuenv_aws7secrets5testss_18test_simple_config
FNDA:1,_RNvNtNtCs6hNSIdyjBlh_9cuenv_aws7secrets5testss_21test_aws_config_clone
FNDA:1,_RNvNtNtCs6hNSIdyjBlh_9cuenv_aws7secrets5testss_21test_aws_config_debug
FNDA:1,_RNvNtNtCs6hNSIdyjBlh_9cuenv_aws7secrets5testss_24test_aws_config_equality
FNDA:1,_RNvNtNtCs6hNSIdyjBlh_9cuenv_aws7secrets5testss_24test_aws_config_with_arn
FNDA:1,_RNvNtNtCs6hNSIdyjBlh_9cuenv_aws7secrets5testss_24test_resolve_batch_empty
FNDA:1,_RNvNtNtCs6hNSIdyjBlh_9cuenv_aws7secrets5testss_25test_aws_config_roundtrip
FNDA:1,_RNvNtNtCs6hNSIdyjBlh_9cuenv_aws7secrets5testss_26test_resolver_debug_output
FNDA:1,_RNvNtNtCs6hNSIdyjBlh_9cuenv_aws7secrets5testss_27test_http_credentials_check
FNDA:1,_RNvNtNtCs6hNSIdyjBlh_9cuenv_aws7secrets5testss_27test_resolver_provider_name
FNDA:1,_RNvNtNtCs6hNSIdyjBlh_9cuenv_aws7secrets5testss_29test_aws_config_serialization
FNDA:1,_RNvNtNtCs6hNSIdyjBlh_9cuenv_aws7secrets5testss_29test_extract_json_key_unicode
FNDA:1,_RNvNtNtCs6hNSIdyjBlh_9cuenv_aws7secrets5testss_32test_extract_json_key_null_value
FNDA:1,_RNvNtNtCs6hNSIdyjBlh_9cuenv_aws7secrets5testss_33test_extract_json_key_array_value
FNDA:1,_RNvNtNtCs6hNSIdyjBlh_9cuenv_aws7secrets5testss_33test_extract_json_key_float_value
FNDA:1,_RNvNtNtCs6hNSIdyjBlh_9cuenv_aws7secrets5testss_34test_aws_config_full_serialization
FNDA:1,_RNvNtNtCs6hNSIdyjBlh_9cuenv_aws7secrets5testss_34test_extract_json_key_number_value
FNDA:1,_RNvNtNtCs6hNSIdyjBlh_9cuenv_aws7secrets5testss_34test_extract_json_key_string_value
FNDA:1,_RNvNtNtCs6hNSIdyjBlh_9cuenv_aws7secrets5testss_35test_extract_json_key_boolean_value
FNDA:1,_RNvNtNtCs6hNSIdyjBlh_9cuenv_aws7secrets5testss_35test_extract_json_key_nested_object
FNDA:1,_RNvNtNtCs6hNSIdyjBlh_9cuenv_aws7secrets5testss_35test_resolver_supports_native_batch
FNDA:1,_RNvNtNtCs6hNSIdyjBlh_9cuenv_aws7secrets5testss_36test_extract_json_key_numeric_string
FNDA:1,_RNvNtNtCs6hNSIdyjBlh_9cuenv_aws7secrets5testss_37test_aws_config_minimal_serialization
FNDA:1,_RNvNtNtCs6hNSIdyjBlh_9cuenv_aws7secrets5testss_37test_aws_config_new_with_string_slice
FNDA:1,_RNvNtNtCs6hNSIdyjBlh_9cuenv_aws7secrets5testss_37test_http_credentials_available_logic
FNDA:1,_RNvNtNtCs6hNSIdyjBlh_9cuenv_aws7secrets5testss_37test_resolver_new_without_credentials
FNDA:1,_RNvNtNtCs6hNSIdyjBlh_9cuenv_aws7secrets5testss_39test_aws_config_deserialization_minimal
FNDA:1,_RNvNtNtCs6hNSIdyjBlh_9cuenv_aws7secrets5testss_39test_extract_json_key_missing_key_error
FNDA:1,_RNvNtNtCs6hNSIdyjBlh_9cuenv_aws7secrets5testss_40test_aws_config_with_version_id_equality
FNDA:1,_RNvNtNtCs6hNSIdyjBlh_9cuenv_aws7secrets5testss_40test_extract_json_key_empty_string_value
FNDA:1,_RNvNtNtCs6hNSIdyjBlh_9cuenv_aws7secrets5testss_40test_extract_json_key_invalid_json_error
FNDA:1,_RNvNtNtCs6hNSIdyjBlh_9cuenv_aws7secrets5testss_40test_extract_json_key_special_characters
FNDA:1,_RNvNtNtCs6hNSIdyjBlh_9cuenv_aws7secrets5testss_41test_aws_config_deserialization_from_json
FNDA:1,_RNvNtNtCs6hNSIdyjBlh_9cuenv_aws7secrets5testss_41test_extract_json_key_plain_string_no_key
FNDA:1,_RNvNtNtCs6hNSIdyjBlh_9cuenv_aws7secrets5testss_48test_extract_json_key_no_key_returns_full_secret
FNDA:1,_RNvNtNtCs6hNSIdyjBlh_9cuenv_aws7secrets5testss_49test_aws_config_deserialization_missing_secret_id
FNDA:0,_RINvMNtCs6hNSIdyjBlh_9cuenv_aws7secretsNtB3_15AwsSecretConfig3newRNtNtCsganj50Cd8Gx_5alloc6string6StringEB5_
FNDA:11,_RINvMNtCs6hNSIdyjBlh_9cuenv_aws7secretsNtB3_15AwsSecretConfig3newReEB5_
FNDA:0,_RNCNCNCNCNvMs0_NtCs6hNSIdyjBlh_9cuenv_aws7secretsNtBd_11AwsResolver18resolve_batch_http0s1_000Bf_
FNDA:0,_RNCNCNCNCNvMs0_NtCs6hNSIdyjBlh_9cuenv_aws7secretsNtBd_11AwsResolver18resolve_batch_http0s1_00s_0Bf_
FNDA:0,_RNCNCNCNvMs0_NtCs6hNSIdyjBlh_9cuenv_aws7secretsNtBb_11AwsResolver17resolve_batch_cli000Bd_
FNDA:0,_RNCNCNCNvMs0_NtCs6hNSIdyjBlh_9cuenv_aws7secretsNtBb_11AwsResolver18resolve_batch_http0s1_00Bd_
FNDA:0,_RNCNCNvMs0_NtCs6hNSIdyjBlh_9cuenv_aws7secretsNtB9_11AwsResolver11resolve_cli00Bb_
FNDA:0,_RNCNCNvMs0_NtCs6hNSIdyjBlh_9cuenv_aws7secretsNtB9_11AwsResolver12resolve_http00Bb_
FNDA:0,_RNCNCNvMs0_NtCs6hNSIdyjBlh_9cuenv_aws7secretsNtB9_11AwsResolver12resolve_http0s0_0Bb_
FNDA:0,_RNCNCNvMs0_NtCs6hNSIdyjBlh_9cuenv_aws7secretsNtB9_11AwsResolver12resolve_http0s_0Bb_
FNDA:0,_RNCNCNvMs0_NtCs6hNSIdyjBlh_9cuenv_aws7secretsNtB9_11AwsResolver17resolve_batch_cli00Bb_
FNDA:0,_RNCNCNvMs0_NtCs6hNSIdyjBlh_9cuenv_aws7secretsNtB9_11AwsResolver17resolve_batch_cli0s_0Bb_
FNDA:0,_RNCNCNvMs0_NtCs6hNSIdyjBlh_9cuenv_aws7secretsNtB9_11AwsResolver18resolve_batch_http00Bb_
FNDA:0,_RNCNCNvMs0_NtCs6hNSIdyjBlh_9cuenv_aws7secretsNtB9_11AwsResolver18resolve_batch_http0s0_0Bb_
FNDA:0,_RNCNCNvMs0_NtCs6hNSIdyjBlh_9cuenv_aws7secretsNtB9_11AwsResolver18resolve_batch_http0s1_0Bb_
FNDA:0,_RNCNCNvMs0_NtCs6hNSIdyjBlh_9cuenv_aws7secretsNtB9_11AwsResolver18resolve_batch_http0s2_0Bb_
FNDA:0,_RNCNCNvMs0_NtCs6hNSIdyjBlh_9cuenv_aws7secretsNtB9_11AwsResolver18resolve_batch_http0s_0Bb_
FNDA:0,_RNCNvMs0_NtCs6hNSIdyjBlh_9cuenv_aws7secretsNtB7_11AwsResolver11resolve_cli0B9_
FNDA:0,_RNCNvMs0_NtCs6hNSIdyjBlh_9cuenv_aws7secretsNtB7_11AwsResolver12resolve_http0B9_
FNDA:1,_RNCNvMs0_NtCs6hNSIdyjBlh_9cuenv_aws7secretsNtB7_11AwsResolver16extract_json_key0B9_
FNDA:1,_RNCNvMs0_NtCs6hNSIdyjBlh_9cuenv_aws7secretsNtB7_11AwsResolver16extract_json_keys_0B9_
FNDA:0,_RNCNvMs0_NtCs6hNSIdyjBlh_9cuenv_aws7secretsNtB7_11AwsResolver17resolve_batch_cli0B9_
FNDA:0,_RNCNvMs0_NtCs6hNSIdyjBlh_9cuenv_aws7secretsNtB7_11AwsResolver18resolve_batch_http0B9_
FNDA:0,_RNCNvMs0_NtCs6hNSIdyjBlh_9cuenv_aws7secretsNtB7_11AwsResolver19resolve_with_config0B9_
FNDA:5,_RNCNvMs0_NtCs6hNSIdyjBlh_9cuenv_aws7secretsNtB7_11AwsResolver3new0B9_
FNDA:1,_RNCNvNtNtCs6hNSIdyjBlh_9cuenv_aws7secrets5testss_24test_resolve_batch_empty0B7_
FNDA:1,_RNCNvNtNtCs6hNSIdyjBlh_9cuenv_aws7secrets5testss_26test_resolver_debug_output0B7_
FNDA:1,_RNCNvNtNtCs6hNSIdyjBlh_9cuenv_aws7secrets5testss_27test_resolver_provider_name0B7_
FNDA:1,_RNCNvNtNtCs6hNSIdyjBlh_9cuenv_aws7secrets5testss_35test_resolver_supports_native_batch0B7_
FNDA:1,_RNCNvNtNtCs6hNSIdyjBlh_9cuenv_aws7secrets5testss_37test_resolver_new_without_credentials0B7_
FNDA:0,_RNvMs0_NtCs6hNSIdyjBlh_9cuenv_aws7secretsNtB5_11AwsResolver11resolve_cli
FNDA:2,_RNvMs0_NtCs6hNSIdyjBlh_9cuenv_aws7secretsNtB5_11AwsResolver12can_use_http
FNDA:0,_RNvMs0_NtCs6hNSIdyjBlh_9cuenv_aws7secretsNtB5_11AwsResolver12resolve_http
FNDA:15,_RNvMs0_NtCs6hNSIdyjBlh_9cuenv_aws7secretsNtB5_11AwsResolver16extract_json_key
FNDA:0,_RNvMs0_NtCs6hNSIdyjBlh_9cuenv_aws7secretsNtB5_11AwsResolver17resolve_batch_cli
FNDA:0,_RNvMs0_NtCs6hNSIdyjBlh_9cuenv_aws7secretsNtB5_11AwsResolver18resolve_batch_http
FNDA:0,_RNvMs0_NtCs6hNSIdyjBlh_9cuenv_aws7secretsNtB5_11AwsResolver19resolve_with_config
FNDA:7,_RNvMs0_NtCs6hNSIdyjBlh_9cuenv_aws7secretsNtB5_11AwsResolver26http_credentials_available
FNDA:5,_RNvMs0_NtCs6hNSIdyjBlh_9cuenv_aws7secretsNtB5_11AwsResolver3new
FNDA:1,_RNvXs6_NtCs6hNSIdyjBlh_9cuenv_aws7secretsNtB5_11AwsResolverNtCscUiqXkDFUoB_13cuenv_secrets14SecretResolver13provider_name
FNDA:1,_RNvXs6_NtCs6hNSIdyjBlh_9cuenv_aws7secretsNtB5_11AwsResolverNtCscUiqXkDFUoB_13cuenv_secrets14SecretResolver13resolve_batch
FNDA:1,_RNvXs6_NtCs6hNSIdyjBlh_9cuenv_aws7secretsNtB5_11AwsResolverNtCscUiqXkDFUoB_13cuenv_secrets14SecretResolver21supports_native_batch
FNDA:0,_RNvXs6_NtCs6hNSIdyjBlh_9cuenv_aws7secretsNtB5_11AwsResolverNtCscUiqXkDFUoB_13cuenv_secrets14SecretResolver7resolve
FNDA:1,_RNvXs_NtCs6hNSIdyjBlh_9cuenv_aws7secretsNtB4_11AwsResolverNtNtCskzPJi2J8k3N_4core3fmt5Debug3fmt
FNF:79
FNH:53
DA:37,11
DA:38,11
DA:39,11
DA:40,11
DA:41,11
DA:42,11
DA:43,11
DA:44,11
DA:61,1
DA:62,1
DA:63,1
DA:64,1
DA:65,1
DA:76,5
DA:77,5
DA:79,0
DA:80,0
DA:81,0
DA:82,0
DA:83,0
DA:84,0
DA:85,0
DA:86,0
DA:87,0
DA:88,0
DA:90,5
DA:93,5
DA:94,5
DA:97,7
DA:98,7
DA:99,7
DA:102,2
DA:103,2
DA:104,2
DA:107,0
DA:108,0
DA:109,0
DA:110,0
DA:111,0
DA:112,0
DA:113,0
DA:114,0
DA:115,0
DA:116,0
DA:117,0
DA:118,0
DA:120,0
DA:122,0
DA:123,0
DA:124,0
DA:126,0
DA:127,0
DA:128,0
DA:130,0
DA:131,0
DA:132,0
DA:133,0
DA:134,0
DA:135,0
DA:136,0
DA:138,0
DA:139,0
DA:140,0
DA:141,0
DA:142,0
DA:143,0
DA:144,0
DA:146,0
DA:147,0
DA:150,0
DA:151,0
DA:152,0
DA:153,0
DA:154,0
DA:155,0
DA:156,0
DA:157,0
DA:158,0
DA:159,0
DA:160,0
DA:161,0
DA:162,0
DA:163,0
DA:166,0
DA:167,0
DA:168,0
DA:169,0
DA:171,0
DA:172,0
DA:173,0
DA:174,0
DA:176,0
DA:177,0
DA:178,0
DA:179,0
DA:180,0
DA:181,0
DA:182,0
DA:183,0
DA:185,0
DA:186,0
DA:187,0
DA:188,0
DA:189,0
DA:190,0
DA:191,0
DA:193,0
DA:194,0
DA:195,0
DA:198,15
DA:199,15
DA:200,15
DA:201,15
DA:202,15
DA:203,15
DA:204,12
DA:205,13
DA:206,1
DA:207,1
DA:208,1
DA:210,12
DA:211,12
DA:212,12
DA:213,1
DA:214,1
DA:215,1
DA:217,11
DA:218,5
DA:219,6
DA:221,2
DA:223,2
DA:224,15
DA:227,0
DA:228,0
DA:229,0
DA:230,0
DA:231,0
DA:233,0
DA:234,0
DA:235,0
DA:238,0
DA:239,0
DA:242,0
DA:243,0
DA:244,0
DA:245,0
DA:248,0
DA:249,0
DA:250,0
DA:251,0
DA:252,0
DA:253,0
DA:254,0
DA:258,0
DA:259,0
DA:260,0
DA:261,0
DA:262,0
DA:263,0
DA:264,0
DA:265,0
DA:269,0
DA:272,0
DA:274,0
DA:275,0
DA:276,0
DA:277,0
DA:278,0
DA:279,0
DA:280,0
DA:281,0
DA:282,0
DA:283,0
DA:286,0
DA:287,0
DA:289,0
DA:290,0
DA:291,0
DA:292,0
DA:293,0
DA:294,0
DA:295,0
DA:299,0
DA:300,0
DA:301,0
DA:302,0
DA:303,0
DA:304,0
DA:310,0
DA:311,0
DA:312,0
DA:313,0
DA:314,0
DA:315,0
DA:316,0
DA:317,0
DA:320,0
DA:321,0
DA:322,0
DA:323,0
DA:324,0
DA:325,0
DA:326,0
DA:327,0
DA:328,0
DA:331,0
DA:332,0
DA:333,0
DA:334,0
DA:335,0
DA:336,0
DA:338,0
DA:339,0
DA:340,0
DA:341,0
DA:344,0
DA:345,0
DA:346,0
DA:347,0
DA:350,0
DA:351,0
DA:352,0
DA:353,0
DA:354,0
DA:355,0
DA:356,0
DA:357,0
DA:358,0
DA:359,0
DA:360,0
DA:362,0
DA:363,0
DA:368,1
DA:369,1
DA:370,1
DA:372,1
DA:374,1
DA:375,1
DA:377,0
DA:386,0
DA:391,1
DA:403,1
DA:411,1
DA:412,1
DA:413,1
DA:414,1
DA:415,1
DA:416,1
DA:417,1
DA:419,1
DA:420,1
DA:421,1
DA:422,1
DA:425,1
DA:426,1
DA:427,1
DA:431,1
DA:432,1
DA:433,1
DA:436,1
DA:438,1
DA:439,1
DA:442,1
DA:443,1
DA:444,1
DA:445,1
DA:446,1
DA:447,1
DA:448,1
DA:451,1
DA:452,1
DA:453,1
DA:454,1
DA:455,1
DA:456,1
DA:457,1
DA:459,1
DA:460,1
DA:461,1
DA:462,1
DA:463,1
DA:464,1
DA:467,1
DA:468,1
DA:469,1
DA:471,1
DA:472,1
DA:473,1
DA:474,1
DA:477,1
DA:478,1
DA:479,1
DA:480,1
DA:481,1
DA:484,1
DA:485,1
DA:486,1
DA:487,1
DA:488,1
DA:491,1
DA:492,1
DA:493,1
DA:494,1
DA:495,1
DA:498,1
DA:499,1
DA:500,1
DA:501,1
DA:502,1
DA:505,1
DA:506,1
DA:507,1
DA:508,1
DA:509,1
DA:512,1
DA:513,1
DA:514,1
DA:515,1
DA:516,1
DA:517,1
DA:518,1
DA:520,0
DA:522,1
DA:525,1
DA:526,1
DA:527,1
DA:528,1
DA:529,1
DA:530,1
DA:532,0
DA:534,1
DA:537,1
DA:538,1
DA:539,1
DA:541,1
DA:542,1
DA:543,1
DA:544,1
DA:547,1
DA:548,1
DA:549,1
DA:550,1
DA:551,1
DA:552,1
DA:553,1
DA:556,1
DA:557,1
DA:558,1
DA:559,1
DA:560,1
DA:563,1
DA:564,1
DA:565,1
DA:566,1
DA:567,1
DA:568,1
DA:569,1
DA:570,1
DA:571,1
DA:572,1
DA:575,1
DA:576,1
DA:577,1
DA:578,1
DA:579,1
DA:580,1
DA:583,1
DA:584,1
DA:585,1
DA:586,1
DA:588,1
DA:589,1
DA:590,1
DA:593,1
DA:594,1
DA:595,1
DA:596,1
DA:597,1
DA:598,1
DA:599,1
DA:601,1
DA:602,1
DA:603,1
DA:606,1
DA:607,1
DA:608,1
DA:609,1
DA:610,1
DA:611,1
DA:612,1
DA:613,1
DA:616,1
DA:617,1
DA:618,1
DA:619,1
DA:620,1
DA:621,1
DA:622,1
DA:623,1
DA:626,1
DA:627,1
DA:628,1
DA:629,1
DA:630,1
DA:633,1
DA:634,1
DA:635,1
DA:636,1
DA:637,1
DA:640,1
DA:641,1
DA:642,1
DA:643,1
DA:644,1
DA:645,1
DA:646,1
DA:647,1
DA:648,1
DA:649,1
DA:650,1
DA:653,1
DA:654,1
DA:655,1
DA:656,1
DA:657,1
DA:660,1
DA:661,1
DA:662,1
DA:663,1
DA:664,1
DA:665,1
DA:666,1
DA:669,1
DA:670,1
DA:671,1
DA:672,1
DA:673,1
DA:676,1
DA:677,1
DA:678,1
DA:679,1
DA:680,1
DA:683,1
DA:684,1
DA:685,1
DA:686,1
DA:687,1
DA:688,1
DA:691,1
DA:694,1
DA:695,1
DA:696,1
DA:697,1
DA:698,1
DA:699,1
DA:700,1
DA:701,1
DA:702,1
DA:705,1
DA:706,1
DA:707,1
DA:708,1
DA:709,1
DA:710,1
DA:711,1
DA:712,1
DA:715,1
DA:716,1
DA:717,1
DA:718,1
DA:719,1
DA:720,1
DA:721,1
DA:722,1
DA:725,1
DA:726,1
DA:727,1
DA:728,1
DA:729,1
DA:730,1
DA:731,1
DA:732,1
DA:733,1
DA:734,1
DA:737,1
DA:738,1
DA:739,1
DA:740,1
DA:741,1
DA:742,1
DA:743,1
DA:744,1
DA:745,1
DA:746,1
DA:747,1
DA:750,1
DA:752,1
DA:753,1
DA:754,1
DA:755,1
DA:756,1
BRF:0
BRH:0
LF:560
LH:342
end_of_record
SF:/Users/rawkode/Code/src/github.com/cuenv/cuenv/crates/bitbucket/src/codeowners.rs
FN:83,_RNCNvXNtCsj84GX2ZF4EV_15cuenv_bitbucket10codeownersNtB4_27BitbucketCodeOwnersProviderNtNtCsdiSaxp1bVCo_16cuenv_codeowners8provider18CodeOwnersProvider5check0B6_
FN:93,_RNCNvXNtCsj84GX2ZF4EV_15cuenv_bitbucket10codeownersNtB4_27BitbucketCodeOwnersProviderNtNtCsdiSaxp1bVCo_16cuenv_codeowners8provider18CodeOwnersProvider5checks_0B6_
FN:27,_RNvXNtCsj84GX2ZF4EV_15cuenv_bitbucket10codeownersNtB2_27BitbucketCodeOwnersProviderNtNtCsdiSaxp1bVCo_16cuenv_codeowners8provider18CodeOwnersProvider11output_path
FN:31,_RNvXNtCsj84GX2ZF4EV_15cuenv_bitbucket10codeownersNtB2_27BitbucketCodeOwnersProviderNtNtCsdiSaxp1bVCo_16cuenv_codeowners8provider18CodeOwnersProvider13section_style
FN:35,_RNvXNtCsj84GX2ZF4EV_15cuenv_bitbucket10codeownersNtB2_27BitbucketCodeOwnersProviderNtNtCsdiSaxp1bVCo_16cuenv_codeowners8provider18CodeOwnersProvider4sync
FN:63,_RNvXNtCsj84GX2ZF4EV_15cuenv_bitbucket10codeownersNtB2_27BitbucketCodeOwnersProviderNtNtCsdiSaxp1bVCo_16cuenv_codeowners8provider18CodeOwnersProvider5check
FN:83,_RNCNvXNtCs1sEeovdX4zy_15cuenv_bitbucket10codeownersNtB4_27BitbucketCodeOwnersProviderNtNtCsdiSaxp1bVCo_16cuenv_codeowners8provider18CodeOwnersProvider5check0B6_
FN:93,_RNCNvXNtCs1sEeovdX4zy_15cuenv_bitbucket10codeownersNtB4_27BitbucketCodeOwnersProviderNtNtCsdiSaxp1bVCo_16cuenv_codeowners8provider18CodeOwnersProvider5checks_0B6_
FN:27,_RNvXNtCs1sEeovdX4zy_15cuenv_bitbucket10codeownersNtB2_27BitbucketCodeOwnersProviderNtNtCsdiSaxp1bVCo_16cuenv_codeowners8provider18CodeOwnersProvider11output_path
FN:31,_RNvXNtCs1sEeovdX4zy_15cuenv_bitbucket10codeownersNtB2_27BitbucketCodeOwnersProviderNtNtCsdiSaxp1bVCo_16cuenv_codeowners8provider18CodeOwnersProvider13section_style
FN:35,_RNvXNtCs1sEeovdX4zy_15cuenv_bitbucket10codeownersNtB2_27BitbucketCodeOwnersProviderNtNtCsdiSaxp1bVCo_16cuenv_codeowners8provider18CodeOwnersProvider4sync
FN:63,_RNvXNtCs1sEeovdX4zy_15cuenv_bitbucket10codeownersNtB2_27BitbucketCodeOwnersProviderNtNtCsdiSaxp1bVCo_16cuenv_codeowners8provider18CodeOwnersProvider5check
FN:185,_RNvNtNtCs1sEeovdX4zy_15cuenv_bitbucket10codeowners5testss_27test_bitbucket_sync_dry_run
FN:202,_RNvNtNtCs1sEeovdX4zy_15cuenv_bitbucket10codeowners5testss_28test_bitbucket_check_in_sync
FN:221,_RNvNtNtCs1sEeovdX4zy_15cuenv_bitbucket10codeowners5testss_32test_bitbucket_check_out_of_sync
FN:124,_RNvNtNtCs1sEeovdX4zy_15cuenv_bitbucket10codeowners5testss_32test_bitbucket_sync_creates_file
FN:239,_RNvNtNtCs1sEeovdX4zy_15cuenv_bitbucket10codeowners5testss_35test_bitbucket_empty_projects_error
FN:112,_RNvNtNtCs1sEeovdX4zy_15cuenv_bitbucket10codeowners5testss_35test_bitbucket_provider_output_path
FN:118,_RNvNtNtCs1sEeovdX4zy_15cuenv_bitbucket10codeowners5testss_37test_bitbucket_provider_section_style
FN:148,_RNvNtNtCs1sEeovdX4zy_15cuenv_bitbucket10codeowners5testss_42test_bitbucket_uses_comment_section_syntax
FNDA:0,_RNCNvXNtCsj84GX2ZF4EV_15cuenv_bitbucket10codeownersNtB4_27BitbucketCodeOwnersProviderNtNtCsdiSaxp1bVCo_16cuenv_codeowners8provider18CodeOwnersProvider5check0B6_
FNDA:0,_RNCNvXNtCsj84GX2ZF4EV_15cuenv_bitbucket10codeownersNtB4_27BitbucketCodeOwnersProviderNtNtCsdiSaxp1bVCo_16cuenv_codeowners8provider18CodeOwnersProvider5checks_0B6_
FNDA:1,_RNvXNtCsj84GX2ZF4EV_15cuenv_bitbucket10codeownersNtB2_27BitbucketCodeOwnersProviderNtNtCsdiSaxp1bVCo_16cuenv_codeowners8provider18CodeOwnersProvider11output_path
FNDA:1,_RNvXNtCsj84GX2ZF4EV_15cuenv_bitbucket10codeownersNtB2_27BitbucketCodeOwnersProviderNtNtCsdiSaxp1bVCo_16cuenv_codeowners8provider18CodeOwnersProvider13section_style
FNDA:0,_RNvXNtCsj84GX2ZF4EV_15cuenv_bitbucket10codeownersNtB2_27BitbucketCodeOwnersProviderNtNtCsdiSaxp1bVCo_16cuenv_codeowners8provider18CodeOwnersProvider4sync
FNDA:0,_RNvXNtCsj84GX2ZF4EV_15cuenv_bitbucket10codeownersNtB2_27BitbucketCodeOwnersProviderNtNtCsdiSaxp1bVCo_16cuenv_codeowners8provider18CodeOwnersProvider5check
FNDA:4,_RNCNvXNtCs1sEeovdX4zy_15cuenv_bitbucket10codeownersNtB4_27BitbucketCodeOwnersProviderNtNtCsdiSaxp1bVCo_16cuenv_codeowners8provider18CodeOwnersProvider5check0B6_
FNDA:2,_RNCNvXNtCs1sEeovdX4zy_15cuenv_bitbucket10codeownersNtB4_27BitbucketCodeOwnersProviderNtNtCsdiSaxp1bVCo_16cuenv_codeowners8provider18CodeOwnersProvider5checks_0B6_
FNDA:7,_RNvXNtCs1sEeovdX4zy_15cuenv_bitbucket10codeownersNtB2_27BitbucketCodeOwnersProviderNtNtCsdiSaxp1bVCo_16cuenv_codeowners8provider18CodeOwnersProvider11output_path
FNDA:7,_RNvXNtCs1sEeovdX4zy_15cuenv_bitbucket10codeownersNtB2_27BitbucketCodeOwnersProviderNtNtCsdiSaxp1bVCo_16cuenv_codeowners8provider18CodeOwnersProvider13section_style
FNDA:5,_RNvXNtCs1sEeovdX4zy_15cuenv_bitbucket10codeownersNtB2_27BitbucketCodeOwnersProviderNtNtCsdiSaxp1bVCo_16cuenv_codeowners8provider18CodeOwnersProvider4sync
FNDA:2,_RNvXNtCs1sEeovdX4zy_15cuenv_bitbucket10codeownersNtB2_27BitbucketCodeOwnersProviderNtNtCsdiSaxp1bVCo_16cuenv_codeowners8provider18CodeOwnersProvider5check
FNDA:1,_RNvNtNtCs1sEeovdX4zy_15cuenv_bitbucket10codeowners5testss_27test_bitbucket_sync_dry_run
FNDA:1,_RNvNtNtCs1sEeovdX4zy_15cuenv_bitbucket10codeowners5testss_28test_bitbucket_check_in_sync
FNDA:1,_RNvNtNtCs1sEeovdX4zy_15cuenv_bitbucket10codeowners5testss_32test_bitbucket_check_out_of_sync
FNDA:1,_RNvNtNtCs1sEeovdX4zy_15cuenv_bitbucket10codeowners5testss_32test_bitbucket_sync_creates_file
FNDA:1,_RNvNtNtCs1sEeovdX4zy_15cuenv_bitbucket10codeowners5testss_35test_bitbucket_empty_projects_error
FNDA:1,_RNvNtNtCs1sEeovdX4zy_15cuenv_bitbucket10codeowners5testss_35test_bitbucket_provider_output_path
FNDA:1,_RNvNtNtCs1sEeovdX4zy_15cuenv_bitbucket10codeowners5testss_37test_bitbucket_provider_section_style
FNDA:1,_RNvNtNtCs1sEeovdX4zy_15cuenv_bitbucket10codeowners5testss_42test_bitbucket_uses_comment_section_syntax
FNF:14
FNH:14
DA:27,8
DA:28,8
DA:29,8
DA:31,8
DA:32,8
DA:33,8
DA:35,5
DA:36,5
DA:37,5
DA:38,5
DA:39,5
DA:40,5
DA:41,5
DA:42,1
DA:43,1
DA:44,1
DA:45,4
DA:48,4
DA:51,4
DA:54,4
DA:56,4
DA:57,4
DA:58,4
DA:59,4
DA:60,4
DA:61,5
DA:63,2
DA:64,2
DA:65,0
DA:66,0
DA:67,0
DA:68,2
DA:71,2
DA:73,2
DA:76,2
DA:77,2
DA:79,0
DA:83,4
DA:84,4
DA:85,4
DA:86,4
DA:87,4
DA:88,4
DA:89,4
DA:91,2
DA:92,2
DA:93,2
DA:95,2
DA:96,2
DA:97,2
DA:98,2
DA:99,2
DA:100,2
DA:101,2
DA:112,1
DA:113,1
DA:114,1
DA:115,1
DA:118,1
DA:119,1
DA:120,1
DA:121,1
DA:124,1
DA:125,1
DA:126,1
DA:128,1
DA:131,1
DA:134,1
DA:136,1
DA:138,1
DA:139,1
DA:140,1
DA:143,1
DA:144,1
DA:145,1
DA:148,1
DA:149,1
DA:150,1
DA:152,1
DA:153,1
DA:156,1
DA:158,1
DA:161,1
DA:165,1
DA:168,1
DA:169,1
DA:170,0
DA:173,1
DA:174,1
DA:175,0
DA:178,1
DA:179,1
DA:180,0
DA:182,1
DA:185,1
DA:186,1
DA:187,1
DA:189,1
DA:192,1
DA:195,1
DA:197,1
DA:198,1
DA:199,1
DA:202,1
DA:203,1
DA:204,1
DA:206,1
DA:209,1
DA:213,1
DA:216,1
DA:217,1
DA:218,1
DA:221,1
DA:222,1
DA:223,1
DA:226,1
DA:228,1
DA:231,1
DA:234,1
DA:235,1
DA:236,1
DA:239,1
DA:240,1
DA:241,1
DA:243,1
DA:244,1
DA:245,1
BRF:0
BRH:0
LF:129
LH:122
end_of_record
SF:/Users/rawkode/Code/src/github.com/cuenv/cuenv/crates/buildkite/src/emitter.rs
FN:48,_RNvMNtCscEP4C7Umxil_15cuenv_buildkite7emitterNtB2_16BuildkiteEmitter11with_emojis
FN:274,_RNvMNtCscEP4C7Umxil_15cuenv_buildkite7emitterNtB2_16BuildkiteEmitter12format_label
FN:61,_RNvMNtCscEP4C7Umxil_15cuenv_buildkite7emitterNtB2_16BuildkiteEmitter14build_pipeline
FN:246,_RNvMNtCscEP4C7Umxil_15cuenv_buildkite7emitterNtB2_16BuildkiteEmitter16build_block_step
FN:146,_RNvMNtCscEP4C7Umxil_15cuenv_buildkite7emitterNtB2_16BuildkiteEmitter18build_command_step
FN:108,_RNvMNtCscEP4C7Umxil_15cuenv_buildkite7emitterNtB2_16BuildkiteEmitter18stage_task_to_step
FN:42,_RNvMNtCscEP4C7Umxil_15cuenv_buildkite7emitterNtB2_16BuildkiteEmitter3new
FN:299,_RNvXs_NtCscEP4C7Umxil_15cuenv_buildkite7emitterNtB4_16BuildkiteEmitterNtNtCskfEctF1MPvy_8cuenv_ci7emitter7Emitter11description
FN:291,_RNvXs_NtCscEP4C7Umxil_15cuenv_buildkite7emitterNtB4_16BuildkiteEmitterNtNtCskfEctF1MPvy_8cuenv_ci7emitter7Emitter11format_name
FN:295,_RNvXs_NtCscEP4C7Umxil_15cuenv_buildkite7emitterNtB4_16BuildkiteEmitterNtNtCskfEctF1MPvy_8cuenv_ci7emitter7Emitter14file_extension
FN:285,_RNvXs_NtCscEP4C7Umxil_15cuenv_buildkite7emitterNtB4_16BuildkiteEmitterNtNtCskfEctF1MPvy_8cuenv_ci7emitter7Emitter4emit
FN:303,_RNvXs_NtCscEP4C7Umxil_15cuenv_buildkite7emitterNtB4_16BuildkiteEmitterNtNtCskfEctF1MPvy_8cuenv_ci7emitter7Emitter8validate
FN:82,_RNCNvMNtCscEP4C7Umxil_15cuenv_buildkite7emitterNtB4_16BuildkiteEmitter14build_pipelines_0B6_
FN:256,_RNCNvMNtCscEP4C7Umxil_15cuenv_buildkite7emitterNtB4_16BuildkiteEmitter16build_block_step0B6_
FN:157,_RNCNvMNtCscEP4C7Umxil_15cuenv_buildkite7emitterNtB4_16BuildkiteEmitter18build_command_step0B6_
FN:163,_RNCNvMNtCscEP4C7Umxil_15cuenv_buildkite7emitterNtB4_16BuildkiteEmitter18build_command_steps0_0B6_
FN:181,_RNCNvMNtCscEP4C7Umxil_15cuenv_buildkite7emitterNtB4_16BuildkiteEmitter18build_command_steps1_0B6_
FN:188,_RNCNvMNtCscEP4C7Umxil_15cuenv_buildkite7emitterNtB4_16BuildkiteEmitter18build_command_steps2_0B6_
FN:189,_RNCNvMNtCscEP4C7Umxil_15cuenv_buildkite7emitterNtB4_16BuildkiteEmitter18build_command_steps3_0B6_
FN:195,_RNCNvMNtCscEP4C7Umxil_15cuenv_buildkite7emitterNtB4_16BuildkiteEmitter18build_command_steps4_0B6_
FN:196,_RNCNvMNtCscEP4C7Umxil_15cuenv_buildkite7emitterNtB4_16BuildkiteEmitter18build_command_steps5_0B6_
FN:227,_RNCNvMNtCscEP4C7Umxil_15cuenv_buildkite7emitterNtB4_16BuildkiteEmitter18build_command_steps6_0B6_
FN:158,_RNCNvMNtCscEP4C7Umxil_15cuenv_buildkite7emitterNtB4_16BuildkiteEmitter18build_command_steps_0B6_
FN:109,_RNCNvMNtCscEP4C7Umxil_15cuenv_buildkite7emitterNtB4_16BuildkiteEmitter18stage_task_to_step0B6_
FN:132,_RNCNvMNtCscEP4C7Umxil_15cuenv_buildkite7emitterNtB4_16BuildkiteEmitter18stage_task_to_steps0_0B6_
FN:122,_RNCNvMNtCscEP4C7Umxil_15cuenv_buildkite7emitterNtB4_16BuildkiteEmitter18stage_task_to_steps_0B6_
FN:288,_RNCNvXs_NtCscEP4C7Umxil_15cuenv_buildkite7emitterNtB6_16BuildkiteEmitterNtNtCskfEctF1MPvy_8cuenv_ci7emitter7Emitter4emit0B8_
FN:299,_RNvXs_NtCs9jqjLvUtoYr_15cuenv_buildkite7emitterNtB4_16BuildkiteEmitterNtNtCskfEctF1MPvy_8cuenv_ci7emitter7Emitter11description
FN:48,_RNvMNtCs9jqjLvUtoYr_15cuenv_buildkite7emitterNtB2_16BuildkiteEmitter11with_emojis
FN:274,_RNvMNtCs9jqjLvUtoYr_15cuenv_buildkite7emitterNtB2_16BuildkiteEmitter12format_label
FN:61,_RNvMNtCs9jqjLvUtoYr_15cuenv_buildkite7emitterNtB2_16BuildkiteEmitter14build_pipeline
FN:246,_RNvMNtCs9jqjLvUtoYr_15cuenv_buildkite7emitterNtB2_16BuildkiteEmitter16build_block_step
FN:146,_RNvMNtCs9jqjLvUtoYr_15cuenv_buildkite7emitterNtB2_16BuildkiteEmitter18build_command_step
FN:108,_RNvMNtCs9jqjLvUtoYr_15cuenv_buildkite7emitterNtB2_16BuildkiteEmitter18stage_task_to_step
FN:42,_RNvMNtCs9jqjLvUtoYr_15cuenv_buildkite7emitterNtB2_16BuildkiteEmitter3new
FN:291,_RNvXs_NtCs9jqjLvUtoYr_15cuenv_buildkite7emitterNtB4_16BuildkiteEmitterNtNtCskfEctF1MPvy_8cuenv_ci7emitter7Emitter11format_name
FN:295,_RNvXs_NtCs9jqjLvUtoYr_15cuenv_buildkite7emitterNtB4_16BuildkiteEmitterNtNtCskfEctF1MPvy_8cuenv_ci7emitter7Emitter14file_extension
FN:285,_RNvXs_NtCs9jqjLvUtoYr_15cuenv_buildkite7emitterNtB4_16BuildkiteEmitterNtNtCskfEctF1MPvy_8cuenv_ci7emitter7Emitter4emit
FN:303,_RNvXs_NtCs9jqjLvUtoYr_15cuenv_buildkite7emitterNtB4_16BuildkiteEmitterNtNtCskfEctF1MPvy_8cuenv_ci7emitter7Emitter8validate
FN:361,_RNCNvNtNtCs9jqjLvUtoYr_15cuenv_buildkite7emitter5tests9make_task0B7_
FN:55,_RINvMNtCs9jqjLvUtoYr_15cuenv_buildkite7emitterNtB3_16BuildkiteEmitter18with_default_queueReEB5_
FN:82,_RNCNvMNtCs9jqjLvUtoYr_15cuenv_buildkite7emitterNtB4_16BuildkiteEmitter14build_pipelines_0B6_
FN:256,_RNCNvMNtCs9jqjLvUtoYr_15cuenv_buildkite7emitterNtB4_16BuildkiteEmitter16build_block_step0B6_
FN:157,_RNCNvMNtCs9jqjLvUtoYr_15cuenv_buildkite7emitterNtB4_16BuildkiteEmitter18build_command_step0B6_
FN:163,_RNCNvMNtCs9jqjLvUtoYr_15cuenv_buildkite7emitterNtB4_16BuildkiteEmitter18build_command_steps0_0B6_
FN:181,_RNCNvMNtCs9jqjLvUtoYr_15cuenv_buildkite7emitterNtB4_16BuildkiteEmitter18build_command_steps1_0B6_
FN:188,_RNCNvMNtCs9jqjLvUtoYr_15cuenv_buildkite7emitterNtB4_16BuildkiteEmitter18build_command_steps2_0B6_
FN:189,_RNCNvMNtCs9jqjLvUtoYr_15cuenv_buildkite7emitterNtB4_16BuildkiteEmitter18build_command_steps3_0B6_
FN:195,_RNCNvMNtCs9jqjLvUtoYr_15cuenv_buildkite7emitterNtB4_16BuildkiteEmitter18build_command_steps4_0B6_
FN:196,_RNCNvMNtCs9jqjLvUtoYr_15cuenv_buildkite7emitterNtB4_16BuildkiteEmitter18build_command_steps5_0B6_
FN:227,_RNCNvMNtCs9jqjLvUtoYr_15cuenv_buildkite7emitterNtB4_16BuildkiteEmitter18build_command_steps6_0B6_
FN:158,_RNCNvMNtCs9jqjLvUtoYr_15cuenv_buildkite7emitterNtB4_16BuildkiteEmitter18build_command_steps_0B6_
FN:109,_RNCNvMNtCs9jqjLvUtoYr_15cuenv_buildkite7emitterNtB4_16BuildkiteEmitter18stage_task_to_step0B6_
FN:132,_RNCNvMNtCs9jqjLvUtoYr_15cuenv_buildkite7emitterNtB4_16BuildkiteEmitter18stage_task_to_steps0_0B6_
FN:122,_RNCNvMNtCs9jqjLvUtoYr_15cuenv_buildkite7emitterNtB4_16BuildkiteEmitter18stage_task_to_steps_0B6_
FN:288,_RNCNvXs_NtCs9jqjLvUtoYr_15cuenv_buildkite7emitterNtB6_16BuildkiteEmitterNtNtCskfEctF1MPvy_8cuenv_ci7emitter7Emitter4emit0B8_
FN:340,_RNvNtNtCs9jqjLvUtoYr_15cuenv_buildkite7emitter5tests7make_ir
FN:357,_RNvNtNtCs9jqjLvUtoYr_15cuenv_buildkite7emitter5tests9make_task
FN:503,_RNvNtNtCs9jqjLvUtoYr_15cuenv_buildkite7emitter5testss_11test_emojis
FN:534,_RNvNtNtCs9jqjLvUtoYr_15cuenv_buildkite7emitter5testss_16test_format_name
FN:455,_RNvNtNtCs9jqjLvUtoYr_15cuenv_buildkite7emitter5testss_17test_with_secrets
FN:492,_RNvNtNtCs9jqjLvUtoYr_15cuenv_buildkite7emitter5testss_18test_default_queue
FN:475,_RNvNtNtCs9jqjLvUtoYr_15cuenv_buildkite7emitter5testss_19test_with_artifacts
FN:380,_RNvNtNtCs9jqjLvUtoYr_15cuenv_buildkite7emitter5testss_20test_simple_pipeline
FN:437,_RNvNtNtCs9jqjLvUtoYr_15cuenv_buildkite7emitter5testss_21test_with_agent_queue
FN:541,_RNvNtNtCs9jqjLvUtoYr_15cuenv_buildkite7emitter5testss_21test_with_nix_runtime
FN:393,_RNvNtNtCs9jqjLvUtoYr_15cuenv_buildkite7emitter5testss_22test_with_dependencies
FN:407,_RNvNtNtCs9jqjLvUtoYr_15cuenv_buildkite7emitter5testss_25test_with_manual_approval
FN:513,_RNvNtNtCs9jqjLvUtoYr_15cuenv_buildkite7emitter5testss_26test_validation_invalid_id
FN:423,_RNvNtNtCs9jqjLvUtoYr_15cuenv_buildkite7emitter5testss_27test_with_concurrency_group
FN:600,_RNvNtNtCs9jqjLvUtoYr_15cuenv_buildkite7emitter5testss_33test_without_runtime_no_nix_setup
FN:522,_RNvNtNtCs9jqjLvUtoYr_15cuenv_buildkite7emitter5testss_34test_validation_missing_dependency
FNDA:0,_RNvMNtCscEP4C7Umxil_15cuenv_buildkite7emitterNtB2_16BuildkiteEmitter11with_emojis
FNDA:0,_RNvMNtCscEP4C7Umxil_15cuenv_buildkite7emitterNtB2_16BuildkiteEmitter12format_label
FNDA:0,_RNvMNtCscEP4C7Umxil_15cuenv_buildkite7emitterNtB2_16BuildkiteEmitter14build_pipeline
FNDA:0,_RNvMNtCscEP4C7Umxil_15cuenv_buildkite7emitterNtB2_16BuildkiteEmitter16build_block_step
FNDA:0,_RNvMNtCscEP4C7Umxil_15cuenv_buildkite7emitterNtB2_16BuildkiteEmitter18build_command_step
FNDA:0,_RNvMNtCscEP4C7Umxil_15cuenv_buildkite7emitterNtB2_16BuildkiteEmitter18stage_task_to_step
FNDA:0,_RNvMNtCscEP4C7Umxil_15cuenv_buildkite7emitterNtB2_16BuildkiteEmitter3new
FNDA:0,_RNvXs_NtCscEP4C7Umxil_15cuenv_buildkite7emitterNtB4_16BuildkiteEmitterNtNtCskfEctF1MPvy_8cuenv_ci7emitter7Emitter11description
FNDA:0,_RNvXs_NtCscEP4C7Umxil_15cuenv_buildkite7emitterNtB4_16BuildkiteEmitterNtNtCskfEctF1MPvy_8cuenv_ci7emitter7Emitter11format_name
FNDA:0,_RNvXs_NtCscEP4C7Umxil_15cuenv_buildkite7emitterNtB4_16BuildkiteEmitterNtNtCskfEctF1MPvy_8cuenv_ci7emitter7Emitter14file_extension
FNDA:0,_RNvXs_NtCscEP4C7Umxil_15cuenv_buildkite7emitterNtB4_16BuildkiteEmitterNtNtCskfEctF1MPvy_8cuenv_ci7emitter7Emitter4emit
FNDA:0,_RNvXs_NtCscEP4C7Umxil_15cuenv_buildkite7emitterNtB4_16BuildkiteEmitterNtNtCskfEctF1MPvy_8cuenv_ci7emitter7Emitter8validate
FNDA:0,_RNCNvMNtCscEP4C7Umxil_15cuenv_buildkite7emitterNtB4_16BuildkiteEmitter14build_pipelines_0B6_
FNDA:0,_RNCNvMNtCscEP4C7Umxil_15cuenv_buildkite7emitterNtB4_16BuildkiteEmitter16build_block_step0B6_
FNDA:0,_RNCNvMNtCscEP4C7Umxil_15cuenv_buildkite7emitterNtB4_16BuildkiteEmitter18build_command_step0B6_
FNDA:0,_RNCNvMNtCscEP4C7Umxil_15cuenv_buildkite7emitterNtB4_16BuildkiteEmitter18build_command_steps0_0B6_
FNDA:0,_RNCNvMNtCscEP4C7Umxil_15cuenv_buildkite7emitterNtB4_16BuildkiteEmitter18build_command_steps1_0B6_
FNDA:0,_RNCNvMNtCscEP4C7Umxil_15cuenv_buildkite7emitterNtB4_16BuildkiteEmitter18build_command_steps2_0B6_
FNDA:0,_RNCNvMNtCscEP4C7Umxil_15cuenv_buildkite7emitterNtB4_16BuildkiteEmitter18build_command_steps3_0B6_
FNDA:0,_RNCNvMNtCscEP4C7Umxil_15cuenv_buildkite7emitterNtB4_16BuildkiteEmitter18build_command_steps4_0B6_
FNDA:0,_RNCNvMNtCscEP4C7Umxil_15cuenv_buildkite7emitterNtB4_16BuildkiteEmitter18build_command_steps5_0B6_
FNDA:0,_RNCNvMNtCscEP4C7Umxil_15cuenv_buildkite7emitterNtB4_16BuildkiteEmitter18build_command_steps6_0B6_
FNDA:0,_RNCNvMNtCscEP4C7Umxil_15cuenv_buildkite7emitterNtB4_16BuildkiteEmitter18build_command_steps_0B6_
FNDA:0,_RNCNvMNtCscEP4C7Umxil_15cuenv_buildkite7emitterNtB4_16BuildkiteEmitter18stage_task_to_step0B6_
FNDA:0,_RNCNvMNtCscEP4C7Umxil_15cuenv_buildkite7emitterNtB4_16BuildkiteEmitter18stage_task_to_steps0_0B6_
FNDA:0,_RNCNvMNtCscEP4C7Umxil_15cuenv_buildkite7emitterNtB4_16BuildkiteEmitter18stage_task_to_steps_0B6_
FNDA:0,_RNCNvXs_NtCscEP4C7Umxil_15cuenv_buildkite7emitterNtB6_16BuildkiteEmitterNtNtCskfEctF1MPvy_8cuenv_ci7emitter7Emitter4emit0B8_
FNDA:0,_RNvXs_NtCs9jqjLvUtoYr_15cuenv_buildkite7emitterNtB4_16BuildkiteEmitterNtNtCskfEctF1MPvy_8cuenv_ci7emitter7Emitter11description
FNDA:2,_RNvMNtCs9jqjLvUtoYr_15cuenv_buildkite7emitterNtB2_16BuildkiteEmitter11with_emojis
FNDA:14,_RNvMNtCs9jqjLvUtoYr_15cuenv_buildkite7emitterNtB2_16BuildkiteEmitter12format_label
FNDA:11,_RNvMNtCs9jqjLvUtoYr_15cuenv_buildkite7emitterNtB2_16BuildkiteEmitter14build_pipeline
FNDA:1,_RNvMNtCs9jqjLvUtoYr_15cuenv_buildkite7emitterNtB2_16BuildkiteEmitter16build_block_step
FNDA:12,_RNvMNtCs9jqjLvUtoYr_15cuenv_buildkite7emitterNtB2_16BuildkiteEmitter18build_command_step
FNDA:2,_RNvMNtCs9jqjLvUtoYr_15cuenv_buildkite7emitterNtB2_16BuildkiteEmitter18stage_task_to_step
FNDA:14,_RNvMNtCs9jqjLvUtoYr_15cuenv_buildkite7emitterNtB2_16BuildkiteEmitter3new
FNDA:1,_RNvXs_NtCs9jqjLvUtoYr_15cuenv_buildkite7emitterNtB4_16BuildkiteEmitterNtNtCskfEctF1MPvy_8cuenv_ci7emitter7Emitter11format_name
FNDA:1,_RNvXs_NtCs9jqjLvUtoYr_15cuenv_buildkite7emitterNtB4_16BuildkiteEmitterNtNtCskfEctF1MPvy_8cuenv_ci7emitter7Emitter14file_extension
FNDA:11,_RNvXs_NtCs9jqjLvUtoYr_15cuenv_buildkite7emitterNtB4_16BuildkiteEmitterNtNtCskfEctF1MPvy_8cuenv_ci7emitter7Emitter4emit
FNDA:2,_RNvXs_NtCs9jqjLvUtoYr_15cuenv_buildkite7emitterNtB4_16BuildkiteEmitterNtNtCskfEctF1MPvy_8cuenv_ci7emitter7Emitter8validate
FNDA:24,_RNCNvNtNtCs9jqjLvUtoYr_15cuenv_buildkite7emitter5tests9make_task0B7_
FNDA:1,_RINvMNtCs9jqjLvUtoYr_15cuenv_buildkite7emitterNtB3_16BuildkiteEmitter18with_default_queueReEB5_
FNDA:1,_RNCNvMNtCs9jqjLvUtoYr_15cuenv_buildkite7emitterNtB4_16BuildkiteEmitter14build_pipelines_0B6_
FNDA:0,_RNCNvMNtCs9jqjLvUtoYr_15cuenv_buildkite7emitterNtB4_16BuildkiteEmitter16build_block_step0B6_
FNDA:12,_RNCNvMNtCs9jqjLvUtoYr_15cuenv_buildkite7emitterNtB4_16BuildkiteEmitter18build_command_step0B6_
FNDA:1,_RNCNvMNtCs9jqjLvUtoYr_15cuenv_buildkite7emitterNtB4_16BuildkiteEmitter18build_command_steps0_0B6_
FNDA:0,_RNCNvMNtCs9jqjLvUtoYr_15cuenv_buildkite7emitterNtB4_16BuildkiteEmitter18build_command_steps1_0B6_
FNDA:1,_RNCNvMNtCs9jqjLvUtoYr_15cuenv_buildkite7emitterNtB4_16BuildkiteEmitter18build_command_steps2_0B6_
FNDA:11,_RNCNvMNtCs9jqjLvUtoYr_15cuenv_buildkite7emitterNtB4_16BuildkiteEmitter18build_command_steps3_0B6_
FNDA:1,_RNCNvMNtCs9jqjLvUtoYr_15cuenv_buildkite7emitterNtB4_16BuildkiteEmitter18build_command_steps4_0B6_
FNDA:1,_RNCNvMNtCs9jqjLvUtoYr_15cuenv_buildkite7emitterNtB4_16BuildkiteEmitter18build_command_steps5_0B6_
FNDA:1,_RNCNvMNtCs9jqjLvUtoYr_15cuenv_buildkite7emitterNtB4_16BuildkiteEmitter18build_command_steps6_0B6_
FNDA:0,_RNCNvMNtCs9jqjLvUtoYr_15cuenv_buildkite7emitterNtB4_16BuildkiteEmitter18build_command_steps_0B6_
FNDA:2,_RNCNvMNtCs9jqjLvUtoYr_15cuenv_buildkite7emitterNtB4_16BuildkiteEmitter18stage_task_to_step0B6_
FNDA:0,_RNCNvMNtCs9jqjLvUtoYr_15cuenv_buildkite7emitterNtB4_16BuildkiteEmitter18stage_task_to_steps0_0B6_
FNDA:1,_RNCNvMNtCs9jqjLvUtoYr_15cuenv_buildkite7emitterNtB4_16BuildkiteEmitter18stage_task_to_steps_0B6_
FNDA:0,_RNCNvXs_NtCs9jqjLvUtoYr_15cuenv_buildkite7emitterNtB6_16BuildkiteEmitterNtNtCskfEctF1MPvy_8cuenv_ci7emitter7Emitter4emit0B8_
FNDA:13,_RNvNtNtCs9jqjLvUtoYr_15cuenv_buildkite7emitter5tests7make_ir
FNDA:14,_RNvNtNtCs9jqjLvUtoYr_15cuenv_buildkite7emitter5tests9make_task
FNDA:1,_RNvNtNtCs9jqjLvUtoYr_15cuenv_buildkite7emitter5testss_11test_emojis
FNDA:1,_RNvNtNtCs9jqjLvUtoYr_15cuenv_buildkite7emitter5testss_16test_format_name
FNDA:1,_RNvNtNtCs9jqjLvUtoYr_15cuenv_buildkite7emitter5testss_17test_with_secrets
FNDA:1,_RNvNtNtCs9jqjLvUtoYr_15cuenv_buildkite7emitter5testss_18test_default_queue
FNDA:1,_RNvNtNtCs9jqjLvUtoYr_15cuenv_buildkite7emitter5testss_19test_with_artifacts
FNDA:1,_RNvNtNtCs9jqjLvUtoYr_15cuenv_buildkite7emitter5testss_20test_simple_pipeline
FNDA:1,_RNvNtNtCs9jqjLvUtoYr_15cuenv_buildkite7emitter5testss_21test_with_agent_queue
FNDA:1,_RNvNtNtCs9jqjLvUtoYr_15cuenv_buildkite7emitter5testss_21test_with_nix_runtime
FNDA:1,_RNvNtNtCs9jqjLvUtoYr_15cuenv_buildkite7emitter5testss_22test_with_dependencies
FNDA:1,_RNvNtNtCs9jqjLvUtoYr_15cuenv_buildkite7emitter5testss_25test_with_manual_approval
FNDA:1,_RNvNtNtCs9jqjLvUtoYr_15cuenv_buildkite7emitter5testss_26test_validation_invalid_id
FNDA:1,_RNvNtNtCs9jqjLvUtoYr_15cuenv_buildkite7emitter5testss_27test_with_concurrency_group
FNDA:1,_RNvNtNtCs9jqjLvUtoYr_15cuenv_buildkite7emitter5testss_33test_without_runtime_no_nix_setup
FNDA:1,_RNvNtNtCs9jqjLvUtoYr_15cuenv_buildkite7emitter5testss_34test_validation_missing_dependency
FNF:45
FNH:39
DA:42,14
DA:43,14
DA:44,14
DA:48,2
DA:49,2
DA:50,2
DA:51,2
DA:55,1
DA:56,1
DA:57,1
DA:58,1
DA:61,11
DA:62,11
DA:65,12
DA:66,1
DA:67,1
DA:70,12
DA:71,1
DA:72,1
DA:75,11
DA:78,11
DA:79,11
DA:80,11
DA:81,11
DA:82,11
DA:83,11
DA:86,23
DA:88,12
DA:89,1
DA:90,11
DA:93,12
DA:94,12
DA:95,12
DA:96,12
DA:97,12
DA:98,12
DA:101,11
DA:102,11
DA:103,11
DA:104,11
DA:105,11
DA:108,2
DA:109,2
DA:112,2
DA:113,2
DA:115,0
DA:119,2
DA:120,2
DA:121,2
DA:122,2
DA:123,2
DA:126,2
DA:127,2
DA:128,2
DA:129,2
DA:130,2
DA:131,2
DA:132,2
DA:133,2
DA:134,2
DA:135,2
DA:136,2
DA:137,2
DA:138,2
DA:139,2
DA:140,2
DA:141,2
DA:143,2
DA:146,12
DA:147,12
DA:148,12
DA:149,12
DA:150,12
DA:151,12
DA:152,12
DA:153,12
DA:156,12
DA:157,12
DA:158,0
DA:162,12
DA:163,1
DA:165,1
DA:166,1
DA:167,1
DA:168,1
DA:170,0
DA:173,11
DA:178,12
DA:179,12
DA:180,12
DA:181,12
DA:182,12
DA:185,12
DA:186,12
DA:187,12
DA:188,12
DA:189,12
DA:192,12
DA:193,12
DA:194,12
DA:195,12
DA:196,12
DA:197,12
DA:200,12
DA:203,12
DA:204,3
DA:205,2
DA:206,2
DA:207,11
DA:210,13
DA:211,1
DA:212,0
DA:213,1
DA:214,1
DA:215,1
DA:219,12
DA:220,1
DA:221,11
DA:224,12
DA:225,12
DA:226,12
DA:227,12
DA:229,12
DA:230,12
DA:231,12
DA:232,12
DA:233,12
DA:234,12
DA:235,12
DA:236,12
DA:237,12
DA:238,12
DA:239,12
DA:240,12
DA:241,12
DA:242,12
DA:243,12
DA:246,1
DA:247,1
DA:248,1
DA:250,0
DA:253,1
DA:254,1
DA:255,1
DA:256,1
DA:257,1
DA:260,1
DA:261,1
DA:262,1
DA:264,1
DA:265,1
DA:266,1
DA:267,1
DA:268,1
DA:269,1
DA:270,1
DA:271,1
DA:274,14
DA:275,14
DA:276,2
DA:277,2
DA:279,12
DA:281,14
DA:285,11
DA:286,11
DA:288,11
DA:289,11
DA:291,1
DA:292,1
DA:293,1
DA:295,1
DA:296,1
DA:297,1
DA:299,0
DA:300,0
DA:301,0
DA:303,2
DA:305,3
DA:306,2
DA:307,1
DA:308,1
DA:309,1
DA:310,1
DA:311,1
DA:315,1
DA:316,1
DA:317,1
DA:318,1
DA:319,1
DA:320,1
DA:321,1
DA:322,1
DA:323,0
DA:327,0
DA:328,2
DA:340,13
DA:341,13
DA:342,13
DA:343,13
DA:344,13
DA:345,13
DA:346,13
DA:347,13
DA:348,13
DA:349,13
DA:350,13
DA:351,13
DA:352,13
DA:353,13
DA:354,13
DA:355,13
DA:357,14
DA:359,14
DA:360,14
DA:361,24
DA:363,14
DA:364,14
DA:365,14
DA:366,14
DA:367,14
DA:368,14
DA:369,14
DA:370,14
DA:373,14
DA:374,14
DA:375,14
DA:377,14
DA:380,1
DA:381,1
DA:382,1
DA:384,1
DA:386,1
DA:387,1
DA:389,1
DA:390,1
DA:393,1
DA:394,1
DA:395,1
DA:396,1
DA:398,1
DA:400,1
DA:402,1
DA:403,1
DA:404,1
DA:407,1
DA:408,1
DA:409,1
DA:410,1
DA:411,1
DA:413,1
DA:415,1
DA:417,1
DA:418,1
DA:419,1
DA:420,1
DA:423,1
DA:424,1
DA:425,1
DA:426,1
DA:428,1
DA:430,1
DA:432,1
DA:433,1
DA:434,1
DA:437,1
DA:438,1
DA:439,1
DA:440,1
DA:441,1
DA:442,1
DA:443,1
DA:444,1
DA:446,1
DA:448,1
DA:450,1
DA:451,1
DA:452,1
DA:455,1
DA:456,1
DA:457,1
DA:458,1
DA:459,1
DA:460,1
DA:461,1
DA:462,1
DA:463,1
DA:466,1
DA:468,1
DA:471,1
DA:472,1
DA:475,1
DA:476,1
DA:477,1
DA:478,1
DA:479,1
DA:480,1
DA:481,1
DA:483,1
DA:485,1
DA:487,1
DA:488,1
DA:489,1
DA:492,1
DA:493,1
DA:494,1
DA:496,1
DA:498,1
DA:499,1
DA:500,1
DA:503,1
DA:504,1
DA:505,1
DA:507,1
DA:509,1
DA:510,1
DA:513,1
DA:514,1
DA:515,1
DA:517,1
DA:518,1
DA:519,1
DA:522,1
DA:523,1
DA:524,1
DA:525,1
DA:527,1
DA:529,1
DA:530,1
DA:531,1
DA:534,1
DA:535,1
DA:536,1
DA:537,1
DA:538,1
DA:541,1
DA:542,1
DA:545,1
DA:546,1
DA:549,1
DA:550,1
DA:551,1
DA:552,1
DA:553,1
DA:554,1
DA:555,1
DA:556,1
DA:557,1
DA:560,1
DA:561,1
DA:562,1
DA:563,1
DA:564,1
DA:565,1
DA:566,1
DA:567,1
DA:568,1
DA:569,1
DA:570,1
DA:571,1
DA:572,1
DA:573,1
DA:574,1
DA:575,1
DA:576,1
DA:577,1
DA:578,1
DA:579,1
DA:580,1
DA:581,1
DA:582,1
DA:584,1
DA:587,1
DA:588,1
DA:591,1
DA:592,1
DA:593,1
DA:596,1
DA:597,1
DA:600,1
DA:601,1
DA:604,1
DA:605,1
DA:607,1
DA:610,1
DA:611,1
DA:614,1
DA:615,1
BRF:0
BRH:0
LF:401
LH:387
end_of_record
SF:/Users/rawkode/Code/src/github.com/cuenv/cuenv/crates/buildkite/src/provider.rs
FN:93,_RNCNCNvMNtCscEP4C7Umxil_15cuenv_buildkite8providerNtB6_19BuildkiteCIProvider21get_all_tracked_files00B8_
FN:94,_RNCNCNvMNtCscEP4C7Umxil_15cuenv_buildkite8providerNtB6_19BuildkiteCIProvider21get_all_tracked_files0s_0B8_
FN:79,_RNCNvMNtCscEP4C7Umxil_15cuenv_buildkite8providerNtB4_19BuildkiteCIProvider12try_git_diff0B6_
FN:80,_RNCNvMNtCscEP4C7Umxil_15cuenv_buildkite8providerNtB4_19BuildkiteCIProvider12try_git_diffs_0B6_
FN:56,_RNCNvMNtCscEP4C7Umxil_15cuenv_buildkite8providerNtB4_19BuildkiteCIProvider16is_shallow_clone0B6_
FN:90,_RNCNvMNtCscEP4C7Umxil_15cuenv_buildkite8providerNtB4_19BuildkiteCIProvider21get_all_tracked_files0B6_
FN:48,_RNCNvMNtCscEP4C7Umxil_15cuenv_buildkite8providerNtB4_19BuildkiteCIProvider9fetch_ref0B6_
FN:109,_RNCNvXs_NtCscEP4C7Umxil_15cuenv_buildkite8providerNtB6_19BuildkiteCIProviderNtNtCskfEctF1MPvy_8cuenv_ci8provider10CIProvider6detect0B8_
FN:111,_RNCNvXs_NtCscEP4C7Umxil_15cuenv_buildkite8providerNtB6_19BuildkiteCIProviderNtNtCskfEctF1MPvy_8cuenv_ci8provider10CIProvider6detects_0B8_
FN:29,_RNvMNtCscEP4C7Umxil_15cuenv_buildkite8providerNtB2_19BuildkiteCIProvider12get_base_ref
FN:60,_RNvMNtCscEP4C7Umxil_15cuenv_buildkite8providerNtB2_19BuildkiteCIProvider12try_git_diff
FN:52,_RNvMNtCscEP4C7Umxil_15cuenv_buildkite8providerNtB2_19BuildkiteCIProvider16is_shallow_clone
FN:86,_RNvMNtCscEP4C7Umxil_15cuenv_buildkite8providerNtB2_19BuildkiteCIProvider21get_all_tracked_files
FN:43,_RNvMNtCscEP4C7Umxil_15cuenv_buildkite8providerNtB2_19BuildkiteCIProvider9fetch_ref
FN:181,_RNvXs_NtCscEP4C7Umxil_15cuenv_buildkite8providerNtB4_19BuildkiteCIProviderNtNtCskfEctF1MPvy_8cuenv_ci8provider10CIProvider12create_check
FN:196,_RNvXs_NtCscEP4C7Umxil_15cuenv_buildkite8providerNtB4_19BuildkiteCIProviderNtNtCskfEctF1MPvy_8cuenv_ci8provider10CIProvider12update_check
FN:134,_RNvXs_NtCscEP4C7Umxil_15cuenv_buildkite8providerNtB4_19BuildkiteCIProviderNtNtCskfEctF1MPvy_8cuenv_ci8provider10CIProvider13changed_files
FN:243,_RNvXs_NtCscEP4C7Umxil_15cuenv_buildkite8providerNtB4_19BuildkiteCIProviderNtNtCskfEctF1MPvy_8cuenv_ci8provider10CIProvider13upload_report
FN:212,_RNvXs_NtCscEP4C7Umxil_15cuenv_buildkite8providerNtB4_19BuildkiteCIProviderNtNtCskfEctF1MPvy_8cuenv_ci8provider10CIProvider14complete_check
FN:103,_RNvXs_NtCscEP4C7Umxil_15cuenv_buildkite8providerNtB4_19BuildkiteCIProviderNtNtCskfEctF1MPvy_8cuenv_ci8provider10CIProvider6detect
FN:130,_RNvXs_NtCscEP4C7Umxil_15cuenv_buildkite8providerNtB4_19BuildkiteCIProviderNtNtCskfEctF1MPvy_8cuenv_ci8provider10CIProvider7context
FN:93,_RNCNCNvMNtCs9jqjLvUtoYr_15cuenv_buildkite8providerNtB6_19BuildkiteCIProvider21get_all_tracked_files00B8_
FN:94,_RNCNCNvMNtCs9jqjLvUtoYr_15cuenv_buildkite8providerNtB6_19BuildkiteCIProvider21get_all_tracked_files0s_0B8_
FN:79,_RNCNvMNtCs9jqjLvUtoYr_15cuenv_buildkite8providerNtB4_19BuildkiteCIProvider12try_git_diff0B6_
FN:80,_RNCNvMNtCs9jqjLvUtoYr_15cuenv_buildkite8providerNtB4_19BuildkiteCIProvider12try_git_diffs_0B6_
FN:56,_RNCNvMNtCs9jqjLvUtoYr_15cuenv_buildkite8providerNtB4_19BuildkiteCIProvider16is_shallow_clone0B6_
FN:90,_RNCNvMNtCs9jqjLvUtoYr_15cuenv_buildkite8providerNtB4_19BuildkiteCIProvider21get_all_tracked_files0B6_
FN:48,_RNCNvMNtCs9jqjLvUtoYr_15cuenv_buildkite8providerNtB4_19BuildkiteCIProvider9fetch_ref0B6_
FN:60,_RNvMNtCs9jqjLvUtoYr_15cuenv_buildkite8providerNtB2_19BuildkiteCIProvider12try_git_diff
FN:52,_RNvMNtCs9jqjLvUtoYr_15cuenv_buildkite8providerNtB2_19BuildkiteCIProvider16is_shallow_clone
FN:86,_RNvMNtCs9jqjLvUtoYr_15cuenv_buildkite8providerNtB2_19BuildkiteCIProvider21get_all_tracked_files
FN:43,_RNvMNtCs9jqjLvUtoYr_15cuenv_buildkite8providerNtB2_19BuildkiteCIProvider9fetch_ref
FN:181,_RNvXs_NtCs9jqjLvUtoYr_15cuenv_buildkite8providerNtB4_19BuildkiteCIProviderNtNtCskfEctF1MPvy_8cuenv_ci8provider10CIProvider12create_check
FN:196,_RNvXs_NtCs9jqjLvUtoYr_15cuenv_buildkite8providerNtB4_19BuildkiteCIProviderNtNtCskfEctF1MPvy_8cuenv_ci8provider10CIProvider12update_check
FN:134,_RNvXs_NtCs9jqjLvUtoYr_15cuenv_buildkite8providerNtB4_19BuildkiteCIProviderNtNtCskfEctF1MPvy_8cuenv_ci8provider10CIProvider13changed_files
FN:243,_RNvXs_NtCs9jqjLvUtoYr_15cuenv_buildkite8providerNtB4_19BuildkiteCIProviderNtNtCskfEctF1MPvy_8cuenv_ci8provider10CIProvider13upload_report
FN:212,_RNvXs_NtCs9jqjLvUtoYr_15cuenv_buildkite8providerNtB4_19BuildkiteCIProviderNtNtCskfEctF1MPvy_8cuenv_ci8provider10CIProvider14complete_check
FN:130,_RNvXs_NtCs9jqjLvUtoYr_15cuenv_buildkite8providerNtB4_19BuildkiteCIProviderNtNtCskfEctF1MPvy_8cuenv_ci8provider10CIProvider7context
FN:29,_RNvMNtCs9jqjLvUtoYr_15cuenv_buildkite8providerNtB2_19BuildkiteCIProvider12get_base_ref
FN:103,_RNvXs_NtCs9jqjLvUtoYr_15cuenv_buildkite8providerNtB4_19BuildkiteCIProviderNtNtCskfEctF1MPvy_8cuenv_ci8provider10CIProvider6detect
FN:109,_RNCNvXs_NtCs9jqjLvUtoYr_15cuenv_buildkite8providerNtB6_19BuildkiteCIProviderNtNtCskfEctF1MPvy_8cuenv_ci8provider10CIProvider6detect0B8_
FN:111,_RNCNvXs_NtCs9jqjLvUtoYr_15cuenv_buildkite8providerNtB6_19BuildkiteCIProviderNtNtCskfEctF1MPvy_8cuenv_ci8provider10CIProvider6detects_0B8_
FN:279,_RNvNtNtCs9jqjLvUtoYr_15cuenv_buildkite8provider5testss_21test_detect_buildkite
FN:301,_RNvNtNtCs9jqjLvUtoYr_15cuenv_buildkite8provider5testss_24test_detect_buildkite_pr
FN:271,_RNvNtNtCs9jqjLvUtoYr_15cuenv_buildkite8provider5testss_25test_detect_not_buildkite
FN:287,_RNCNvNtNtCs9jqjLvUtoYr_15cuenv_buildkite8provider5testss_21test_detect_buildkite0B7_
FN:310,_RNCNvNtNtCs9jqjLvUtoYr_15cuenv_buildkite8provider5testss_24test_detect_buildkite_pr0B7_
FN:273,_RNCNvNtNtCs9jqjLvUtoYr_15cuenv_buildkite8provider5testss_25test_detect_not_buildkite0B7_
FNDA:0,_RNCNCNvMNtCscEP4C7Umxil_15cuenv_buildkite8providerNtB6_19BuildkiteCIProvider21get_all_tracked_files00B8_
FNDA:0,_RNCNCNvMNtCscEP4C7Umxil_15cuenv_buildkite8providerNtB6_19BuildkiteCIProvider21get_all_tracked_files0s_0B8_
FNDA:0,_RNCNvMNtCscEP4C7Umxil_15cuenv_buildkite8providerNtB4_19BuildkiteCIProvider12try_git_diff0B6_
FNDA:0,_RNCNvMNtCscEP4C7Umxil_15cuenv_buildkite8providerNtB4_19BuildkiteCIProvider12try_git_diffs_0B6_
FNDA:0,_RNCNvMNtCscEP4C7Umxil_15cuenv_buildkite8providerNtB4_19BuildkiteCIProvider16is_shallow_clone0B6_
FNDA:0,_RNCNvMNtCscEP4C7Umxil_15cuenv_buildkite8providerNtB4_19BuildkiteCIProvider21get_all_tracked_files0B6_
FNDA:0,_RNCNvMNtCscEP4C7Umxil_15cuenv_buildkite8providerNtB4_19BuildkiteCIProvider9fetch_ref0B6_
FNDA:0,_RNCNvXs_NtCscEP4C7Umxil_15cuenv_buildkite8providerNtB6_19BuildkiteCIProviderNtNtCskfEctF1MPvy_8cuenv_ci8provider10CIProvider6detect0B8_
FNDA:0,_RNCNvXs_NtCscEP4C7Umxil_15cuenv_buildkite8providerNtB6_19BuildkiteCIProviderNtNtCskfEctF1MPvy_8cuenv_ci8provider10CIProvider6detects_0B8_
FNDA:0,_RNvMNtCscEP4C7Umxil_15cuenv_buildkite8providerNtB2_19BuildkiteCIProvider12get_base_ref
FNDA:0,_RNvMNtCscEP4C7Umxil_15cuenv_buildkite8providerNtB2_19BuildkiteCIProvider12try_git_diff
FNDA:0,_RNvMNtCscEP4C7Umxil_15cuenv_buildkite8providerNtB2_19BuildkiteCIProvider16is_shallow_clone
FNDA:0,_RNvMNtCscEP4C7Umxil_15cuenv_buildkite8providerNtB2_19BuildkiteCIProvider21get_all_tracked_files
FNDA:0,_RNvMNtCscEP4C7Umxil_15cuenv_buildkite8providerNtB2_19BuildkiteCIProvider9fetch_ref
FNDA:0,_RNvXs_NtCscEP4C7Umxil_15cuenv_buildkite8providerNtB4_19BuildkiteCIProviderNtNtCskfEctF1MPvy_8cuenv_ci8provider10CIProvider12create_check
FNDA:0,_RNvXs_NtCscEP4C7Umxil_15cuenv_buildkite8providerNtB4_19BuildkiteCIProviderNtNtCskfEctF1MPvy_8cuenv_ci8provider10CIProvider12update_check
FNDA:0,_RNvXs_NtCscEP4C7Umxil_15cuenv_buildkite8providerNtB4_19BuildkiteCIProviderNtNtCskfEctF1MPvy_8cuenv_ci8provider10CIProvider13changed_files
FNDA:0,_RNvXs_NtCscEP4C7Umxil_15cuenv_buildkite8providerNtB4_19BuildkiteCIProviderNtNtCskfEctF1MPvy_8cuenv_ci8provider10CIProvider13upload_report
FNDA:0,_RNvXs_NtCscEP4C7Umxil_15cuenv_buildkite8providerNtB4_19BuildkiteCIProviderNtNtCskfEctF1MPvy_8cuenv_ci8provider10CIProvider14complete_check
FNDA:0,_RNvXs_NtCscEP4C7Umxil_15cuenv_buildkite8providerNtB4_19BuildkiteCIProviderNtNtCskfEctF1MPvy_8cuenv_ci8provider10CIProvider6detect
FNDA:0,_RNvXs_NtCscEP4C7Umxil_15cuenv_buildkite8providerNtB4_19BuildkiteCIProviderNtNtCskfEctF1MPvy_8cuenv_ci8provider10CIProvider7context
FNDA:0,_RNCNCNvMNtCs9jqjLvUtoYr_15cuenv_buildkite8providerNtB6_19BuildkiteCIProvider21get_all_tracked_files00B8_
FNDA:0,_RNCNCNvMNtCs9jqjLvUtoYr_15cuenv_buildkite8providerNtB6_19BuildkiteCIProvider21get_all_tracked_files0s_0B8_
FNDA:0,_RNCNvMNtCs9jqjLvUtoYr_15cuenv_buildkite8providerNtB4_19BuildkiteCIProvider12try_git_diff0B6_
FNDA:0,_RNCNvMNtCs9jqjLvUtoYr_15cuenv_buildkite8providerNtB4_19BuildkiteCIProvider12try_git_diffs_0B6_
FNDA:0,_RNCNvMNtCs9jqjLvUtoYr_15cuenv_buildkite8providerNtB4_19BuildkiteCIProvider16is_shallow_clone0B6_
FNDA:0,_RNCNvMNtCs9jqjLvUtoYr_15cuenv_buildkite8providerNtB4_19BuildkiteCIProvider21get_all_tracked_files0B6_
FNDA:0,_RNCNvMNtCs9jqjLvUtoYr_15cuenv_buildkite8providerNtB4_19BuildkiteCIProvider9fetch_ref0B6_
FNDA:0,_RNvMNtCs9jqjLvUtoYr_15cuenv_buildkite8providerNtB2_19BuildkiteCIProvider12try_git_diff
FNDA:0,_RNvMNtCs9jqjLvUtoYr_15cuenv_buildkite8providerNtB2_19BuildkiteCIProvider16is_shallow_clone
FNDA:0,_RNvMNtCs9jqjLvUtoYr_15cuenv_buildkite8providerNtB2_19BuildkiteCIProvider21get_all_tracked_files
FNDA:0,_RNvMNtCs9jqjLvUtoYr_15cuenv_buildkite8providerNtB2_19BuildkiteCIProvider9fetch_ref
FNDA:0,_RNvXs_NtCs9jqjLvUtoYr_15cuenv_buildkite8providerNtB4_19BuildkiteCIProviderNtNtCskfEctF1MPvy_8cuenv_ci8provider10CIProvider12create_check
FNDA:0,_RNvXs_NtCs9jqjLvUtoYr_15cuenv_buildkite8providerNtB4_19BuildkiteCIProviderNtNtCskfEctF1MPvy_8cuenv_ci8provider10CIProvider12update_check
FNDA:0,_RNvXs_NtCs9jqjLvUtoYr_15cuenv_buildkite8providerNtB4_19BuildkiteCIProviderNtNtCskfEctF1MPvy_8cuenv_ci8provider10CIProvider13changed_files
FNDA:0,_RNvXs_NtCs9jqjLvUtoYr_15cuenv_buildkite8providerNtB4_19BuildkiteCIProviderNtNtCskfEctF1MPvy_8cuenv_ci8provider10CIProvider13upload_report
FNDA:0,_RNvXs_NtCs9jqjLvUtoYr_15cuenv_buildkite8providerNtB4_19BuildkiteCIProviderNtNtCskfEctF1MPvy_8cuenv_ci8provider10CIProvider14complete_check
FNDA:0,_RNvXs_NtCs9jqjLvUtoYr_15cuenv_buildkite8providerNtB4_19BuildkiteCIProviderNtNtCskfEctF1MPvy_8cuenv_ci8provider10CIProvider7context
FNDA:2,_RNvMNtCs9jqjLvUtoYr_15cuenv_buildkite8providerNtB2_19BuildkiteCIProvider12get_base_ref
FNDA:3,_RNvXs_NtCs9jqjLvUtoYr_15cuenv_buildkite8providerNtB4_19BuildkiteCIProviderNtNtCskfEctF1MPvy_8cuenv_ci8provider10CIProvider6detect
FNDA:0,_RNCNvXs_NtCs9jqjLvUtoYr_15cuenv_buildkite8providerNtB6_19BuildkiteCIProviderNtNtCskfEctF1MPvy_8cuenv_ci8provider10CIProvider6detect0B8_
FNDA:0,_RNCNvXs_NtCs9jqjLvUtoYr_15cuenv_buildkite8providerNtB6_19BuildkiteCIProviderNtNtCskfEctF1MPvy_8cuenv_ci8provider10CIProvider6detects_0B8_
FNDA:1,_RNvNtNtCs9jqjLvUtoYr_15cuenv_buildkite8provider5testss_21test_detect_buildkite
FNDA:1,_RNvNtNtCs9jqjLvUtoYr_15cuenv_buildkite8provider5testss_24test_detect_buildkite_pr
FNDA:1,_RNvNtNtCs9jqjLvUtoYr_15cuenv_buildkite8provider5testss_25test_detect_not_buildkite
FNDA:1,_RNCNvNtNtCs9jqjLvUtoYr_15cuenv_buildkite8provider5testss_21test_detect_buildkite0B7_
FNDA:1,_RNCNvNtNtCs9jqjLvUtoYr_15cuenv_buildkite8provider5testss_24test_detect_buildkite_pr0B7_
FNDA:1,_RNCNvNtNtCs9jqjLvUtoYr_15cuenv_buildkite8provider5testss_25test_detect_not_buildkite0B7_
FNF:27
FNH:8
DA:29,2
DA:31,2
DA:32,1
DA:33,1
DA:35,1
DA:36,1
DA:39,1
DA:40,2
DA:43,0
DA:44,0
DA:45,0
DA:46,0
DA:47,0
DA:48,0
DA:49,0
DA:52,0
DA:53,0
DA:54,0
DA:55,0
DA:56,0
DA:57,0
DA:60,0
DA:61,0
DA:62,0
DA:63,0
DA:64,0
DA:65,0
DA:67,0
DA:68,0
DA:69,0
DA:70,0
DA:72,0
DA:73,0
DA:75,0
DA:77,0
DA:78,0
DA:79,0
DA:80,0
DA:81,0
DA:83,0
DA:86,0
DA:87,0
DA:88,0
DA:89,0
DA:90,0
DA:91,0
DA:92,0
DA:93,0
DA:94,0
DA:95,0
DA:96,0
DA:97,0
DA:98,0
DA:103,3
DA:105,3
DA:106,0
DA:107,2
DA:109,2
DA:110,2
DA:111,2
DA:112,2
DA:114,2
DA:115,0
DA:119,2
DA:120,2
DA:121,2
DA:122,2
DA:123,2
DA:124,2
DA:125,2
DA:126,2
DA:127,2
DA:128,3
DA:130,0
DA:131,0
DA:132,0
DA:134,0
DA:179,0
DA:181,0
DA:194,0
DA:196,0
DA:210,0
DA:212,0
DA:213,0
DA:241,0
DA:243,0
DA:263,0
DA:271,1
DA:273,1
DA:274,1
DA:275,1
DA:276,1
DA:279,1
DA:280,1
DA:281,1
DA:282,1
DA:283,1
DA:284,1
DA:285,1
DA:286,1
DA:287,1
DA:288,1
DA:289,1
DA:291,1
DA:292,1
DA:293,1
DA:294,1
DA:295,1
DA:296,1
DA:298,1
DA:301,1
DA:302,1
DA:303,1
DA:304,1
DA:305,1
DA:306,1
DA:307,1
DA:308,1
DA:309,1
DA:310,1
DA:311,1
DA:312,1
DA:313,1
DA:315,1
BRF:0
BRH:0
LF:134
LH:64
end_of_record
SF:/Users/rawkode/Code/src/github.com/cuenv/cuenv/crates/buildkite/src/schema.rs
FN:212,_RNvMs0_NtCscEP4C7Umxil_15cuenv_buildkite6schemaNtB5_10AgentRules9from_tags
FN:163,_RNvXs_NtCscEP4C7Umxil_15cuenv_buildkite6schemaNtB4_8WaitStepNtNtCskzPJi2J8k3N_4core7default7Default7default
FN:203,_RINvMs0_NtCscEP4C7Umxil_15cuenv_buildkite6schemaNtB6_10AgentRules10with_queueRNtNtCsganj50Cd8Gx_5alloc6string6StringEB8_
FN:548,_RNvNtNtCs9jqjLvUtoYr_15cuenv_buildkite6schema5testss_18test_step_variants
FN:373,_RNvNtNtCs9jqjLvUtoYr_15cuenv_buildkite6schema5testss_19test_block_step_new
FN:476,_RNvNtNtCs9jqjLvUtoYr_15cuenv_buildkite6schema5testss_19test_depends_on_key
FN:315,_RNvNtNtCs9jqjLvUtoYr_15cuenv_buildkite6schema5testss_21test_pipeline_default
FN:538,_RNvNtNtCs9jqjLvUtoYr_15cuenv_buildkite6schema5testss_22test_pipeline_with_env
FN:407,_RNvNtNtCs9jqjLvUtoYr_15cuenv_buildkite6schema5testss_22test_wait_step_default
FN:365,_RNvNtNtCs9jqjLvUtoYr_15cuenv_buildkite6schema5testss_24test_command_value_array
FN:483,_RNvNtNtCs9jqjLvUtoYr_15cuenv_buildkite6schema5testss_24test_depends_on_detailed
FN:322,_RNvNtNtCs9jqjLvUtoYr_15cuenv_buildkite6schema5testss_25test_command_step_default
FN:358,_RNvNtNtCs9jqjLvUtoYr_15cuenv_buildkite6schema5testss_25test_command_value_single
FN:455,_RNvNtNtCs9jqjLvUtoYr_15cuenv_buildkite6schema5testss_26test_agent_rules_from_tags
FN:442,_RNvNtNtCs9jqjLvUtoYr_15cuenv_buildkite6schema5testss_27test_agent_rules_with_queue
FN:510,_RNvNtNtCs9jqjLvUtoYr_15cuenv_buildkite6schema5testss_27test_automatic_retry_config
FN:521,_RNvNtNtCs9jqjLvUtoYr_15cuenv_buildkite6schema5testss_27test_pipeline_serialization
FN:414,_RNvNtNtCs9jqjLvUtoYr_15cuenv_buildkite6schema5testss_28test_wait_step_serialization
FN:383,_RNvNtNtCs9jqjLvUtoYr_15cuenv_buildkite6schema5testss_29test_block_step_serialization
FN:425,_RNvNtNtCs9jqjLvUtoYr_15cuenv_buildkite6schema5testss_29test_group_step_serialization
FN:467,_RNvNtNtCs9jqjLvUtoYr_15cuenv_buildkite6schema5testss_30test_agent_rules_serialization
FN:392,_RNvNtNtCs9jqjLvUtoYr_15cuenv_buildkite6schema5testss_30test_block_field_serialization
FN:339,_RNvNtNtCs9jqjLvUtoYr_15cuenv_buildkite6schema5testss_31test_command_step_serialization
FN:494,_RNvNtNtCs9jqjLvUtoYr_15cuenv_buildkite6schema5testss_31test_retry_config_serialization
FN:449,_RNvNtNtCs9jqjLvUtoYr_15cuenv_buildkite6schema5testss_32test_agent_rules_from_tags_empty
FN:121,_RINvMNtCs9jqjLvUtoYr_15cuenv_buildkite6schemaNtB3_9BlockStep3newReEB5_
FN:203,_RINvMs0_NtCs9jqjLvUtoYr_15cuenv_buildkite6schemaNtB6_10AgentRules10with_queueRNtNtCsganj50Cd8Gx_5alloc6string6StringEB8_
FN:203,_RINvMs0_NtCs9jqjLvUtoYr_15cuenv_buildkite6schemaNtB6_10AgentRules10with_queueReEB8_
FN:212,_RNvMs0_NtCs9jqjLvUtoYr_15cuenv_buildkite6schemaNtB5_10AgentRules9from_tags
FN:163,_RNvXs_NtCs9jqjLvUtoYr_15cuenv_buildkite6schemaNtB4_8WaitStepNtNtCskzPJi2J8k3N_4core7default7Default7default
FNDA:0,_RNvMs0_NtCscEP4C7Umxil_15cuenv_buildkite6schemaNtB5_10AgentRules9from_tags
FNDA:0,_RNvXs_NtCscEP4C7Umxil_15cuenv_buildkite6schemaNtB4_8WaitStepNtNtCskzPJi2J8k3N_4core7default7Default7default
FNDA:0,_RINvMs0_NtCscEP4C7Umxil_15cuenv_buildkite6schemaNtB6_10AgentRules10with_queueRNtNtCsganj50Cd8Gx_5alloc6string6StringEB8_
FNDA:1,_RNvNtNtCs9jqjLvUtoYr_15cuenv_buildkite6schema5testss_18test_step_variants
FNDA:1,_RNvNtNtCs9jqjLvUtoYr_15cuenv_buildkite6schema5testss_19test_block_step_new
FNDA:1,_RNvNtNtCs9jqjLvUtoYr_15cuenv_buildkite6schema5testss_19test_depends_on_key
FNDA:1,_RNvNtNtCs9jqjLvUtoYr_15cuenv_buildkite6schema5testss_21test_pipeline_default
FNDA:1,_RNvNtNtCs9jqjLvUtoYr_15cuenv_buildkite6schema5testss_22test_pipeline_with_env
FNDA:1,_RNvNtNtCs9jqjLvUtoYr_15cuenv_buildkite6schema5testss_22test_wait_step_default
FNDA:1,_RNvNtNtCs9jqjLvUtoYr_15cuenv_buildkite6schema5testss_24test_command_value_array
FNDA:1,_RNvNtNtCs9jqjLvUtoYr_15cuenv_buildkite6schema5testss_24test_depends_on_detailed
FNDA:1,_RNvNtNtCs9jqjLvUtoYr_15cuenv_buildkite6schema5testss_25test_command_step_default
FNDA:1,_RNvNtNtCs9jqjLvUtoYr_15cuenv_buildkite6schema5testss_25test_command_value_single
FNDA:1,_RNvNtNtCs9jqjLvUtoYr_15cuenv_buildkite6schema5testss_26test_agent_rules_from_tags
FNDA:1,_RNvNtNtCs9jqjLvUtoYr_15cuenv_buildkite6schema5testss_27test_agent_rules_with_queue
FNDA:1,_RNvNtNtCs9jqjLvUtoYr_15cuenv_buildkite6schema5testss_27test_automatic_retry_config
FNDA:1,_RNvNtNtCs9jqjLvUtoYr_15cuenv_buildkite6schema5testss_27test_pipeline_serialization
FNDA:1,_RNvNtNtCs9jqjLvUtoYr_15cuenv_buildkite6schema5testss_28test_wait_step_serialization
FNDA:1,_RNvNtNtCs9jqjLvUtoYr_15cuenv_buildkite6schema5testss_29test_block_step_serialization
FNDA:1,_RNvNtNtCs9jqjLvUtoYr_15cuenv_buildkite6schema5testss_29test_group_step_serialization
FNDA:1,_RNvNtNtCs9jqjLvUtoYr_15cuenv_buildkite6schema5testss_30test_agent_rules_serialization
FNDA:1,_RNvNtNtCs9jqjLvUtoYr_15cuenv_buildkite6schema5testss_30test_block_field_serialization
FNDA:1,_RNvNtNtCs9jqjLvUtoYr_15cuenv_buildkite6schema5testss_31test_command_step_serialization
FNDA:1,_RNvNtNtCs9jqjLvUtoYr_15cuenv_buildkite6schema5testss_31test_retry_config_serialization
FNDA:1,_RNvNtNtCs9jqjLvUtoYr_15cuenv_buildkite6schema5testss_32test_agent_rules_from_tags_empty
FNDA:3,_RINvMNtCs9jqjLvUtoYr_15cuenv_buildkite6schemaNtB3_9BlockStep3newReEB5_
FNDA:1,_RINvMs0_NtCs9jqjLvUtoYr_15cuenv_buildkite6schemaNtB6_10AgentRules10with_queueRNtNtCsganj50Cd8Gx_5alloc6string6StringEB8_
FNDA:2,_RINvMs0_NtCs9jqjLvUtoYr_15cuenv_buildkite6schemaNtB6_10AgentRules10with_queueReEB8_
FNDA:4,_RNvMs0_NtCs9jqjLvUtoYr_15cuenv_buildkite6schemaNtB5_10AgentRules9from_tags
FNDA:2,_RNvXs_NtCs9jqjLvUtoYr_15cuenv_buildkite6schemaNtB4_8WaitStepNtNtCskzPJi2J8k3N_4core7default7Default7default
FNF:26
FNH:26
DA:121,3
DA:122,3
DA:123,3
DA:124,3
DA:125,3
DA:126,3
DA:127,3
DA:128,3
DA:129,3
DA:163,2
DA:164,2
DA:165,2
DA:166,2
DA:167,2
DA:168,2
DA:203,3
DA:204,3
DA:205,3
DA:206,3
DA:207,3
DA:208,3
DA:212,4
DA:213,4
DA:214,1
DA:215,3
DA:217,3
DA:218,3
DA:219,3
DA:220,3
DA:222,7
DA:223,4
DA:224,2
DA:225,1
DA:226,1
DA:227,1
DA:228,1
DA:229,2
DA:230,2
DA:231,2
DA:232,2
DA:235,3
DA:236,4
DA:315,1
DA:316,1
DA:317,1
DA:318,1
DA:319,1
DA:322,1
DA:323,1
DA:324,1
DA:325,1
DA:326,1
DA:327,1
DA:328,1
DA:329,1
DA:330,1
DA:331,1
DA:332,1
DA:333,1
DA:334,1
DA:335,1
DA:336,1
DA:339,1
DA:340,1
DA:341,1
DA:342,1
DA:343,1
DA:344,1
DA:345,1
DA:346,1
DA:347,1
DA:348,1
DA:349,1
DA:351,1
DA:352,1
DA:353,1
DA:354,1
DA:355,1
DA:358,1
DA:359,1
DA:360,1
DA:361,1
DA:362,1
DA:365,1
DA:366,1
DA:367,1
DA:368,1
DA:369,1
DA:370,1
DA:373,1
DA:374,1
DA:375,1
DA:376,1
DA:377,1
DA:378,1
DA:379,1
DA:380,1
DA:383,1
DA:384,1
DA:386,1
DA:387,1
DA:388,1
DA:389,1
DA:392,1
DA:393,1
DA:394,1
DA:395,1
DA:396,1
DA:397,1
DA:398,1
DA:399,1
DA:400,1
DA:401,1
DA:402,1
DA:403,1
DA:404,1
DA:407,1
DA:408,1
DA:409,1
DA:410,1
DA:411,1
DA:414,1
DA:415,1
DA:416,1
DA:417,1
DA:418,1
DA:419,1
DA:420,1
DA:421,1
DA:422,1
DA:425,1
DA:426,1
DA:427,1
DA:428,1
DA:429,1
DA:430,1
DA:431,1
DA:432,1
DA:433,1
DA:434,1
DA:435,1
DA:436,1
DA:437,1
DA:438,1
DA:439,1
DA:442,1
DA:443,1
DA:444,1
DA:445,1
DA:446,1
DA:449,1
DA:450,1
DA:451,1
DA:452,1
DA:455,1
DA:456,1
DA:457,1
DA:458,1
DA:460,1
DA:461,1
DA:462,1
DA:463,1
DA:464,1
DA:467,1
DA:468,1
DA:469,1
DA:470,1
DA:471,1
DA:472,1
DA:473,1
DA:476,1
DA:477,1
DA:478,1
DA:479,1
DA:480,1
DA:483,1
DA:484,1
DA:485,1
DA:486,1
DA:487,1
DA:488,1
DA:489,1
DA:490,1
DA:491,1
DA:494,1
DA:495,1
DA:496,1
DA:497,1
DA:498,1
DA:499,1
DA:500,1
DA:501,1
DA:502,1
DA:503,1
DA:504,1
DA:505,1
DA:506,1
DA:507,1
DA:510,1
DA:511,1
DA:512,1
DA:513,1
DA:514,1
DA:515,1
DA:516,1
DA:517,1
DA:518,1
DA:521,1
DA:522,1
DA:523,1
DA:524,1
DA:525,1
DA:526,1
DA:527,1
DA:528,1
DA:529,1
DA:530,1
DA:532,1
DA:533,1
DA:534,1
DA:535,1
DA:538,1
DA:539,1
DA:540,1
DA:541,1
DA:542,1
DA:543,1
DA:544,1
DA:545,1
DA:548,1
DA:549,1
DA:550,1
DA:551,1
DA:552,1
DA:553,1
DA:554,1
DA:555,1
DA:556,1
DA:557,1
DA:560,1
DA:561,1
DA:562,1
DA:563,1
DA:564,1
BRF:0
BRH:0
LF:244
LH:244
end_of_record
SF:/Users/rawkode/Code/src/github.com/cuenv/cuenv/crates/ci/src/affected.rs
FN:69,_RNCNvNtCskfEctF1MPvy_8cuenv_ci8affected22compute_affected_tasks0B5_
FN:88,_RNCNvNtCskfEctF1MPvy_8cuenv_ci8affected23matched_inputs_for_task0B5_
FN:150,_RNCNvNtCskfEctF1MPvy_8cuenv_ci8affected25check_external_dependency0B5_
FN:106,_RNCNvNtCskfEctF1MPvy_8cuenv_ci8affected25is_task_directly_affected0B5_
FN:193,_RNvNtCskfEctF1MPvy_8cuenv_ci8affected11matches_any
FN:8,_RNvNtCskfEctF1MPvy_8cuenv_ci8affected22compute_affected_tasks
FN:75,_RNvNtCskfEctF1MPvy_8cuenv_ci8affected23matched_inputs_for_task
FN:124,_RNvNtCskfEctF1MPvy_8cuenv_ci8affected25check_external_dependency
FN:96,_RNvNtCskfEctF1MPvy_8cuenv_ci8affected25is_task_directly_affected
FN:245,_RNvNtNtCsilPUL3AyWrc_8cuenv_ci8affected5tests12make_project
FN:256,_RNvNtNtCsilPUL3AyWrc_8cuenv_ci8affected5tests9make_task
FN:283,_RNvNtNtCsilPUL3AyWrc_8cuenv_ci8affected5testss_25test_matches_any_no_match
FN:343,_RNvNtNtCsilPUL3AyWrc_8cuenv_ci8affected5testss_27test_matches_any_empty_root
FN:351,_RNvNtNtCsilPUL3AyWrc_8cuenv_ci8affected5testss_28test_matches_any_empty_files
FN:292,_RNvNtNtCsilPUL3AyWrc_8cuenv_ci8affected5testss_29test_matches_any_glob_pattern
FN:315,_RNvNtNtCsilPUL3AyWrc_8cuenv_ci8affected5testss_35test_matches_any_glob_with_brackets
FN:445,_RNvNtNtCsilPUL3AyWrc_8cuenv_ci8affected5testss_36test_compute_affected_tasks_no_match
FN:649,_RNvNtNtCsilPUL3AyWrc_8cuenv_ci8affected5testss_36test_is_task_directly_affected_match
FN:273,_RNvNtNtCsilPUL3AyWrc_8cuenv_ci8affected5testss_36test_matches_any_simple_prefix_match
FN:324,_RNvNtNtCsilPUL3AyWrc_8cuenv_ci8affected5testss_36test_matches_any_with_absolute_paths
FN:384,_RNvNtNtCsilPUL3AyWrc_8cuenv_ci8affected5testss_37test_matched_inputs_for_task_no_match
FN:359,_RNvNtNtCsilPUL3AyWrc_8cuenv_ci8affected5testss_37test_matches_any_invalid_glob_pattern
FN:664,_RNvNtNtCsilPUL3AyWrc_8cuenv_ci8affected5testss_39test_is_task_directly_affected_no_match
FN:712,_RNvNtNtCsilPUL3AyWrc_8cuenv_ci8affected5testss_40test_check_external_dependency_cache_hit
FN:425,_RNvNtNtCsilPUL3AyWrc_8cuenv_ci8affected5testss_40test_compute_affected_tasks_direct_match
FN:306,_RNvNtNtCsilPUL3AyWrc_8cuenv_ci8affected5testss_40test_matches_any_glob_with_question_mark
FN:544,_RNvNtNtCsilPUL3AyWrc_8cuenv_ci8affected5testss_42test_compute_affected_tasks_empty_pipeline
FN:693,_RNvNtNtCsilPUL3AyWrc_8cuenv_ci8affected5testss_45test_is_task_directly_affected_task_no_inputs
FN:407,_RNvNtNtCsilPUL3AyWrc_8cuenv_ci8affected5testss_45test_matched_inputs_for_task_multiple_matches
FN:396,_RNvNtNtCsilPUL3AyWrc_8cuenv_ci8affected5testss_45test_matched_inputs_for_task_nonexistent_task
FN:333,_RNvNtNtCsilPUL3AyWrc_8cuenv_ci8affected5testss_45test_matches_any_relative_files_absolute_root
FN:725,_RNvNtNtCsilPUL3AyWrc_8cuenv_ci8affected5testss_47test_check_external_dependency_cache_miss_false
FN:679,_RNvNtNtCsilPUL3AyWrc_8cuenv_ci8affected5testss_47test_is_task_directly_affected_nonexistent_task
FN:750,_RNvNtNtCsilPUL3AyWrc_8cuenv_ci8affected5testss_48test_check_external_dependency_directly_affected
FN:738,_RNvNtNtCsilPUL3AyWrc_8cuenv_ci8affected5testss_48test_check_external_dependency_project_not_found
FN:586,_RNvNtNtCsilPUL3AyWrc_8cuenv_ci8affected5testss_49test_compute_affected_tasks_external_dep_affected
FN:814,_RNvNtNtCsilPUL3AyWrc_8cuenv_ci8affected5testss_50test_check_external_dependency_circular_prevention
FN:779,_RNvNtNtCsilPUL3AyWrc_8cuenv_ci8affected5testss_50test_check_external_dependency_transitive_internal
FN:564,_RNvNtNtCsilPUL3AyWrc_8cuenv_ci8affected5testss_50test_compute_affected_tasks_external_dep_not_found
FN:623,_RNvNtNtCsilPUL3AyWrc_8cuenv_ci8affected5testss_50test_compute_affected_tasks_malformed_external_dep
FN:488,_RNvNtNtCsilPUL3AyWrc_8cuenv_ci8affected5testss_52test_compute_affected_tasks_preserves_pipeline_order
FN:465,_RNvNtNtCsilPUL3AyWrc_8cuenv_ci8affected5testss_52test_compute_affected_tasks_transitive_internal_deps
FN:520,_RNvNtNtCsilPUL3AyWrc_8cuenv_ci8affected5testss_53test_compute_affected_tasks_only_affected_in_pipeline
FN:372,_RNvNtNtCsilPUL3AyWrc_8cuenv_ci8affected5testss_54test_matched_inputs_for_task_returns_matching_patterns
FN:69,_RNCNvNtCsilPUL3AyWrc_8cuenv_ci8affected22compute_affected_tasks0B5_
FN:88,_RNCNvNtCsilPUL3AyWrc_8cuenv_ci8affected23matched_inputs_for_task0B5_
FN:150,_RNCNvNtCsilPUL3AyWrc_8cuenv_ci8affected25check_external_dependency0B5_
FN:106,_RNCNvNtCsilPUL3AyWrc_8cuenv_ci8affected25is_task_directly_affected0B5_
FN:193,_RNvNtCsilPUL3AyWrc_8cuenv_ci8affected11matches_any
FN:8,_RNvNtCsilPUL3AyWrc_8cuenv_ci8affected22compute_affected_tasks
FN:75,_RNvNtCsilPUL3AyWrc_8cuenv_ci8affected23matched_inputs_for_task
FN:124,_RNvNtCsilPUL3AyWrc_8cuenv_ci8affected25check_external_dependency
FN:96,_RNvNtCsilPUL3AyWrc_8cuenv_ci8affected25is_task_directly_affected
FN:260,_RNCNvNtNtCsilPUL3AyWrc_8cuenv_ci8affected5tests9make_task0B7_
FNDA:0,_RNCNvNtCskfEctF1MPvy_8cuenv_ci8affected22compute_affected_tasks0B5_
FNDA:0,_RNCNvNtCskfEctF1MPvy_8cuenv_ci8affected23matched_inputs_for_task0B5_
FNDA:0,_RNCNvNtCskfEctF1MPvy_8cuenv_ci8affected25check_external_dependency0B5_
FNDA:0,_RNCNvNtCskfEctF1MPvy_8cuenv_ci8affected25is_task_directly_affected0B5_
FNDA:0,_RNvNtCskfEctF1MPvy_8cuenv_ci8affected11matches_any
FNDA:0,_RNvNtCskfEctF1MPvy_8cuenv_ci8affected22compute_affected_tasks
FNDA:0,_RNvNtCskfEctF1MPvy_8cuenv_ci8affected23matched_inputs_for_task
FNDA:0,_RNvNtCskfEctF1MPvy_8cuenv_ci8affected25check_external_dependency
FNDA:0,_RNvNtCskfEctF1MPvy_8cuenv_ci8affected25is_task_directly_affected
FNDA:15,_RNvNtNtCsilPUL3AyWrc_8cuenv_ci8affected5tests12make_project
FNDA:24,_RNvNtNtCsilPUL3AyWrc_8cuenv_ci8affected5tests9make_task
FNDA:1,_RNvNtNtCsilPUL3AyWrc_8cuenv_ci8affected5testss_25test_matches_any_no_match
FNDA:1,_RNvNtNtCsilPUL3AyWrc_8cuenv_ci8affected5testss_27test_matches_any_empty_root
FNDA:1,_RNvNtNtCsilPUL3AyWrc_8cuenv_ci8affected5testss_28test_matches_any_empty_files
FNDA:1,_RNvNtNtCsilPUL3AyWrc_8cuenv_ci8affected5testss_29test_matches_any_glob_pattern
FNDA:1,_RNvNtNtCsilPUL3AyWrc_8cuenv_ci8affected5testss_35test_matches_any_glob_with_brackets
FNDA:1,_RNvNtNtCsilPUL3AyWrc_8cuenv_ci8affected5testss_36test_compute_affected_tasks_no_match
FNDA:1,_RNvNtNtCsilPUL3AyWrc_8cuenv_ci8affected5testss_36test_is_task_directly_affected_match
FNDA:1,_RNvNtNtCsilPUL3AyWrc_8cuenv_ci8affected5testss_36test_matches_any_simple_prefix_match
FNDA:1,_RNvNtNtCsilPUL3AyWrc_8cuenv_ci8affected5testss_36test_matches_any_with_absolute_paths
FNDA:1,_RNvNtNtCsilPUL3AyWrc_8cuenv_ci8affected5testss_37test_matched_inputs_for_task_no_match
FNDA:1,_RNvNtNtCsilPUL3AyWrc_8cuenv_ci8affected5testss_37test_matches_any_invalid_glob_pattern
FNDA:1,_RNvNtNtCsilPUL3AyWrc_8cuenv_ci8affected5testss_39test_is_task_directly_affected_no_match
FNDA:1,_RNvNtNtCsilPUL3AyWrc_8cuenv_ci8affected5testss_40test_check_external_dependency_cache_hit
FNDA:1,_RNvNtNtCsilPUL3AyWrc_8cuenv_ci8affected5testss_40test_compute_affected_tasks_direct_match
FNDA:1,_RNvNtNtCsilPUL3AyWrc_8cuenv_ci8affected5testss_40test_matches_any_glob_with_question_mark
FNDA:1,_RNvNtNtCsilPUL3AyWrc_8cuenv_ci8affected5testss_42test_compute_affected_tasks_empty_pipeline
FNDA:1,_RNvNtNtCsilPUL3AyWrc_8cuenv_ci8affected5testss_45test_is_task_directly_affected_task_no_inputs
FNDA:1,_RNvNtNtCsilPUL3AyWrc_8cuenv_ci8affected5testss_45test_matched_inputs_for_task_multiple_matches
FNDA:1,_RNvNtNtCsilPUL3AyWrc_8cuenv_ci8affected5testss_45test_matched_inputs_for_task_nonexistent_task
FNDA:1,_RNvNtNtCsilPUL3AyWrc_8cuenv_ci8affected5testss_45test_matches_any_relative_files_absolute_root
FNDA:1,_RNvNtNtCsilPUL3AyWrc_8cuenv_ci8affected5testss_47test_check_external_dependency_cache_miss_false
FNDA:1,_RNvNtNtCsilPUL3AyWrc_8cuenv_ci8affected5testss_47test_is_task_directly_affected_nonexistent_task
FNDA:1,_RNvNtNtCsilPUL3AyWrc_8cuenv_ci8affected5testss_48test_check_external_dependency_directly_affected
FNDA:1,_RNvNtNtCsilPUL3AyWrc_8cuenv_ci8affected5testss_48test_check_external_dependency_project_not_found
FNDA:1,_RNvNtNtCsilPUL3AyWrc_8cuenv_ci8affected5testss_49test_compute_affected_tasks_external_dep_affected
FNDA:1,_RNvNtNtCsilPUL3AyWrc_8cuenv_ci8affected5testss_50test_check_external_dependency_circular_prevention
FNDA:1,_RNvNtNtCsilPUL3AyWrc_8cuenv_ci8affected5testss_50test_check_external_dependency_transitive_internal
FNDA:1,_RNvNtNtCsilPUL3AyWrc_8cuenv_ci8affected5testss_50test_compute_affected_tasks_external_dep_not_found
FNDA:1,_RNvNtNtCsilPUL3AyWrc_8cuenv_ci8affected5testss_50test_compute_affected_tasks_malformed_external_dep
FNDA:1,_RNvNtNtCsilPUL3AyWrc_8cuenv_ci8affected5testss_52test_compute_affected_tasks_preserves_pipeline_order
FNDA:1,_RNvNtNtCsilPUL3AyWrc_8cuenv_ci8affected5testss_52test_compute_affected_tasks_transitive_internal_deps
FNDA:1,_RNvNtNtCsilPUL3AyWrc_8cuenv_ci8affected5testss_53test_compute_affected_tasks_only_affected_in_pipeline
FNDA:1,_RNvNtNtCsilPUL3AyWrc_8cuenv_ci8affected5testss_54test_matched_inputs_for_task_returns_matching_patterns
FNDA:11,_RNCNvNtCsilPUL3AyWrc_8cuenv_ci8affected22compute_affected_tasks0B5_
FNDA:6,_RNCNvNtCsilPUL3AyWrc_8cuenv_ci8affected23matched_inputs_for_task0B5_
FNDA:0,_RNCNvNtCsilPUL3AyWrc_8cuenv_ci8affected25check_external_dependency0B5_
FNDA:10,_RNCNvNtCsilPUL3AyWrc_8cuenv_ci8affected25is_task_directly_affected0B5_
FNDA:34,_RNvNtCsilPUL3AyWrc_8cuenv_ci8affected11matches_any
FNDA:9,_RNvNtCsilPUL3AyWrc_8cuenv_ci8affected22compute_affected_tasks
FNDA:4,_RNvNtCsilPUL3AyWrc_8cuenv_ci8affected23matched_inputs_for_task
FNDA:11,_RNvNtCsilPUL3AyWrc_8cuenv_ci8affected25check_external_dependency
FNDA:20,_RNvNtCsilPUL3AyWrc_8cuenv_ci8affected25is_task_directly_affected
FNDA:17,_RNCNvNtNtCsilPUL3AyWrc_8cuenv_ci8affected5tests9make_task0B7_
FNF:45
FNH:44
DA:8,9
DA:9,9
DA:10,9
DA:11,9
DA:12,9
DA:13,9
DA:14,9
DA:15,9
DA:16,9
DA:19,20
DA:20,11
DA:21,4
DA:22,7
DA:27,9
DA:28,21
DA:29,12
DA:30,29
DA:31,17
DA:32,10
DA:33,7
DA:35,7
DA:36,7
DA:37,7
DA:39,8
DA:41,6
DA:42,3
DA:43,3
DA:44,3
DA:45,3
DA:46,0
DA:47,0
DA:48,3
DA:51,3
DA:52,3
DA:53,3
DA:54,3
DA:55,3
DA:57,1
DA:58,1
DA:59,1
DA:60,2
DA:62,1
DA:67,9
DA:68,9
DA:69,11
DA:70,9
DA:71,9
DA:72,9
DA:75,4
DA:76,4
DA:77,4
DA:78,4
DA:79,4
DA:80,4
DA:81,4
DA:82,1
DA:84,3
DA:85,0
DA:87,3
DA:88,6
DA:89,3
DA:90,3
DA:91,4
DA:96,20
DA:97,20
DA:98,20
DA:99,20
DA:100,20
DA:101,20
DA:102,20
DA:103,19
DA:105,19
DA:106,19
DA:108,1
DA:110,20
DA:124,11
DA:125,11
DA:126,11
DA:127,11
DA:128,11
DA:129,11
DA:131,11
DA:132,3
DA:133,8
DA:137,8
DA:139,8
DA:140,8
DA:141,1
DA:142,7
DA:143,7
DA:144,7
DA:146,7
DA:147,2
DA:150,5
DA:153,5
DA:154,3
DA:155,3
DA:156,2
DA:159,2
DA:160,2
DA:162,3
DA:163,2
DA:165,1
DA:166,0
DA:167,0
DA:168,1
DA:173,1
DA:174,1
DA:175,1
DA:176,1
DA:177,0
DA:180,0
DA:182,1
DA:183,11
DA:193,34
DA:196,34
DA:198,51
DA:204,39
DA:205,33
DA:206,6
DA:208,4
DA:210,2
DA:211,2
DA:212,0
DA:216,39
DA:219,12
DA:220,12
DA:221,7
DA:222,5
DA:225,27
DA:226,1
DA:227,1
DA:229,26
DA:230,15
DA:231,11
DA:235,12
DA:236,34
DA:245,15
DA:246,15
DA:247,34
DA:248,19
DA:249,19
DA:250,19
DA:251,19
DA:252,15
DA:253,15
DA:256,24
DA:258,24
DA:259,24
DA:260,24
DA:261,24
DA:262,24
DA:263,24
DA:264,24
DA:266,24
DA:273,1
DA:274,1
DA:275,1
DA:277,1
DA:278,1
DA:279,1
DA:280,1
DA:283,1
DA:284,1
DA:285,1
DA:287,1
DA:288,1
DA:289,1
DA:292,1
DA:293,1
DA:294,1
DA:295,1
DA:296,1
DA:298,1
DA:300,1
DA:301,1
DA:302,1
DA:303,1
DA:306,1
DA:307,1
DA:308,1
DA:310,1
DA:311,1
DA:312,1
DA:315,1
DA:316,1
DA:317,1
DA:319,1
DA:320,1
DA:321,1
DA:324,1
DA:325,1
DA:326,1
DA:328,1
DA:329,1
DA:330,1
DA:333,1
DA:335,1
DA:336,1
DA:339,1
DA:340,1
DA:343,1
DA:344,1
DA:345,1
DA:347,1
DA:348,1
DA:351,1
DA:352,1
DA:353,1
DA:355,1
DA:356,1
DA:359,1
DA:360,1
DA:361,1
DA:364,1
DA:365,1
DA:372,1
DA:373,1
DA:374,1
DA:375,1
DA:376,1
DA:378,1
DA:380,1
DA:381,1
DA:384,1
DA:385,1
DA:386,1
DA:387,1
DA:388,1
DA:390,1
DA:392,1
DA:393,1
DA:396,1
DA:397,1
DA:398,1
DA:399,1
DA:401,1
DA:403,1
DA:404,1
DA:407,1
DA:408,1
DA:409,1
DA:410,1
DA:411,1
DA:413,1
DA:415,1
DA:416,1
DA:417,1
DA:418,1
DA:425,1
DA:426,1
DA:427,1
DA:428,1
DA:429,1
DA:430,1
DA:431,1
DA:433,1
DA:434,1
DA:435,1
DA:436,1
DA:437,1
DA:438,1
DA:441,1
DA:442,1
DA:445,1
DA:446,1
DA:447,1
DA:448,1
DA:449,1
DA:450,1
DA:451,1
DA:453,1
DA:454,1
DA:455,1
DA:456,1
DA:457,1
DA:458,1
DA:461,1
DA:462,1
DA:465,1
DA:467,1
DA:468,1
DA:469,1
DA:470,1
DA:471,1
DA:472,1
DA:473,1
DA:475,1
DA:476,1
DA:477,1
DA:478,1
DA:479,1
DA:480,1
DA:483,1
DA:484,1
DA:485,1
DA:488,1
DA:489,1
DA:490,1
DA:491,1
DA:492,1
DA:493,1
DA:494,1
DA:495,1
DA:497,1
DA:498,1
DA:500,1
DA:501,1
DA:502,1
DA:503,1
DA:505,1
DA:507,1
DA:508,1
DA:509,1
DA:510,1
DA:511,1
DA:512,1
DA:516,1
DA:517,1
DA:520,1
DA:522,1
DA:523,1
DA:524,1
DA:525,1
DA:526,1
DA:528,1
DA:529,1
DA:531,1
DA:532,1
DA:533,1
DA:534,1
DA:535,1
DA:536,1
DA:540,1
DA:541,1
DA:544,1
DA:545,1
DA:546,1
DA:547,1
DA:548,1
DA:549,1
DA:550,1
DA:552,1
DA:553,1
DA:554,1
DA:555,1
DA:556,1
DA:557,1
DA:560,1
DA:561,1
DA:564,1
DA:566,1
DA:567,1
DA:568,1
DA:569,1
DA:570,1
DA:571,1
DA:573,1
DA:574,1
DA:575,1
DA:576,1
DA:577,1
DA:578,1
DA:582,1
DA:583,1
DA:586,1
DA:588,1
DA:589,1
DA:590,1
DA:591,1
DA:592,1
DA:595,1
DA:596,1
DA:598,1
DA:599,1
DA:600,1
DA:602,1
DA:603,1
DA:604,1
DA:605,1
DA:606,1
DA:607,1
DA:608,1
DA:609,1
DA:611,1
DA:612,1
DA:613,1
DA:614,1
DA:615,1
DA:616,1
DA:619,1
DA:620,1
DA:623,1
DA:625,1
DA:626,1
DA:627,1
DA:628,1
DA:629,1
DA:630,1
DA:632,1
DA:633,1
DA:634,1
DA:635,1
DA:636,1
DA:637,1
DA:641,1
DA:642,1
DA:649,1
DA:650,1
DA:651,1
DA:652,1
DA:653,1
DA:655,1
DA:656,1
DA:657,1
DA:658,1
DA:659,1
DA:661,1
DA:664,1
DA:665,1
DA:666,1
DA:667,1
DA:668,1
DA:670,1
DA:671,1
DA:672,1
DA:673,1
DA:674,1
DA:675,1
DA:676,1
DA:679,1
DA:680,1
DA:681,1
DA:682,1
DA:684,1
DA:685,1
DA:686,1
DA:687,1
DA:688,1
DA:689,1
DA:690,1
DA:693,1
DA:694,1
DA:695,1
DA:696,1
DA:697,1
DA:699,1
DA:700,1
DA:701,1
DA:702,1
DA:703,1
DA:704,1
DA:705,1
DA:712,1
DA:713,1
DA:714,1
DA:715,1
DA:716,1
DA:718,1
DA:719,1
DA:721,1
DA:722,1
DA:725,1
DA:726,1
DA:727,1
DA:728,1
DA:729,1
DA:731,1
DA:732,1
DA:734,1
DA:735,1
DA:738,1
DA:739,1
DA:740,1
DA:741,1
DA:743,1
DA:744,1
DA:746,1
DA:747,1
DA:750,1
DA:751,1
DA:752,1
DA:753,1
DA:754,1
DA:755,1
DA:758,1
DA:759,1
DA:760,1
DA:761,1
DA:762,1
DA:763,1
DA:765,1
DA:766,1
DA:768,1
DA:769,1
DA:771,1
DA:772,1
DA:774,1
DA:775,1
DA:776,1
DA:779,1
DA:782,1
DA:783,1
DA:784,1
DA:785,1
DA:786,1
DA:787,1
DA:789,1
DA:790,1
DA:791,1
DA:794,1
DA:795,1
DA:796,1
DA:797,1
DA:798,1
DA:799,1
DA:801,1
DA:802,1
DA:804,1
DA:805,1
DA:807,1
DA:808,1
DA:810,1
DA:811,1
DA:814,1
DA:816,1
DA:817,1
DA:818,1
DA:819,1
DA:820,1
DA:823,1
DA:824,1
DA:825,1
DA:826,1
DA:827,1
DA:828,1
DA:830,1
DA:831,1
DA:833,1
DA:834,1
DA:837,1
DA:838,1
DA:840,1
DA:841,1
BRF:0
BRH:0
LF:549
LH:540
end_of_record
SF:/Users/rawkode/Code/src/github.com/cuenv/cuenv/crates/ci/src/compiler/digest.rs
FN:51,_RNvMNtNtCskfEctF1MPvy_8cuenv_ci8compiler6digestNtB2_13DigestBuilder10add_inputs
FN:28,_RNvMNtNtCskfEctF1MPvy_8cuenv_ci8compiler6digestNtB2_13DigestBuilder11add_command
FN:60,_RNvMNtNtCskfEctF1MPvy_8cuenv_ci8compiler6digestNtB2_13DigestBuilder11add_runtime
FN:98,_RNvMNtNtCskfEctF1MPvy_8cuenv_ci8compiler6digestNtB2_13DigestBuilder17add_impurity_uuid
FN:75,_RNvMNtNtCskfEctF1MPvy_8cuenv_ci8compiler6digestNtB2_13DigestBuilder23add_secret_fingerprints
FN:21,_RNvMNtNtCskfEctF1MPvy_8cuenv_ci8compiler6digestNtB2_13DigestBuilder3new
FN:37,_RNvMNtNtCskfEctF1MPvy_8cuenv_ci8compiler6digestNtB2_13DigestBuilder7add_env
FN:107,_RNvMNtNtCskfEctF1MPvy_8cuenv_ci8compiler6digestNtB2_13DigestBuilder8finalize
FN:121,_RNvNtNtCskfEctF1MPvy_8cuenv_ci8compiler6digest19compute_task_digest
FN:114,_RNvXs_NtNtCskfEctF1MPvy_8cuenv_ci8compiler6digestNtB4_13DigestBuilderNtNtCskzPJi2J8k3N_4core7default7Default7default
FN:60,_RNvMNtNtCsilPUL3AyWrc_8cuenv_ci8compiler6digestNtB2_13DigestBuilder11add_runtime
FN:114,_RNvXs_NtNtCsilPUL3AyWrc_8cuenv_ci8compiler6digestNtB4_13DigestBuilderNtNtCskzPJi2J8k3N_4core7default7Default7default
FN:332,_RNCNCNvNtNtNtCsilPUL3AyWrc_8cuenv_ci8compiler6digest14proptest_testss_23env_order_is_irrelevants_00Bb_
FN:249,_RNvNtNtNtCsilPUL3AyWrc_8cuenv_ci8compiler6digest5testss_18test_impurity_uuid
FN:210,_RNvNtNtNtCsilPUL3AyWrc_8cuenv_ci8compiler6digest5testss_24test_secret_fingerprints
FN:153,_RNvNtNtNtCsilPUL3AyWrc_8cuenv_ci8compiler6digest5testss_25test_digest_deterministic
FN:177,_RNvNtNtNtCsilPUL3AyWrc_8cuenv_ci8compiler6digest5testss_28test_digest_changes_with_env
FN:166,_RNvNtNtNtCsilPUL3AyWrc_8cuenv_ci8compiler6digest5testss_32test_digest_changes_with_command
FN:191,_RNvNtNtNtCsilPUL3AyWrc_8cuenv_ci8compiler6digest5testss_33test_digest_env_order_independent
FN:232,_RNvNtNtNtCsilPUL3AyWrc_8cuenv_ci8compiler6digest5testss_38test_secret_fingerprints_deterministic
FN:51,_RNvMNtNtCsilPUL3AyWrc_8cuenv_ci8compiler6digestNtB2_13DigestBuilder10add_inputs
FN:28,_RNvMNtNtCsilPUL3AyWrc_8cuenv_ci8compiler6digestNtB2_13DigestBuilder11add_command
FN:98,_RNvMNtNtCsilPUL3AyWrc_8cuenv_ci8compiler6digestNtB2_13DigestBuilder17add_impurity_uuid
FN:75,_RNvMNtNtCsilPUL3AyWrc_8cuenv_ci8compiler6digestNtB2_13DigestBuilder23add_secret_fingerprints
FN:21,_RNvMNtNtCsilPUL3AyWrc_8cuenv_ci8compiler6digestNtB2_13DigestBuilder3new
FN:37,_RNvMNtNtCsilPUL3AyWrc_8cuenv_ci8compiler6digestNtB2_13DigestBuilder7add_env
FN:107,_RNvMNtNtCsilPUL3AyWrc_8cuenv_ci8compiler6digestNtB2_13DigestBuilder8finalize
FN:121,_RNvNtNtCsilPUL3AyWrc_8cuenv_ci8compiler6digest19compute_task_digest
FNDA:0,_RNvMNtNtCskfEctF1MPvy_8cuenv_ci8compiler6digestNtB2_13DigestBuilder10add_inputs
FNDA:0,_RNvMNtNtCskfEctF1MPvy_8cuenv_ci8compiler6digestNtB2_13DigestBuilder11add_command
FNDA:0,_RNvMNtNtCskfEctF1MPvy_8cuenv_ci8compiler6digestNtB2_13DigestBuilder11add_runtime
FNDA:0,_RNvMNtNtCskfEctF1MPvy_8cuenv_ci8compiler6digestNtB2_13DigestBuilder17add_impurity_uuid
FNDA:0,_RNvMNtNtCskfEctF1MPvy_8cuenv_ci8compiler6digestNtB2_13DigestBuilder23add_secret_fingerprints
FNDA:0,_RNvMNtNtCskfEctF1MPvy_8cuenv_ci8compiler6digestNtB2_13DigestBuilder3new
FNDA:0,_RNvMNtNtCskfEctF1MPvy_8cuenv_ci8compiler6digestNtB2_13DigestBuilder7add_env
FNDA:0,_RNvMNtNtCskfEctF1MPvy_8cuenv_ci8compiler6digestNtB2_13DigestBuilder8finalize
FNDA:0,_RNvNtNtCskfEctF1MPvy_8cuenv_ci8compiler6digest19compute_task_digest
FNDA:0,_RNvXs_NtNtCskfEctF1MPvy_8cuenv_ci8compiler6digestNtB4_13DigestBuilderNtNtCskzPJi2J8k3N_4core7default7Default7default
FNDA:0,_RNvMNtNtCsilPUL3AyWrc_8cuenv_ci8compiler6digestNtB2_13DigestBuilder11add_runtime
FNDA:0,_RNvXs_NtNtCsilPUL3AyWrc_8cuenv_ci8compiler6digestNtB4_13DigestBuilderNtNtCskzPJi2J8k3N_4core7default7Default7default
FNDA:770,_RNCNCNvNtNtNtCsilPUL3AyWrc_8cuenv_ci8compiler6digest14proptest_testss_23env_order_is_irrelevants_00Bb_
FNDA:1,_RNvNtNtNtCsilPUL3AyWrc_8cuenv_ci8compiler6digest5testss_18test_impurity_uuid
FNDA:1,_RNvNtNtNtCsilPUL3AyWrc_8cuenv_ci8compiler6digest5testss_24test_secret_fingerprints
FNDA:1,_RNvNtNtNtCsilPUL3AyWrc_8cuenv_ci8compiler6digest5testss_25test_digest_deterministic
FNDA:1,_RNvNtNtNtCsilPUL3AyWrc_8cuenv_ci8compiler6digest5testss_28test_digest_changes_with_env
FNDA:1,_RNvNtNtNtCsilPUL3AyWrc_8cuenv_ci8compiler6digest5testss_32test_digest_changes_with_command
FNDA:1,_RNvNtNtNtCsilPUL3AyWrc_8cuenv_ci8compiler6digest5testss_33test_digest_env_order_independent
FNDA:1,_RNvNtNtNtCsilPUL3AyWrc_8cuenv_ci8compiler6digest5testss_38test_secret_fingerprints_deterministic
FNDA:2323,_RNvMNtNtCsilPUL3AyWrc_8cuenv_ci8compiler6digestNtB2_13DigestBuilder10add_inputs
FNDA:2319,_RNvMNtNtCsilPUL3AyWrc_8cuenv_ci8compiler6digestNtB2_13DigestBuilder11add_command
FNDA:4,_RNvMNtNtCsilPUL3AyWrc_8cuenv_ci8compiler6digestNtB2_13DigestBuilder17add_impurity_uuid
FNDA:4,_RNvMNtNtCsilPUL3AyWrc_8cuenv_ci8compiler6digestNtB2_13DigestBuilder23add_secret_fingerprints
FNDA:2323,_RNvMNtNtCsilPUL3AyWrc_8cuenv_ci8compiler6digestNtB2_13DigestBuilder3new
FNDA:2317,_RNvMNtNtCsilPUL3AyWrc_8cuenv_ci8compiler6digestNtB2_13DigestBuilder7add_env
FNDA:2323,_RNvMNtNtCsilPUL3AyWrc_8cuenv_ci8compiler6digestNtB2_13DigestBuilder8finalize
FNDA:2317,_RNvNtNtCsilPUL3AyWrc_8cuenv_ci8compiler6digest19compute_task_digest
FNF:18
FNH:16
DA:21,2323
DA:22,2323
DA:23,2323
DA:24,2323
DA:25,2323
DA:28,2319
DA:29,5584
DA:30,3265
DA:31,3265
DA:32,3265
DA:33,2319
DA:34,2319
DA:37,2317
DA:39,2317
DA:41,4889
DA:42,2572
DA:43,2572
DA:44,2572
DA:45,2572
DA:46,2572
DA:47,2317
DA:48,2317
DA:51,2323
DA:52,2331
DA:53,8
DA:54,8
DA:55,8
DA:56,2323
DA:57,2323
DA:60,0
DA:61,0
DA:62,0
DA:63,0
DA:64,0
DA:65,0
DA:66,0
DA:67,0
DA:68,0
DA:75,4
DA:76,4
DA:77,4
DA:78,4
DA:79,4
DA:81,4
DA:83,8
DA:84,4
DA:85,4
DA:86,4
DA:87,4
DA:88,4
DA:89,4
DA:90,4
DA:91,4
DA:92,4
DA:93,4
DA:94,4
DA:95,4
DA:98,4
DA:99,4
DA:100,4
DA:101,4
DA:102,4
DA:103,4
DA:107,2323
DA:108,2323
DA:109,2323
DA:110,2323
DA:114,0
DA:115,0
DA:116,0
DA:121,2317
DA:122,2317
DA:123,2317
DA:124,2317
DA:125,2317
DA:126,2317
DA:127,2317
DA:128,2317
DA:129,2317
DA:131,2317
DA:132,2317
DA:133,2317
DA:135,2317
DA:136,0
DA:137,2317
DA:139,2317
DA:140,4
DA:141,4
DA:142,4
DA:143,2313
DA:145,2317
DA:146,2317
DA:153,1
DA:154,1
DA:155,1
DA:156,1
DA:158,1
DA:159,1
DA:161,1
DA:162,1
DA:163,1
DA:166,1
DA:167,1
DA:168,1
DA:170,1
DA:171,1
DA:173,1
DA:174,1
DA:177,1
DA:178,1
DA:179,1
DA:181,1
DA:182,1
DA:184,1
DA:185,1
DA:187,1
DA:188,1
DA:191,1
DA:192,1
DA:193,1
DA:195,1
DA:196,1
DA:197,1
DA:199,1
DA:200,1
DA:201,1
DA:203,1
DA:204,1
DA:206,1
DA:207,1
DA:210,1
DA:211,1
DA:212,1
DA:213,1
DA:215,1
DA:216,1
DA:218,1
DA:219,1
DA:222,1
DA:224,1
DA:225,1
DA:228,1
DA:229,1
DA:232,1
DA:233,1
DA:234,1
DA:235,1
DA:237,1
DA:238,1
DA:240,1
DA:241,1
DA:242,1
DA:243,1
DA:245,1
DA:246,1
DA:249,1
DA:250,1
DA:251,1
DA:252,1
DA:253,1
DA:255,1
DA:256,1
DA:257,1
DA:258,1
DA:260,1
DA:261,1
DA:332,770
BRF:0
BRH:0
LF:167
LH:154
end_of_record
SF:/Users/rawkode/Code/src/github.com/cuenv/cuenv/crates/ci/src/compiler/mod.rs
FN:269,_RINvMs_NtCskfEctF1MPvy_8cuenv_ci8compilerNtB5_8Compiler15compute_runtimeppppEB7_
FN:138,_RNvMs_NtCskfEctF1MPvy_8cuenv_ci8compilerNtB4_8Compiler12with_options
FN:508,_RNvMs_NtCskfEctF1MPvy_8cuenv_ci8compilerNtB4_8Compiler13compile_tasks
FN:1014,_RNvMs_NtCskfEctF1MPvy_8cuenv_ci8compilerNtB4_8Compiler15has_task_labels
FN:881,_RNvMs_NtCskfEctF1MPvy_8cuenv_ci8compilerNtB4_8Compiler16get_runtime_type
FN:980,_RNvMs_NtCskfEctF1MPvy_8cuenv_ci8compilerNtB4_8Compiler16has_task_command
FN:1043,_RNvMs_NtCskfEctF1MPvy_8cuenv_ci8compilerNtB4_8Compiler16phase_task_to_ir
FN:194,_RNvMs_NtCskfEctF1MPvy_8cuenv_ci8compilerNtB4_8Compiler17apply_purity_mode
FN:543,_RNvMs_NtCskfEctF1MPvy_8cuenv_ci8compilerNtB4_8Compiler18compile_task_group
FN:475,_RNvMs_NtCskfEctF1MPvy_8cuenv_ci8compilerNtB4_8Compiler19collect_task_inputs
FN:571,_RNvMs_NtCskfEctF1MPvy_8cuenv_ci8compilerNtB4_8Compiler19compile_single_task
FN:937,_RNvMs_NtCskfEctF1MPvy_8cuenv_ci8compilerNtB4_8Compiler19has_provider_config
FN:152,_RNvMs_NtCskfEctF1MPvy_8cuenv_ci8compilerNtB4_8Compiler20analyze_flake_purity
FN:425,_RNvMs_NtCskfEctF1MPvy_8cuenv_ci8compilerNtB4_8Compiler20derive_trigger_paths
FN:893,_RNvMs_NtCskfEctF1MPvy_8cuenv_ci8compilerNtB4_8Compiler20has_secrets_provider
FN:1033,_RNvMs_NtCskfEctF1MPvy_8cuenv_ci8compilerNtB4_8Compiler21cue_build_phase_to_ir
FN:708,_RNvMs_NtCskfEctF1MPvy_8cuenv_ci8compilerNtB4_8Compiler22apply_cue_contributors
FN:179,_RNvMs_NtCskfEctF1MPvy_8cuenv_ci8compilerNtB4_8Compiler22perform_flake_analysis
FN:349,_RNvMs_NtCskfEctF1MPvy_8cuenv_ci8compilerNtB4_8Compiler23build_trigger_condition
FN:524,_RNvMs_NtCskfEctF1MPvy_8cuenv_ci8compilerNtB4_8Compiler23compile_task_definition
FN:163,_RNvMs_NtCskfEctF1MPvy_8cuenv_ci8compilerNtB4_8Compiler23resolve_flake_lock_path
FN:745,_RNvMs_NtCskfEctF1MPvy_8cuenv_ci8compilerNtB4_8Compiler25cue_contributor_is_active
FN:854,_RNvMs_NtCskfEctF1MPvy_8cuenv_ci8compilerNtB4_8Compiler25detect_workspace_managers
FN:673,_RNvMs_NtCskfEctF1MPvy_8cuenv_ci8compilerNtB4_8Compiler27fix_artifact_download_paths
FN:129,_RNvMs_NtCskfEctF1MPvy_8cuenv_ci8compilerNtB4_8Compiler3new
FN:300,_RNvMs_NtCskfEctF1MPvy_8cuenv_ci8compilerNtB4_8Compiler7compile
FN:489,_RNvMs_NtCskfEctF1MPvy_8cuenv_ci8compilerNtB4_8Compiler9find_task
FN:110,_RNvXNtCskfEctF1MPvy_8cuenv_ci8compilerNtB2_15CompilerOptionsNtNtCskzPJi2J8k3N_4core3fmt5Debug3fmt
FN:1088,_RNCNCNCNvMs_NtCskfEctF1MPvy_8cuenv_ci8compilerNtBa_8Compiler16phase_task_to_irs_000Bc_
FN:1076,_RNCNCNvMs_NtCskfEctF1MPvy_8cuenv_ci8compilerNtB8_8Compiler16phase_task_to_irs_00Ba_
FN:595,_RNCNCNvMs_NtCskfEctF1MPvy_8cuenv_ci8compilerNtB8_8Compiler19compile_single_task00Ba_
FN:380,_RNCNCNvMs_NtCskfEctF1MPvy_8cuenv_ci8compilerNtB8_8Compiler23build_trigger_conditions3_00Ba_
FN:682,_RNCNCNvMs_NtCskfEctF1MPvy_8cuenv_ci8compilerNtB8_8Compiler27fix_artifact_download_paths00Ba_
FN:1022,_RNCNvMs_NtCskfEctF1MPvy_8cuenv_ci8compilerNtB6_8Compiler15has_task_labels0B8_
FN:995,_RNCNvMs_NtCskfEctF1MPvy_8cuenv_ci8compilerNtB6_8Compiler16has_task_command0B8_
FN:1059,_RNCNvMs_NtCskfEctF1MPvy_8cuenv_ci8compilerNtB6_8Compiler16phase_task_to_ir0B8_
FN:1112,_RNCNvMs_NtCskfEctF1MPvy_8cuenv_ci8compilerNtB6_8Compiler16phase_task_to_irs0_0B8_
FN:1075,_RNCNvMs_NtCskfEctF1MPvy_8cuenv_ci8compilerNtB6_8Compiler16phase_task_to_irs_0B8_
FN:204,_RNCNvMs_NtCskfEctF1MPvy_8cuenv_ci8compilerNtB6_8Compiler17apply_purity_mode0B8_
FN:595,_RNCNvMs_NtCskfEctF1MPvy_8cuenv_ci8compilerNtB6_8Compiler19compile_single_task0B8_
FN:622,_RNCNvMs_NtCskfEctF1MPvy_8cuenv_ci8compilerNtB6_8Compiler19compile_single_tasks0_0B8_
FN:614,_RNCNvMs_NtCskfEctF1MPvy_8cuenv_ci8compilerNtB6_8Compiler19compile_single_tasks_0B8_
FN:905,_RNCNvMs_NtCskfEctF1MPvy_8cuenv_ci8compilerNtB6_8Compiler20has_secrets_provider0B8_
FN:727,_RNCNvMs_NtCskfEctF1MPvy_8cuenv_ci8compilerNtB6_8Compiler22apply_cue_contributors0B8_
FN:354,_RNCNvMs_NtCskfEctF1MPvy_8cuenv_ci8compilerNtB6_8Compiler23build_trigger_condition0B8_
FN:363,_RNCNvMs_NtCskfEctF1MPvy_8cuenv_ci8compilerNtB6_8Compiler23build_trigger_conditions0_0B8_
FN:368,_RNCNvMs_NtCskfEctF1MPvy_8cuenv_ci8compilerNtB6_8Compiler23build_trigger_conditions1_0B8_
FN:371,_RNCNvMs_NtCskfEctF1MPvy_8cuenv_ci8compilerNtB6_8Compiler23build_trigger_conditions2_0B8_
FN:371,_RNCNvMs_NtCskfEctF1MPvy_8cuenv_ci8compilerNtB6_8Compiler23build_trigger_conditions3_0B8_
FN:397,_RNCNvMs_NtCskfEctF1MPvy_8cuenv_ci8compilerNtB6_8Compiler23build_trigger_conditions4_0B8_
FN:764,_RNCNvMs_NtCskfEctF1MPvy_8cuenv_ci8compilerNtB6_8Compiler25cue_contributor_is_active0B8_
FN:780,_RNCNvMs_NtCskfEctF1MPvy_8cuenv_ci8compilerNtB6_8Compiler25cue_contributor_is_actives0_0B8_
FN:781,_RNCNvMs_NtCskfEctF1MPvy_8cuenv_ci8compilerNtB6_8Compiler25cue_contributor_is_actives1_0B8_
FN:782,_RNCNvMs_NtCskfEctF1MPvy_8cuenv_ci8compilerNtB6_8Compiler25cue_contributor_is_actives2_0B8_
FN:821,_RNCNvMs_NtCskfEctF1MPvy_8cuenv_ci8compilerNtB6_8Compiler25cue_contributor_is_actives3_0B8_
FN:833,_RNCNvMs_NtCskfEctF1MPvy_8cuenv_ci8compilerNtB6_8Compiler25cue_contributor_is_actives4_0B8_
FN:834,_RNCNvMs_NtCskfEctF1MPvy_8cuenv_ci8compilerNtB6_8Compiler25cue_contributor_is_actives5_0B8_
FN:841,_RNCNvMs_NtCskfEctF1MPvy_8cuenv_ci8compilerNtB6_8Compiler25cue_contributor_is_actives6_0B8_
FN:779,_RNCNvMs_NtCskfEctF1MPvy_8cuenv_ci8compilerNtB6_8Compiler25cue_contributor_is_actives_0B8_
FN:876,_RNCNvMs_NtCskfEctF1MPvy_8cuenv_ci8compilerNtB6_8Compiler25detect_workspace_managers0B8_
FN:679,_RNCNvMs_NtCskfEctF1MPvy_8cuenv_ci8compilerNtB6_8Compiler27fix_artifact_download_paths0B8_
FN:693,_RNCNvMs_NtCskfEctF1MPvy_8cuenv_ci8compilerNtB6_8Compiler27fix_artifact_download_pathss_0B8_
FN:337,_RNCNvMs_NtCskfEctF1MPvy_8cuenv_ci8compilerNtB6_8Compiler7compile0B8_
FN:110,_RNvXNtCsilPUL3AyWrc_8cuenv_ci8compilerNtB2_15CompilerOptionsNtNtCskzPJi2J8k3N_4core3fmt5Debug3fmt
FN:1180,_RNCNvNtNtCsilPUL3AyWrc_8cuenv_ci8compiler5testss_35test_compile_task_with_dependencies0B7_
FN:1967,_RNCNvNtNtCsilPUL3AyWrc_8cuenv_ci8compiler5testss_35test_phase_task_to_ir_github_action0B7_
FN:269,_RINvMs_NtCsilPUL3AyWrc_8cuenv_ci8compilerNtB5_8Compiler15compute_runtimeReB18_B18_B18_EB7_
FN:1088,_RNCNCNCNvMs_NtCsilPUL3AyWrc_8cuenv_ci8compilerNtBa_8Compiler16phase_task_to_irs_000Bc_
FN:1076,_RNCNCNvMs_NtCsilPUL3AyWrc_8cuenv_ci8compilerNtB8_8Compiler16phase_task_to_irs_00Ba_
FN:595,_RNCNCNvMs_NtCsilPUL3AyWrc_8cuenv_ci8compilerNtB8_8Compiler19compile_single_task00Ba_
FN:380,_RNCNCNvMs_NtCsilPUL3AyWrc_8cuenv_ci8compilerNtB8_8Compiler23build_trigger_conditions3_00Ba_
FN:682,_RNCNCNvMs_NtCsilPUL3AyWrc_8cuenv_ci8compilerNtB8_8Compiler27fix_artifact_download_paths00Ba_
FN:1022,_RNCNvMs_NtCsilPUL3AyWrc_8cuenv_ci8compilerNtB6_8Compiler15has_task_labels0B8_
FN:995,_RNCNvMs_NtCsilPUL3AyWrc_8cuenv_ci8compilerNtB6_8Compiler16has_task_command0B8_
FN:1059,_RNCNvMs_NtCsilPUL3AyWrc_8cuenv_ci8compilerNtB6_8Compiler16phase_task_to_ir0B8_
FN:1112,_RNCNvMs_NtCsilPUL3AyWrc_8cuenv_ci8compilerNtB6_8Compiler16phase_task_to_irs0_0B8_
FN:1075,_RNCNvMs_NtCsilPUL3AyWrc_8cuenv_ci8compilerNtB6_8Compiler16phase_task_to_irs_0B8_
FN:204,_RNCNvMs_NtCsilPUL3AyWrc_8cuenv_ci8compilerNtB6_8Compiler17apply_purity_mode0B8_
FN:595,_RNCNvMs_NtCsilPUL3AyWrc_8cuenv_ci8compilerNtB6_8Compiler19compile_single_task0B8_
FN:622,_RNCNvMs_NtCsilPUL3AyWrc_8cuenv_ci8compilerNtB6_8Compiler19compile_single_tasks0_0B8_
FN:614,_RNCNvMs_NtCsilPUL3AyWrc_8cuenv_ci8compilerNtB6_8Compiler19compile_single_tasks_0B8_
FN:905,_RNCNvMs_NtCsilPUL3AyWrc_8cuenv_ci8compilerNtB6_8Compiler20has_secrets_provider0B8_
FN:727,_RNCNvMs_NtCsilPUL3AyWrc_8cuenv_ci8compilerNtB6_8Compiler22apply_cue_contributors0B8_
FN:354,_RNCNvMs_NtCsilPUL3AyWrc_8cuenv_ci8compilerNtB6_8Compiler23build_trigger_condition0B8_
FN:363,_RNCNvMs_NtCsilPUL3AyWrc_8cuenv_ci8compilerNtB6_8Compiler23build_trigger_conditions0_0B8_
FN:368,_RNCNvMs_NtCsilPUL3AyWrc_8cuenv_ci8compilerNtB6_8Compiler23build_trigger_conditions1_0B8_
FN:371,_RNCNvMs_NtCsilPUL3AyWrc_8cuenv_ci8compilerNtB6_8Compiler23build_trigger_conditions2_0B8_
FN:371,_RNCNvMs_NtCsilPUL3AyWrc_8cuenv_ci8compilerNtB6_8Compiler23build_trigger_conditions3_0B8_
FN:397,_RNCNvMs_NtCsilPUL3AyWrc_8cuenv_ci8compilerNtB6_8Compiler23build_trigger_conditions4_0B8_
FN:764,_RNCNvMs_NtCsilPUL3AyWrc_8cuenv_ci8compilerNtB6_8Compiler25cue_contributor_is_active0B8_
FN:780,_RNCNvMs_NtCsilPUL3AyWrc_8cuenv_ci8compilerNtB6_8Compiler25cue_contributor_is_actives0_0B8_
FN:781,_RNCNvMs_NtCsilPUL3AyWrc_8cuenv_ci8compilerNtB6_8Compiler25cue_contributor_is_actives1_0B8_
FN:782,_RNCNvMs_NtCsilPUL3AyWrc_8cuenv_ci8compilerNtB6_8Compiler25cue_contributor_is_actives2_0B8_
FN:821,_RNCNvMs_NtCsilPUL3AyWrc_8cuenv_ci8compilerNtB6_8Compiler25cue_contributor_is_actives3_0B8_
FN:833,_RNCNvMs_NtCsilPUL3AyWrc_8cuenv_ci8compilerNtB6_8Compiler25cue_contributor_is_actives4_0B8_
FN:834,_RNCNvMs_NtCsilPUL3AyWrc_8cuenv_ci8compilerNtB6_8Compiler25cue_contributor_is_actives5_0B8_
FN:841,_RNCNvMs_NtCsilPUL3AyWrc_8cuenv_ci8compilerNtB6_8Compiler25cue_contributor_is_actives6_0B8_
FN:779,_RNCNvMs_NtCsilPUL3AyWrc_8cuenv_ci8compilerNtB6_8Compiler25cue_contributor_is_actives_0B8_
FN:876,_RNCNvMs_NtCsilPUL3AyWrc_8cuenv_ci8compilerNtB6_8Compiler25detect_workspace_managers0B8_
FN:679,_RNCNvMs_NtCsilPUL3AyWrc_8cuenv_ci8compilerNtB6_8Compiler27fix_artifact_download_paths0B8_
FN:693,_RNCNvMs_NtCsilPUL3AyWrc_8cuenv_ci8compilerNtB6_8Compiler27fix_artifact_download_pathss_0B8_
FN:337,_RNCNvMs_NtCsilPUL3AyWrc_8cuenv_ci8compilerNtB6_8Compiler7compile0B8_
FN:138,_RNvMs_NtCsilPUL3AyWrc_8cuenv_ci8compilerNtB4_8Compiler12with_options
FN:508,_RNvMs_NtCsilPUL3AyWrc_8cuenv_ci8compilerNtB4_8Compiler13compile_tasks
FN:1014,_RNvMs_NtCsilPUL3AyWrc_8cuenv_ci8compilerNtB4_8Compiler15has_task_labels
FN:881,_RNvMs_NtCsilPUL3AyWrc_8cuenv_ci8compilerNtB4_8Compiler16get_runtime_type
FN:980,_RNvMs_NtCsilPUL3AyWrc_8cuenv_ci8compilerNtB4_8Compiler16has_task_command
FN:1043,_RNvMs_NtCsilPUL3AyWrc_8cuenv_ci8compilerNtB4_8Compiler16phase_task_to_ir
FN:194,_RNvMs_NtCsilPUL3AyWrc_8cuenv_ci8compilerNtB4_8Compiler17apply_purity_mode
FN:543,_RNvMs_NtCsilPUL3AyWrc_8cuenv_ci8compilerNtB4_8Compiler18compile_task_group
FN:475,_RNvMs_NtCsilPUL3AyWrc_8cuenv_ci8compilerNtB4_8Compiler19collect_task_inputs
FN:571,_RNvMs_NtCsilPUL3AyWrc_8cuenv_ci8compilerNtB4_8Compiler19compile_single_task
FN:937,_RNvMs_NtCsilPUL3AyWrc_8cuenv_ci8compilerNtB4_8Compiler19has_provider_config
FN:152,_RNvMs_NtCsilPUL3AyWrc_8cuenv_ci8compilerNtB4_8Compiler20analyze_flake_purity
FN:425,_RNvMs_NtCsilPUL3AyWrc_8cuenv_ci8compilerNtB4_8Compiler20derive_trigger_paths
FN:893,_RNvMs_NtCsilPUL3AyWrc_8cuenv_ci8compilerNtB4_8Compiler20has_secrets_provider
FN:1033,_RNvMs_NtCsilPUL3AyWrc_8cuenv_ci8compilerNtB4_8Compiler21cue_build_phase_to_ir
FN:708,_RNvMs_NtCsilPUL3AyWrc_8cuenv_ci8compilerNtB4_8Compiler22apply_cue_contributors
FN:179,_RNvMs_NtCsilPUL3AyWrc_8cuenv_ci8compilerNtB4_8Compiler22perform_flake_analysis
FN:349,_RNvMs_NtCsilPUL3AyWrc_8cuenv_ci8compilerNtB4_8Compiler23build_trigger_condition
FN:524,_RNvMs_NtCsilPUL3AyWrc_8cuenv_ci8compilerNtB4_8Compiler23compile_task_definition
FN:163,_RNvMs_NtCsilPUL3AyWrc_8cuenv_ci8compilerNtB4_8Compiler23resolve_flake_lock_path
FN:745,_RNvMs_NtCsilPUL3AyWrc_8cuenv_ci8compilerNtB4_8Compiler25cue_contributor_is_active
FN:854,_RNvMs_NtCsilPUL3AyWrc_8cuenv_ci8compilerNtB4_8Compiler25detect_workspace_managers
FN:673,_RNvMs_NtCsilPUL3AyWrc_8cuenv_ci8compilerNtB4_8Compiler27fix_artifact_download_paths
FN:129,_RNvMs_NtCsilPUL3AyWrc_8cuenv_ci8compilerNtB4_8Compiler3new
FN:300,_RNvMs_NtCsilPUL3AyWrc_8cuenv_ci8compilerNtB4_8Compiler7compile
FN:489,_RNvMs_NtCsilPUL3AyWrc_8cuenv_ci8compilerNtB4_8Compiler9find_task
FN:1682,_RNvNtNtCsilPUL3AyWrc_8cuenv_ci8compiler5tests16test_contributor
FN:1691,_RNvNtNtCsilPUL3AyWrc_8cuenv_ci8compiler5tests7test_ir
FN:1383,_RNvNtNtCsilPUL3AyWrc_8cuenv_ci8compiler5testss_20test_compute_runtime
FN:1207,_RNvNtNtCsilPUL3AyWrc_8cuenv_ci8compiler5testss_24test_compile_script_task
FN:1128,_RNvNtNtCsilPUL3AyWrc_8cuenv_ci8compiler5testss_24test_compile_simple_task
FN:1185,_RNvNtNtCsilPUL3AyWrc_8cuenv_ci8compiler5testss_28test_compile_deployment_task
FN:1900,_RNvNtNtCsilPUL3AyWrc_8cuenv_ci8compiler5testss_28test_phase_task_to_ir_script
FN:1873,_RNvNtNtCsilPUL3AyWrc_8cuenv_ci8compiler5testss_29test_phase_task_to_ir_command
FN:1973,_RNvNtNtCsilPUL3AyWrc_8cuenv_ci8compiler5testss_29test_phase_task_to_ir_secrets
FN:2020,_RNvNtNtCsilPUL3AyWrc_8cuenv_ci8compiler5testss_30test_phase_task_to_ir_env_vars
FN:1228,_RNvNtNtCsilPUL3AyWrc_8cuenv_ci8compiler5testss_31test_purity_analysis_pure_flake
FN:1153,_RNvNtNtCsilPUL3AyWrc_8cuenv_ci8compiler5testss_35test_compile_task_with_dependencies
FN:1720,_RNvNtNtCsilPUL3AyWrc_8cuenv_ci8compiler5testss_35test_contributor_always_true_active
FN:1928,_RNvNtNtCsilPUL3AyWrc_8cuenv_ci8compiler5testss_35test_phase_task_to_ir_github_action
FN:1811,_RNvNtNtCsilPUL3AyWrc_8cuenv_ci8compiler5testss_37test_contributor_cuenv_source_matches
FN:1302,_RNvNtNtCsilPUL3AyWrc_8cuenv_ci8compiler5testss_37test_purity_warning_mode_injects_uuid
FN:1736,_RNvNtNtCsilPUL3AyWrc_8cuenv_ci8compiler5testss_38test_contributor_always_false_inactive
FN:1773,_RNvNtNtCsilPUL3AyWrc_8cuenv_ci8compiler5testss_38test_contributor_runtime_type_no_match
FN:1562,_RNvNtNtCsilPUL3AyWrc_8cuenv_ci8compiler5testss_38test_derive_trigger_paths_root_project
FN:2050,_RNvNtNtCsilPUL3AyWrc_8cuenv_ci8compiler5testss_39test_phase_task_to_ir_command_with_args
FN:1339,_RNvNtNtCsilPUL3AyWrc_8cuenv_ci8compiler5testss_40test_purity_override_mode_uses_overrides
FN:1269,_RNvNtNtCsilPUL3AyWrc_8cuenv_ci8compiler5testss_40test_purity_strict_mode_rejects_unlocked
FN:1753,_RNvNtNtCsilPUL3AyWrc_8cuenv_ci8compiler5testss_41test_contributor_runtime_type_matches_nix
FN:1709,_RNvNtNtCsilPUL3AyWrc_8cuenv_ci8compiler5testss_43test_contributor_no_condition_always_active
FN:1428,_RNvNtNtCsilPUL3AyWrc_8cuenv_ci8compiler5testss_43test_derive_trigger_paths_with_project_path
FN:1794,_RNvNtNtCsilPUL3AyWrc_8cuenv_ci8compiler5testss_44test_contributor_runtime_type_no_runtime_set
FN:1846,_RNvNtNtCsilPUL3AyWrc_8cuenv_ci8compiler5testss_46test_contributor_multiple_conditions_and_logic
FN:1504,_RNvNtNtCsilPUL3AyWrc_8cuenv_ci8compiler5testss_49test_derive_trigger_paths_fallback_to_project_dir
FN:1617,_RNvNtNtCsilPUL3AyWrc_8cuenv_ci8compiler5testss_57test_derive_trigger_paths_root_project_no_inputs_fallback
FNDA:0,_RINvMs_NtCskfEctF1MPvy_8cuenv_ci8compilerNtB5_8Compiler15compute_runtimeppppEB7_
FNDA:7,_RNvMs_NtCskfEctF1MPvy_8cuenv_ci8compilerNtB4_8Compiler12with_options
FNDA:7,_RNvMs_NtCskfEctF1MPvy_8cuenv_ci8compilerNtB4_8Compiler13compile_tasks
FNDA:0,_RNvMs_NtCskfEctF1MPvy_8cuenv_ci8compilerNtB4_8Compiler15has_task_labels
FNDA:0,_RNvMs_NtCskfEctF1MPvy_8cuenv_ci8compilerNtB4_8Compiler16get_runtime_type
FNDA:0,_RNvMs_NtCskfEctF1MPvy_8cuenv_ci8compilerNtB4_8Compiler16has_task_command
FNDA:10,_RNvMs_NtCskfEctF1MPvy_8cuenv_ci8compilerNtB4_8Compiler16phase_task_to_ir
FNDA:0,_RNvMs_NtCskfEctF1MPvy_8cuenv_ci8compilerNtB4_8Compiler17apply_purity_mode
FNDA:33,_RNvMs_NtCskfEctF1MPvy_8cuenv_ci8compilerNtB4_8Compiler18compile_task_group
FNDA:2,_RNvMs_NtCskfEctF1MPvy_8cuenv_ci8compilerNtB4_8Compiler19collect_task_inputs
FNDA:79,_RNvMs_NtCskfEctF1MPvy_8cuenv_ci8compilerNtB4_8Compiler19compile_single_task
FNDA:0,_RNvMs_NtCskfEctF1MPvy_8cuenv_ci8compilerNtB4_8Compiler19has_provider_config
FNDA:0,_RNvMs_NtCskfEctF1MPvy_8cuenv_ci8compilerNtB4_8Compiler20analyze_flake_purity
FNDA:2,_RNvMs_NtCskfEctF1MPvy_8cuenv_ci8compilerNtB4_8Compiler20derive_trigger_paths
FNDA:3,_RNvMs_NtCskfEctF1MPvy_8cuenv_ci8compilerNtB4_8Compiler20has_secrets_provider
FNDA:10,_RNvMs_NtCskfEctF1MPvy_8cuenv_ci8compilerNtB4_8Compiler21cue_build_phase_to_ir
FNDA:7,_RNvMs_NtCskfEctF1MPvy_8cuenv_ci8compilerNtB4_8Compiler22apply_cue_contributors
FNDA:0,_RNvMs_NtCskfEctF1MPvy_8cuenv_ci8compilerNtB4_8Compiler22perform_flake_analysis
FNDA:7,_RNvMs_NtCskfEctF1MPvy_8cuenv_ci8compilerNtB4_8Compiler23build_trigger_condition
FNDA:112,_RNvMs_NtCskfEctF1MPvy_8cuenv_ci8compilerNtB4_8Compiler23compile_task_definition
FNDA:0,_RNvMs_NtCskfEctF1MPvy_8cuenv_ci8compilerNtB4_8Compiler23resolve_flake_lock_path
FNDA:12,_RNvMs_NtCskfEctF1MPvy_8cuenv_ci8compilerNtB4_8Compiler25cue_contributor_is_active
FNDA:0,_RNvMs_NtCskfEctF1MPvy_8cuenv_ci8compilerNtB4_8Compiler25detect_workspace_managers
FNDA:7,_RNvMs_NtCskfEctF1MPvy_8cuenv_ci8compilerNtB4_8Compiler27fix_artifact_download_paths
FNDA:0,_RNvMs_NtCskfEctF1MPvy_8cuenv_ci8compilerNtB4_8Compiler3new
FNDA:7,_RNvMs_NtCskfEctF1MPvy_8cuenv_ci8compilerNtB4_8Compiler7compile
FNDA:2,_RNvMs_NtCskfEctF1MPvy_8cuenv_ci8compilerNtB4_8Compiler9find_task
FNDA:0,_RNvXNtCskfEctF1MPvy_8cuenv_ci8compilerNtB2_15CompilerOptionsNtNtCskzPJi2J8k3N_4core3fmt5Debug3fmt
FNDA:3,_RNCNCNCNvMs_NtCskfEctF1MPvy_8cuenv_ci8compilerNtBa_8Compiler16phase_task_to_irs_000Bc_
FNDA:6,_RNCNCNvMs_NtCskfEctF1MPvy_8cuenv_ci8compilerNtB8_8Compiler16phase_task_to_irs_00Ba_
FNDA:0,_RNCNCNvMs_NtCskfEctF1MPvy_8cuenv_ci8compilerNtB8_8Compiler19compile_single_task00Ba_
FNDA:1,_RNCNCNvMs_NtCskfEctF1MPvy_8cuenv_ci8compilerNtB8_8Compiler23build_trigger_conditions3_00Ba_
FNDA:15,_RNCNCNvMs_NtCskfEctF1MPvy_8cuenv_ci8compilerNtB8_8Compiler27fix_artifact_download_paths00Ba_
FNDA:0,_RNCNvMs_NtCskfEctF1MPvy_8cuenv_ci8compilerNtB6_8Compiler15has_task_labels0B8_
FNDA:0,_RNCNvMs_NtCskfEctF1MPvy_8cuenv_ci8compilerNtB6_8Compiler16has_task_command0B8_
FNDA:0,_RNCNvMs_NtCskfEctF1MPvy_8cuenv_ci8compilerNtB6_8Compiler16phase_task_to_ir0B8_
FNDA:7,_RNCNvMs_NtCskfEctF1MPvy_8cuenv_ci8compilerNtB6_8Compiler16phase_task_to_irs0_0B8_
FNDA:6,_RNCNvMs_NtCskfEctF1MPvy_8cuenv_ci8compilerNtB6_8Compiler16phase_task_to_irs_0B8_
FNDA:0,_RNCNvMs_NtCskfEctF1MPvy_8cuenv_ci8compilerNtB6_8Compiler17apply_purity_mode0B8_
FNDA:0,_RNCNvMs_NtCskfEctF1MPvy_8cuenv_ci8compilerNtB6_8Compiler19compile_single_task0B8_
FNDA:3,_RNCNvMs_NtCskfEctF1MPvy_8cuenv_ci8compilerNtB6_8Compiler19compile_single_tasks0_0B8_
FNDA:15,_RNCNvMs_NtCskfEctF1MPvy_8cuenv_ci8compilerNtB6_8Compiler19compile_single_tasks_0B8_
FNDA:2,_RNCNvMs_NtCskfEctF1MPvy_8cuenv_ci8compilerNtB6_8Compiler20has_secrets_provider0B8_
FNDA:12,_RNCNvMs_NtCskfEctF1MPvy_8cuenv_ci8compilerNtB6_8Compiler22apply_cue_contributors0B8_
FNDA:3,_RNCNvMs_NtCskfEctF1MPvy_8cuenv_ci8compilerNtB6_8Compiler23build_trigger_condition0B8_
FNDA:3,_RNCNvMs_NtCskfEctF1MPvy_8cuenv_ci8compilerNtB6_8Compiler23build_trigger_conditions0_0B8_
FNDA:3,_RNCNvMs_NtCskfEctF1MPvy_8cuenv_ci8compilerNtB6_8Compiler23build_trigger_conditions1_0B8_
FNDA:3,_RNCNvMs_NtCskfEctF1MPvy_8cuenv_ci8compilerNtB6_8Compiler23build_trigger_conditions2_0B8_
FNDA:1,_RNCNvMs_NtCskfEctF1MPvy_8cuenv_ci8compilerNtB6_8Compiler23build_trigger_conditions3_0B8_
FNDA:7,_RNCNvMs_NtCskfEctF1MPvy_8cuenv_ci8compilerNtB6_8Compiler23build_trigger_conditions4_0B8_
FNDA:0,_RNCNvMs_NtCskfEctF1MPvy_8cuenv_ci8compilerNtB6_8Compiler25cue_contributor_is_active0B8_
FNDA:6,_RNCNvMs_NtCskfEctF1MPvy_8cuenv_ci8compilerNtB6_8Compiler25cue_contributor_is_actives0_0B8_
FNDA:6,_RNCNvMs_NtCskfEctF1MPvy_8cuenv_ci8compilerNtB6_8Compiler25cue_contributor_is_actives1_0B8_
FNDA:6,_RNCNvMs_NtCskfEctF1MPvy_8cuenv_ci8compilerNtB6_8Compiler25cue_contributor_is_actives2_0B8_
FNDA:0,_RNCNvMs_NtCskfEctF1MPvy_8cuenv_ci8compilerNtB6_8Compiler25cue_contributor_is_actives3_0B8_
FNDA:0,_RNCNvMs_NtCskfEctF1MPvy_8cuenv_ci8compilerNtB6_8Compiler25cue_contributor_is_actives4_0B8_
FNDA:0,_RNCNvMs_NtCskfEctF1MPvy_8cuenv_ci8compilerNtB6_8Compiler25cue_contributor_is_actives5_0B8_
FNDA:0,_RNCNvMs_NtCskfEctF1MPvy_8cuenv_ci8compilerNtB6_8Compiler25cue_contributor_is_actives6_0B8_
FNDA:6,_RNCNvMs_NtCskfEctF1MPvy_8cuenv_ci8compilerNtB6_8Compiler25cue_contributor_is_actives_0B8_
FNDA:0,_RNCNvMs_NtCskfEctF1MPvy_8cuenv_ci8compilerNtB6_8Compiler25detect_workspace_managers0B8_
FNDA:79,_RNCNvMs_NtCskfEctF1MPvy_8cuenv_ci8compilerNtB6_8Compiler27fix_artifact_download_paths0B8_
FNDA:3,_RNCNvMs_NtCskfEctF1MPvy_8cuenv_ci8compilerNtB6_8Compiler27fix_artifact_download_pathss_0B8_
FNDA:0,_RNCNvMs_NtCskfEctF1MPvy_8cuenv_ci8compilerNtB6_8Compiler7compile0B8_
FNDA:0,_RNvXNtCsilPUL3AyWrc_8cuenv_ci8compilerNtB2_15CompilerOptionsNtNtCskzPJi2J8k3N_4core3fmt5Debug3fmt
FNDA:2,_RNCNvNtNtCsilPUL3AyWrc_8cuenv_ci8compiler5testss_35test_compile_task_with_dependencies0B7_
FNDA:1,_RNCNvNtNtCsilPUL3AyWrc_8cuenv_ci8compiler5testss_35test_phase_task_to_ir_github_action0B7_
FNDA:1,_RINvMs_NtCsilPUL3AyWrc_8cuenv_ci8compilerNtB5_8Compiler15compute_runtimeReB18_B18_B18_EB7_
FNDA:1,_RNCNCNCNvMs_NtCsilPUL3AyWrc_8cuenv_ci8compilerNtBa_8Compiler16phase_task_to_irs_000Bc_
FNDA:1,_RNCNCNvMs_NtCsilPUL3AyWrc_8cuenv_ci8compilerNtB8_8Compiler16phase_task_to_irs_00Ba_
FNDA:0,_RNCNCNvMs_NtCsilPUL3AyWrc_8cuenv_ci8compilerNtB8_8Compiler19compile_single_task00Ba_
FNDA:0,_RNCNCNvMs_NtCsilPUL3AyWrc_8cuenv_ci8compilerNtB8_8Compiler23build_trigger_conditions3_00Ba_
FNDA:1,_RNCNCNvMs_NtCsilPUL3AyWrc_8cuenv_ci8compilerNtB8_8Compiler27fix_artifact_download_paths00Ba_
FNDA:0,_RNCNvMs_NtCsilPUL3AyWrc_8cuenv_ci8compilerNtB6_8Compiler15has_task_labels0B8_
FNDA:0,_RNCNvMs_NtCsilPUL3AyWrc_8cuenv_ci8compilerNtB6_8Compiler16has_task_command0B8_
FNDA:2,_RNCNvMs_NtCsilPUL3AyWrc_8cuenv_ci8compilerNtB6_8Compiler16phase_task_to_ir0B8_
FNDA:2,_RNCNvMs_NtCsilPUL3AyWrc_8cuenv_ci8compilerNtB6_8Compiler16phase_task_to_irs0_0B8_
FNDA:1,_RNCNvMs_NtCsilPUL3AyWrc_8cuenv_ci8compilerNtB6_8Compiler16phase_task_to_irs_0B8_
FNDA:1,_RNCNvMs_NtCsilPUL3AyWrc_8cuenv_ci8compilerNtB6_8Compiler17apply_purity_mode0B8_
FNDA:0,_RNCNvMs_NtCsilPUL3AyWrc_8cuenv_ci8compilerNtB6_8Compiler19compile_single_task0B8_
FNDA:0,_RNCNvMs_NtCsilPUL3AyWrc_8cuenv_ci8compilerNtB6_8Compiler19compile_single_tasks0_0B8_
FNDA:1,_RNCNvMs_NtCsilPUL3AyWrc_8cuenv_ci8compilerNtB6_8Compiler19compile_single_tasks_0B8_
FNDA:0,_RNCNvMs_NtCsilPUL3AyWrc_8cuenv_ci8compilerNtB6_8Compiler20has_secrets_provider0B8_
FNDA:0,_RNCNvMs_NtCsilPUL3AyWrc_8cuenv_ci8compilerNtB6_8Compiler22apply_cue_contributors0B8_
FNDA:4,_RNCNvMs_NtCsilPUL3AyWrc_8cuenv_ci8compilerNtB6_8Compiler23build_trigger_condition0B8_
FNDA:4,_RNCNvMs_NtCsilPUL3AyWrc_8cuenv_ci8compilerNtB6_8Compiler23build_trigger_conditions0_0B8_
FNDA:4,_RNCNvMs_NtCsilPUL3AyWrc_8cuenv_ci8compilerNtB6_8Compiler23build_trigger_conditions1_0B8_
FNDA:4,_RNCNvMs_NtCsilPUL3AyWrc_8cuenv_ci8compilerNtB6_8Compiler23build_trigger_conditions2_0B8_
FNDA:0,_RNCNvMs_NtCsilPUL3AyWrc_8cuenv_ci8compilerNtB6_8Compiler23build_trigger_conditions3_0B8_
FNDA:4,_RNCNvMs_NtCsilPUL3AyWrc_8cuenv_ci8compilerNtB6_8Compiler23build_trigger_conditions4_0B8_
FNDA:3,_RNCNvMs_NtCsilPUL3AyWrc_8cuenv_ci8compilerNtB6_8Compiler25cue_contributor_is_active0B8_
FNDA:1,_RNCNvMs_NtCsilPUL3AyWrc_8cuenv_ci8compilerNtB6_8Compiler25cue_contributor_is_actives0_0B8_
FNDA:1,_RNCNvMs_NtCsilPUL3AyWrc_8cuenv_ci8compilerNtB6_8Compiler25cue_contributor_is_actives1_0B8_
FNDA:2,_RNCNvMs_NtCsilPUL3AyWrc_8cuenv_ci8compilerNtB6_8Compiler25cue_contributor_is_actives2_0B8_
FNDA:0,_RNCNvMs_NtCsilPUL3AyWrc_8cuenv_ci8compilerNtB6_8Compiler25cue_contributor_is_actives3_0B8_
FNDA:0,_RNCNvMs_NtCsilPUL3AyWrc_8cuenv_ci8compilerNtB6_8Compiler25cue_contributor_is_actives4_0B8_
FNDA:0,_RNCNvMs_NtCsilPUL3AyWrc_8cuenv_ci8compilerNtB6_8Compiler25cue_contributor_is_actives5_0B8_
FNDA:0,_RNCNvMs_NtCsilPUL3AyWrc_8cuenv_ci8compilerNtB6_8Compiler25cue_contributor_is_actives6_0B8_
FNDA:1,_RNCNvMs_NtCsilPUL3AyWrc_8cuenv_ci8compilerNtB6_8Compiler25cue_contributor_is_actives_0B8_
FNDA:0,_RNCNvMs_NtCsilPUL3AyWrc_8cuenv_ci8compilerNtB6_8Compiler25detect_workspace_managers0B8_
FNDA:9,_RNCNvMs_NtCsilPUL3AyWrc_8cuenv_ci8compilerNtB6_8Compiler27fix_artifact_download_paths0B8_
FNDA:0,_RNCNvMs_NtCsilPUL3AyWrc_8cuenv_ci8compilerNtB6_8Compiler27fix_artifact_download_pathss_0B8_
FNDA:0,_RNCNvMs_NtCsilPUL3AyWrc_8cuenv_ci8compilerNtB6_8Compiler7compile0B8_
FNDA:11,_RNvMs_NtCsilPUL3AyWrc_8cuenv_ci8compilerNtB4_8Compiler12with_options
FNDA:8,_RNvMs_NtCsilPUL3AyWrc_8cuenv_ci8compilerNtB4_8Compiler13compile_tasks
FNDA:0,_RNvMs_NtCsilPUL3AyWrc_8cuenv_ci8compilerNtB4_8Compiler15has_task_labels
FNDA:3,_RNvMs_NtCsilPUL3AyWrc_8cuenv_ci8compilerNtB4_8Compiler16get_runtime_type
FNDA:0,_RNvMs_NtCsilPUL3AyWrc_8cuenv_ci8compilerNtB4_8Compiler16has_task_command
FNDA:6,_RNvMs_NtCsilPUL3AyWrc_8cuenv_ci8compilerNtB4_8Compiler16phase_task_to_ir
FNDA:7,_RNvMs_NtCsilPUL3AyWrc_8cuenv_ci8compilerNtB4_8Compiler17apply_purity_mode
FNDA:0,_RNvMs_NtCsilPUL3AyWrc_8cuenv_ci8compilerNtB4_8Compiler18compile_task_group
FNDA:4,_RNvMs_NtCsilPUL3AyWrc_8cuenv_ci8compilerNtB4_8Compiler19collect_task_inputs
FNDA:9,_RNvMs_NtCsilPUL3AyWrc_8cuenv_ci8compilerNtB4_8Compiler19compile_single_task
FNDA:0,_RNvMs_NtCsilPUL3AyWrc_8cuenv_ci8compilerNtB4_8Compiler19has_provider_config
FNDA:7,_RNvMs_NtCsilPUL3AyWrc_8cuenv_ci8compilerNtB4_8Compiler20analyze_flake_purity
FNDA:4,_RNvMs_NtCsilPUL3AyWrc_8cuenv_ci8compilerNtB4_8Compiler20derive_trigger_paths
FNDA:0,_RNvMs_NtCsilPUL3AyWrc_8cuenv_ci8compilerNtB4_8Compiler20has_secrets_provider
FNDA:0,_RNvMs_NtCsilPUL3AyWrc_8cuenv_ci8compilerNtB4_8Compiler21cue_build_phase_to_ir
FNDA:8,_RNvMs_NtCsilPUL3AyWrc_8cuenv_ci8compilerNtB4_8Compiler22apply_cue_contributors
FNDA:7,_RNvMs_NtCsilPUL3AyWrc_8cuenv_ci8compilerNtB4_8Compiler22perform_flake_analysis
FNDA:4,_RNvMs_NtCsilPUL3AyWrc_8cuenv_ci8compilerNtB4_8Compiler23build_trigger_condition
FNDA:9,_RNvMs_NtCsilPUL3AyWrc_8cuenv_ci8compilerNtB4_8Compiler23compile_task_definition
FNDA:7,_RNvMs_NtCsilPUL3AyWrc_8cuenv_ci8compilerNtB4_8Compiler23resolve_flake_lock_path
FNDA:8,_RNvMs_NtCsilPUL3AyWrc_8cuenv_ci8compilerNtB4_8Compiler25cue_contributor_is_active
FNDA:0,_RNvMs_NtCsilPUL3AyWrc_8cuenv_ci8compilerNtB4_8Compiler25detect_workspace_managers
FNDA:8,_RNvMs_NtCsilPUL3AyWrc_8cuenv_ci8compilerNtB4_8Compiler27fix_artifact_download_paths
FNDA:12,_RNvMs_NtCsilPUL3AyWrc_8cuenv_ci8compilerNtB4_8Compiler3new
FNDA:8,_RNvMs_NtCsilPUL3AyWrc_8cuenv_ci8compilerNtB4_8Compiler7compile
FNDA:4,_RNvMs_NtCsilPUL3AyWrc_8cuenv_ci8compilerNtB4_8Compiler9find_task
FNDA:8,_RNvNtNtCsilPUL3AyWrc_8cuenv_ci8compiler5tests16test_contributor
FNDA:8,_RNvNtNtCsilPUL3AyWrc_8cuenv_ci8compiler5tests7test_ir
FNDA:1,_RNvNtNtCsilPUL3AyWrc_8cuenv_ci8compiler5testss_20test_compute_runtime
FNDA:1,_RNvNtNtCsilPUL3AyWrc_8cuenv_ci8compiler5testss_24test_compile_script_task
FNDA:1,_RNvNtNtCsilPUL3AyWrc_8cuenv_ci8compiler5testss_24test_compile_simple_task
FNDA:1,_RNvNtNtCsilPUL3AyWrc_8cuenv_ci8compiler5testss_28test_compile_deployment_task
FNDA:1,_RNvNtNtCsilPUL3AyWrc_8cuenv_ci8compiler5testss_28test_phase_task_to_ir_script
FNDA:1,_RNvNtNtCsilPUL3AyWrc_8cuenv_ci8compiler5testss_29test_phase_task_to_ir_command
FNDA:1,_RNvNtNtCsilPUL3AyWrc_8cuenv_ci8compiler5testss_29test_phase_task_to_ir_secrets
FNDA:1,_RNvNtNtCsilPUL3AyWrc_8cuenv_ci8compiler5testss_30test_phase_task_to_ir_env_vars
FNDA:1,_RNvNtNtCsilPUL3AyWrc_8cuenv_ci8compiler5testss_31test_purity_analysis_pure_flake
FNDA:1,_RNvNtNtCsilPUL3AyWrc_8cuenv_ci8compiler5testss_35test_compile_task_with_dependencies
FNDA:1,_RNvNtNtCsilPUL3AyWrc_8cuenv_ci8compiler5testss_35test_contributor_always_true_active
FNDA:1,_RNvNtNtCsilPUL3AyWrc_8cuenv_ci8compiler5testss_35test_phase_task_to_ir_github_action
FNDA:1,_RNvNtNtCsilPUL3AyWrc_8cuenv_ci8compiler5testss_37test_contributor_cuenv_source_matches
FNDA:1,_RNvNtNtCsilPUL3AyWrc_8cuenv_ci8compiler5testss_37test_purity_warning_mode_injects_uuid
FNDA:1,_RNvNtNtCsilPUL3AyWrc_8cuenv_ci8compiler5testss_38test_contributor_always_false_inactive
FNDA:1,_RNvNtNtCsilPUL3AyWrc_8cuenv_ci8compiler5testss_38test_contributor_runtime_type_no_match
FNDA:1,_RNvNtNtCsilPUL3AyWrc_8cuenv_ci8compiler5testss_38test_derive_trigger_paths_root_project
FNDA:1,_RNvNtNtCsilPUL3AyWrc_8cuenv_ci8compiler5testss_39test_phase_task_to_ir_command_with_args
FNDA:1,_RNvNtNtCsilPUL3AyWrc_8cuenv_ci8compiler5testss_40test_purity_override_mode_uses_overrides
FNDA:1,_RNvNtNtCsilPUL3AyWrc_8cuenv_ci8compiler5testss_40test_purity_strict_mode_rejects_unlocked
FNDA:1,_RNvNtNtCsilPUL3AyWrc_8cuenv_ci8compiler5testss_41test_contributor_runtime_type_matches_nix
FNDA:1,_RNvNtNtCsilPUL3AyWrc_8cuenv_ci8compiler5testss_43test_contributor_no_condition_always_active
FNDA:1,_RNvNtNtCsilPUL3AyWrc_8cuenv_ci8compiler5testss_43test_derive_trigger_paths_with_project_path
FNDA:1,_RNvNtNtCsilPUL3AyWrc_8cuenv_ci8compiler5testss_44test_contributor_runtime_type_no_runtime_set
FNDA:1,_RNvNtNtCsilPUL3AyWrc_8cuenv_ci8compiler5testss_46test_contributor_multiple_conditions_and_logic
FNDA:1,_RNvNtNtCsilPUL3AyWrc_8cuenv_ci8compiler5testss_49test_derive_trigger_paths_fallback_to_project_dir
FNDA:1,_RNvNtNtCsilPUL3AyWrc_8cuenv_ci8compiler5testss_57test_derive_trigger_paths_root_project_no_inputs_fallback
FNF:94
FNH:79
DA:110,0
DA:111,0
DA:112,0
DA:113,0
DA:114,0
DA:115,0
DA:116,0
DA:117,0
DA:118,0
DA:119,0
DA:120,0
DA:121,0
DA:122,0
DA:123,0
DA:129,12
DA:130,12
DA:131,12
DA:132,12
DA:133,12
DA:134,12
DA:138,18
DA:139,18
DA:140,18
DA:152,7
DA:153,7
DA:155,7
DA:156,0
DA:157,7
DA:159,7
DA:160,7
DA:163,7
DA:165,7
DA:166,7
DA:167,0
DA:170,0
DA:171,0
DA:172,0
DA:175,0
DA:176,7
DA:179,7
DA:180,7
DA:181,7
DA:182,7
DA:183,7
DA:184,7
DA:186,7
DA:187,7
DA:194,7
DA:195,7
DA:196,7
DA:197,7
DA:198,7
DA:200,3
DA:201,1
DA:202,1
DA:203,1
DA:204,1
DA:205,1
DA:206,1
DA:207,1
DA:208,1
DA:209,2
DA:210,2
DA:214,2
DA:215,0
DA:218,4
DA:219,2
DA:222,0
DA:227,2
DA:228,2
DA:229,2
DA:230,2
DA:232,2
DA:238,2
DA:240,2
DA:241,2
DA:242,2
DA:245,2
DA:246,2
DA:247,2
DA:249,4
DA:250,2
DA:251,2
DA:253,2
DA:254,0
DA:256,2
DA:259,7
DA:269,1
DA:270,1
DA:271,1
DA:272,1
DA:273,1
DA:274,1
DA:275,1
DA:276,1
DA:277,1
DA:281,0
DA:285,1
DA:286,1
DA:287,1
DA:288,1
DA:289,1
DA:290,1
DA:291,1
DA:292,1
DA:293,1
DA:300,15
DA:301,15
DA:304,15
DA:305,11
DA:306,11
DA:307,11
DA:308,11
DA:309,11
DA:310,11
DA:311,11
DA:312,11
DA:315,15
DA:316,11
DA:317,11
DA:318,11
DA:319,11
DA:322,15
DA:327,15
DA:330,15
DA:333,15
DA:336,15
DA:337,15
DA:338,0
DA:339,0
DA:340,0
DA:341,0
DA:342,0
DA:343,0
DA:345,15
DA:346,15
DA:349,11
DA:350,11
DA:353,11
DA:354,11
DA:355,11
DA:356,11
DA:359,11
DA:362,11
DA:363,11
DA:364,11
DA:365,11
DA:368,11
DA:371,11
DA:372,0
DA:373,0
DA:374,0
DA:375,0
DA:376,1
DA:378,1
DA:379,1
DA:380,1
DA:381,1
DA:382,1
DA:383,1
DA:384,1
DA:385,1
DA:386,1
DA:387,1
DA:388,1
DA:389,1
DA:390,1
DA:391,1
DA:392,1
DA:394,1
DA:397,11
DA:399,11
DA:400,11
DA:403,11
DA:404,6
DA:406,5
DA:411,11
DA:413,11
DA:414,11
DA:415,11
DA:416,11
DA:417,11
DA:418,11
DA:419,11
DA:420,11
DA:421,11
DA:422,11
DA:425,6
DA:426,6
DA:430,12
DA:431,6
DA:432,6
DA:434,6
DA:437,6
DA:438,4
DA:439,2
DA:440,2
DA:441,4
DA:442,4
DA:443,4
DA:447,6
DA:448,3
DA:449,1
DA:450,2
DA:451,2
DA:452,2
DA:453,2
DA:454,3
DA:458,6
DA:459,2
DA:460,2
DA:461,4
DA:462,4
DA:463,4
DA:464,4
DA:466,6
DA:469,6
DA:470,6
DA:471,6
DA:472,6
DA:475,6
DA:476,6
DA:478,7
DA:479,7
DA:480,7
DA:482,5
DA:483,0
DA:484,0
DA:485,1
DA:486,6
DA:489,6
DA:490,6
DA:491,6
DA:493,7
DA:494,7
DA:495,5
DA:496,5
DA:498,2
DA:499,2
DA:500,2
DA:501,0
DA:504,1
DA:505,6
DA:508,15
DA:509,15
DA:510,15
DA:511,15
DA:512,15
DA:514,15
DA:515,15
DA:516,76
DA:517,61
DA:518,61
DA:520,15
DA:521,15
DA:524,121
DA:525,121
DA:526,121
DA:527,121
DA:528,121
DA:529,121
DA:530,121
DA:531,88
DA:532,88
DA:533,88
DA:535,33
DA:536,33
DA:539,121
DA:540,121
DA:543,33
DA:544,33
DA:545,33
DA:546,33
DA:547,33
DA:548,33
DA:549,33
DA:550,0
DA:551,0
DA:552,0
DA:553,0
DA:556,33
DA:558,33
DA:559,33
DA:560,93
DA:561,60
DA:562,60
DA:563,60
DA:567,33
DA:568,33
DA:571,88
DA:573,88
DA:574,84
DA:575,84
DA:576,84
DA:577,4
DA:581,4
DA:583,0
DA:584,0
DA:585,0
DA:589,88
DA:592,88
DA:593,88
DA:594,88
DA:595,88
DA:596,88
DA:599,88
DA:602,88
DA:605,88
DA:606,79
DA:608,9
DA:610,88
DA:611,88
DA:612,88
DA:613,88
DA:614,16
DA:615,16
DA:616,16
DA:617,88
DA:620,88
DA:621,79
DA:622,79
DA:625,3
DA:626,3
DA:627,3
DA:628,3
DA:629,3
DA:630,3
DA:631,79
DA:633,9
DA:637,88
DA:638,1
DA:640,87
DA:644,88
DA:646,88
DA:647,88
DA:648,88
DA:649,88
DA:650,88
DA:651,88
DA:652,88
DA:653,88
DA:654,88
DA:655,88
DA:656,88
DA:657,88
DA:658,88
DA:659,88
DA:660,88
DA:661,88
DA:662,88
DA:663,88
DA:664,88
DA:665,88
DA:673,15
DA:676,15
DA:677,15
DA:678,15
DA:679,88
DA:680,88
DA:681,88
DA:682,88
DA:683,88
DA:684,15
DA:687,103
DA:688,91
DA:690,3
DA:691,3
DA:692,3
DA:693,3
DA:694,3
DA:697,3
DA:698,3
DA:699,3
DA:702,15
DA:708,15
DA:709,15
DA:710,4
DA:713,23
DA:715,12
DA:716,2
DA:717,10
DA:720,10
DA:721,10
DA:722,10
DA:723,10
DA:724,10
DA:725,10
DA:726,10
DA:727,12
DA:728,10
DA:731,20
DA:733,10
DA:734,0
DA:735,10
DA:737,10
DA:738,10
DA:739,10
DA:742,15
DA:745,20
DA:746,20
DA:747,20
DA:748,20
DA:749,20
DA:750,20
DA:752,1
DA:756,19
DA:757,5
DA:758,14
DA:761,14
DA:762,4
DA:763,3
DA:764,3
DA:765,1
DA:766,2
DA:769,1
DA:771,10
DA:774,12
DA:775,8
DA:776,8
DA:777,8
DA:778,8
DA:779,8
DA:780,8
DA:781,8
DA:782,8
DA:783,1
DA:784,7
DA:785,4
DA:788,11
DA:789,3
DA:791,2
DA:792,9
DA:795,9
DA:796,0
DA:798,0
DA:799,9
DA:802,9
DA:803,0
DA:805,0
DA:806,9
DA:809,9
DA:810,0
DA:811,9
DA:814,9
DA:815,0
DA:816,0
DA:818,0
DA:819,0
DA:821,0
DA:822,0
DA:823,0
DA:824,9
DA:827,9
DA:829,0
DA:830,0
DA:831,0
DA:832,0
DA:833,0
DA:834,0
DA:836,0
DA:838,0
DA:839,0
DA:840,0
DA:841,0
DA:843,0
DA:844,0
DA:845,9
DA:847,9
DA:848,20
DA:854,0
DA:858,0
DA:860,0
DA:862,0
DA:863,0
DA:864,0
DA:865,0
DA:868,0
DA:870,0
DA:873,0
DA:874,0
DA:875,0
DA:876,0
DA:877,0
DA:878,0
DA:881,3
DA:882,3
DA:883,3
DA:884,0
DA:885,0
DA:886,0
DA:887,0
DA:888,0
DA:890,3
DA:893,3
DA:894,3
DA:895,2
DA:897,1
DA:898,0
DA:902,1
DA:903,2
DA:905,2
DA:906,1
DA:907,1
DA:908,0
DA:910,1
DA:911,1
DA:913,1
DA:915,0
DA:916,0
DA:917,0
DA:919,0
DA:921,0
DA:922,0
DA:924,0
DA:926,0
DA:928,1
DA:930,0
DA:933,0
DA:934,3
DA:937,0
DA:938,0
DA:939,0
DA:941,0
DA:942,0
DA:945,0
DA:946,0
DA:947,0
DA:948,0
DA:949,0
DA:952,0
DA:953,0
DA:957,0
DA:958,0
DA:959,0
DA:960,0
DA:961,0
DA:962,0
DA:963,0
DA:965,0
DA:966,0
DA:971,0
DA:972,0
DA:973,0
DA:976,0
DA:977,0
DA:980,0
DA:982,0
DA:984,0
DA:985,0
DA:987,0
DA:988,0
DA:991,0
DA:992,0
DA:993,0
DA:994,0
DA:995,0
DA:996,0
DA:997,0
DA:998,0
DA:999,0
DA:1002,0
DA:1003,0
DA:1004,0
DA:1005,0
DA:1006,0
DA:1007,0
DA:1010,0
DA:1011,0
DA:1014,0
DA:1015,0
DA:1016,0
DA:1019,0
DA:1020,0
DA:1021,0
DA:1022,0
DA:1023,0
DA:1024,0
DA:1025,0
DA:1026,0
DA:1029,0
DA:1030,0
DA:1033,10
DA:1034,10
DA:1035,3
DA:1036,7
DA:1037,0
DA:1038,0
DA:1040,10
DA:1043,16
DA:1045,16
DA:1046,11
DA:1047,11
DA:1048,11
DA:1049,5
DA:1050,4
DA:1052,1
DA:1056,16
DA:1057,16
DA:1058,16
DA:1059,16
DA:1060,2
DA:1061,1
DA:1062,1
DA:1063,1
DA:1064,1
DA:1065,1
DA:1066,1
DA:1067,1
DA:1068,1
DA:1070,2
DA:1071,2
DA:1072,16
DA:1075,16
DA:1076,7
DA:1077,7
DA:1078,7
DA:1079,7
DA:1080,7
DA:1082,7
DA:1083,4
DA:1084,4
DA:1086,4
DA:1087,4
DA:1088,4
DA:1089,4
DA:1092,3
DA:1094,7
DA:1095,7
DA:1096,7
DA:1097,7
DA:1099,7
DA:1100,7
DA:1101,7
DA:1104,16
DA:1105,16
DA:1106,16
DA:1107,16
DA:1108,16
DA:1109,16
DA:1110,16
DA:1111,16
DA:1112,16
DA:1113,16
DA:1114,16
DA:1115,16
DA:1116,16
DA:1117,16
DA:1119,16
DA:1128,1
DA:1129,1
DA:1130,1
DA:1131,1
DA:1132,1
DA:1133,1
DA:1134,1
DA:1135,1
DA:1136,1
DA:1137,1
DA:1138,1
DA:1141,1
DA:1142,1
DA:1144,1
DA:1145,1
DA:1146,1
DA:1147,1
DA:1148,1
DA:1149,1
DA:1150,1
DA:1153,1
DA:1154,1
DA:1156,1
DA:1157,1
DA:1158,1
DA:1159,1
DA:1160,1
DA:1161,1
DA:1162,1
DA:1163,1
DA:1166,1
DA:1167,1
DA:1168,1
DA:1169,1
DA:1170,1
DA:1171,1
DA:1172,1
DA:1175,1
DA:1176,1
DA:1178,1
DA:1180,2
DA:1181,1
DA:1182,1
DA:1185,1
DA:1186,1
DA:1188,1
DA:1189,1
DA:1190,1
DA:1191,1
DA:1192,1
DA:1193,1
DA:1194,1
DA:1195,1
DA:1198,1
DA:1199,1
DA:1201,1
DA:1202,1
DA:1203,1
DA:1204,1
DA:1207,1
DA:1208,1
DA:1210,1
DA:1211,1
DA:1212,1
DA:1213,1
DA:1214,1
DA:1215,1
DA:1218,1
DA:1219,1
DA:1221,1
DA:1222,1
DA:1223,1
DA:1224,1
DA:1225,1
DA:1228,1
DA:1232,1
DA:1233,1
DA:1234,1
DA:1235,1
DA:1236,1
DA:1237,1
DA:1238,1
DA:1239,1
DA:1240,1
DA:1241,1
DA:1242,1
DA:1243,1
DA:1244,1
DA:1245,1
DA:1246,1
DA:1247,1
DA:1249,1
DA:1250,1
DA:1252,1
DA:1253,1
DA:1254,1
DA:1255,1
DA:1256,1
DA:1257,1
DA:1259,1
DA:1260,1
DA:1262,1
DA:1263,1
DA:1264,1
DA:1265,1
DA:1266,1
DA:1269,1
DA:1273,1
DA:1274,1
DA:1275,1
DA:1276,1
DA:1277,1
DA:1278,1
DA:1279,1
DA:1280,1
DA:1281,1
DA:1282,1
DA:1284,1
DA:1285,1
DA:1287,1
DA:1288,1
DA:1289,1
DA:1290,1
DA:1291,1
DA:1292,1
DA:1294,1
DA:1295,1
DA:1297,1
DA:1298,1
DA:1299,1
DA:1302,1
DA:1306,1
DA:1307,1
DA:1308,1
DA:1309,1
DA:1310,1
DA:1311,1
DA:1312,1
DA:1313,1
DA:1314,1
DA:1315,1
DA:1317,1
DA:1318,1
DA:1320,1
DA:1321,1
DA:1322,1
DA:1323,1
DA:1324,1
DA:1325,1
DA:1327,1
DA:1328,1
DA:1330,1
DA:1331,1
DA:1334,1
DA:1335,1
DA:1336,1
DA:1339,1
DA:1343,1
DA:1344,1
DA:1345,1
DA:1346,1
DA:1347,1
DA:1348,1
DA:1349,1
DA:1350,1
DA:1351,1
DA:1352,1
DA:1353,1
DA:1354,1
DA:1355,1
DA:1357,1
DA:1358,1
DA:1360,1
DA:1361,1
DA:1363,1
DA:1364,1
DA:1365,1
DA:1366,1
DA:1367,1
DA:1368,1
DA:1369,1
DA:1371,1
DA:1372,1
DA:1375,1
DA:1376,1
DA:1378,1
DA:1379,1
DA:1380,1
DA:1383,1
DA:1387,1
DA:1388,1
DA:1389,1
DA:1390,1
DA:1391,1
DA:1392,1
DA:1393,1
DA:1394,1
DA:1395,1
DA:1396,1
DA:1397,1
DA:1398,1
DA:1399,1
DA:1401,1
DA:1402,1
DA:1404,1
DA:1405,1
DA:1406,1
DA:1407,1
DA:1408,1
DA:1409,1
DA:1411,1
DA:1412,1
DA:1413,1
DA:1419,1
DA:1421,1
DA:1422,1
DA:1423,1
DA:1424,1
DA:1425,1
DA:1428,1
DA:1431,1
DA:1432,1
DA:1433,1
DA:1434,1
DA:1435,1
DA:1436,1
DA:1437,1
DA:1438,1
DA:1439,1
DA:1440,1
DA:1441,1
DA:1442,1
DA:1445,1
DA:1446,1
DA:1447,1
DA:1448,1
DA:1449,1
DA:1450,1
DA:1451,1
DA:1452,1
DA:1453,1
DA:1454,1
DA:1455,1
DA:1456,1
DA:1457,1
DA:1458,1
DA:1459,1
DA:1460,1
DA:1463,1
DA:1464,1
DA:1465,1
DA:1466,1
DA:1468,1
DA:1469,1
DA:1470,1
DA:1471,1
DA:1472,1
DA:1474,1
DA:1475,1
DA:1477,1
DA:1480,1
DA:1481,1
DA:1482,1
DA:1483,1
DA:1485,1
DA:1486,1
DA:1487,1
DA:1488,1
DA:1492,1
DA:1493,1
DA:1494,1
DA:1495,1
DA:1496,1
DA:1500,1
DA:1501,1
DA:1504,1
DA:1507,1
DA:1509,1
DA:1510,1
DA:1511,1
DA:1512,1
DA:1513,1
DA:1514,1
DA:1515,1
DA:1518,1
DA:1519,1
DA:1520,1
DA:1521,1
DA:1522,1
DA:1523,1
DA:1524,1
DA:1525,1
DA:1526,1
DA:1527,1
DA:1528,1
DA:1529,1
DA:1530,1
DA:1531,1
DA:1532,1
DA:1533,1
DA:1535,1
DA:1536,1
DA:1537,1
DA:1538,1
DA:1540,1
DA:1541,1
DA:1542,1
DA:1543,1
DA:1544,1
DA:1546,1
DA:1547,1
DA:1549,1
DA:1552,1
DA:1553,1
DA:1554,1
DA:1555,1
DA:1556,0
DA:1559,1
DA:1562,1
DA:1565,1
DA:1566,1
DA:1567,1
DA:1568,1
DA:1569,1
DA:1570,1
DA:1571,1
DA:1572,1
DA:1573,1
DA:1576,1
DA:1577,1
DA:1578,1
DA:1579,1
DA:1580,1
DA:1581,1
DA:1582,1
DA:1583,1
DA:1584,1
DA:1585,1
DA:1586,1
DA:1587,1
DA:1588,1
DA:1589,1
DA:1590,1
DA:1591,1
DA:1593,1
DA:1594,1
DA:1595,1
DA:1596,1
DA:1599,1
DA:1600,1
DA:1601,1
DA:1602,1
DA:1603,1
DA:1605,1
DA:1606,1
DA:1608,1
DA:1611,1
DA:1612,1
DA:1613,1
DA:1614,1
DA:1617,1
DA:1620,1
DA:1622,1
DA:1623,1
DA:1624,1
DA:1625,1
DA:1626,1
DA:1627,1
DA:1628,1
DA:1631,1
DA:1632,1
DA:1633,1
DA:1634,1
DA:1635,1
DA:1636,1
DA:1637,1
DA:1638,1
DA:1639,1
DA:1640,1
DA:1641,1
DA:1642,1
DA:1643,1
DA:1644,1
DA:1645,1
DA:1646,1
DA:1648,1
DA:1649,1
DA:1650,1
DA:1651,1
DA:1654,1
DA:1655,1
DA:1656,1
DA:1657,1
DA:1658,1
DA:1660,1
DA:1661,1
DA:1663,1
DA:1666,1
DA:1667,1
DA:1668,0
DA:1671,1
DA:1682,8
DA:1683,8
DA:1684,8
DA:1685,8
DA:1686,8
DA:1687,8
DA:1688,8
DA:1691,8
DA:1692,8
DA:1693,8
DA:1694,8
DA:1695,8
DA:1696,8
DA:1697,8
DA:1698,8
DA:1699,8
DA:1700,8
DA:1701,8
DA:1702,8
DA:1703,8
DA:1704,8
DA:1705,8
DA:1706,8
DA:1709,1
DA:1710,1
DA:1711,1
DA:1712,1
DA:1715,1
DA:1716,1
DA:1717,1
DA:1720,1
DA:1721,1
DA:1722,1
DA:1723,1
DA:1725,1
DA:1726,1
DA:1727,1
DA:1728,1
DA:1729,1
DA:1730,1
DA:1732,1
DA:1733,1
DA:1736,1
DA:1737,1
DA:1738,1
DA:1739,1
DA:1742,1
DA:1743,1
DA:1744,1
DA:1745,1
DA:1746,1
DA:1747,1
DA:1749,1
DA:1750,1
DA:1753,1
DA:1756,1
DA:1757,1
DA:1759,1
DA:1760,1
DA:1762,1
DA:1763,1
DA:1764,1
DA:1765,1
DA:1766,1
DA:1767,1
DA:1769,1
DA:1770,1
DA:1773,1
DA:1776,1
DA:1777,1
DA:1779,1
DA:1780,1
DA:1783,1
DA:1784,1
DA:1785,1
DA:1786,1
DA:1787,1
DA:1788,1
DA:1790,1
DA:1791,1
DA:1794,1
DA:1795,1
DA:1796,1
DA:1797,1
DA:1800,1
DA:1801,1
DA:1802,1
DA:1803,1
DA:1804,1
DA:1805,1
DA:1807,1
DA:1808,1
DA:1811,1
DA:1815,1
DA:1816,1
DA:1817,1
DA:1818,1
DA:1819,1
DA:1820,1
DA:1821,1
DA:1823,1
DA:1824,1
DA:1825,1
DA:1826,1
DA:1827,1
DA:1828,1
DA:1829,1
DA:1830,1
DA:1832,1
DA:1833,1
DA:1835,1
DA:1836,1
DA:1837,1
DA:1838,1
DA:1839,1
DA:1840,1
DA:1842,1
DA:1843,1
DA:1846,1
DA:1849,1
DA:1850,1
DA:1852,1
DA:1853,1
DA:1856,1
DA:1857,1
DA:1858,1
DA:1859,1
DA:1860,1
DA:1861,1
DA:1862,1
DA:1865,1
DA:1866,1
DA:1873,1
DA:1876,1
DA:1877,1
DA:1878,1
DA:1879,1
DA:1880,1
DA:1881,1
DA:1882,1
DA:1883,1
DA:1884,1
DA:1885,1
DA:1886,1
DA:1887,1
DA:1888,1
DA:1889,1
DA:1891,1
DA:1893,1
DA:1894,1
DA:1895,1
DA:1896,1
DA:1897,1
DA:1900,1
DA:1903,1
DA:1904,1
DA:1905,1
DA:1906,1
DA:1907,1
DA:1908,1
DA:1909,1
DA:1910,1
DA:1911,1
DA:1912,1
DA:1913,1
DA:1914,1
DA:1915,1
DA:1916,1
DA:1918,1
DA:1920,1
DA:1921,1
DA:1922,1
DA:1923,1
DA:1924,1
DA:1925,1
DA:1928,1
DA:1931,1
DA:1932,1
DA:1933,1
DA:1934,1
DA:1937,1
DA:1938,1
DA:1939,1
DA:1940,1
DA:1941,1
DA:1942,1
DA:1943,1
DA:1944,1
DA:1945,1
DA:1946,1
DA:1947,1
DA:1948,1
DA:1949,1
DA:1950,1
DA:1951,1
DA:1952,1
DA:1953,1
DA:1954,1
DA:1955,1
DA:1957,1
DA:1959,1
DA:1960,1
DA:1961,1
DA:1964,1
DA:1965,1
DA:1966,1
DA:1967,1
DA:1970,1
DA:1973,1
DA:1976,1
DA:1977,1
DA:1978,1
DA:1979,1
DA:1981,1
DA:1982,1
DA:1983,1
DA:1984,1
DA:1985,1
DA:1986,1
DA:1989,1
DA:1990,1
DA:1991,1
DA:1992,1
DA:1993,1
DA:1994,1
DA:1995,1
DA:1996,1
DA:1997,1
DA:1998,1
DA:1999,1
DA:2000,1
DA:2001,1
DA:2002,1
DA:2004,1
DA:2006,1
DA:2009,1
DA:2010,1
DA:2011,1
DA:2014,1
DA:2015,1
DA:2016,1
DA:2017,1
DA:2020,1
DA:2023,1
DA:2024,1
DA:2025,1
DA:2027,1
DA:2028,1
DA:2029,1
DA:2030,1
DA:2031,1
DA:2032,1
DA:2033,1
DA:2034,1
DA:2035,1
DA:2036,1
DA:2037,1
DA:2038,1
DA:2039,1
DA:2040,1
DA:2042,1
DA:2044,1
DA:2045,1
DA:2046,1
DA:2047,1
DA:2050,1
DA:2053,1
DA:2054,1
DA:2055,1
DA:2056,1
DA:2057,1
DA:2058,1
DA:2059,1
DA:2060,1
DA:2061,1
DA:2062,1
DA:2063,1
DA:2064,1
DA:2065,1
DA:2066,1
DA:2067,1
DA:2068,1
DA:2069,1
DA:2070,1
DA:2071,1
DA:2072,1
DA:2074,1
DA:2076,1
DA:2077,1
DA:2079,1
DA:2081,1
DA:2082,1
BRF:0
BRH:0
LF:1378
LH:1193
end_of_record
SF:/Users/rawkode/Code/src/github.com/cuenv/cuenv/crates/ci/src/context.rs
FN:22,_RNvXNtCskfEctF1MPvy_8cuenv_ci7contextNtB2_9CIContextNtNtCskzPJi2J8k3N_4core7default7Default7default
FN:34,_RNvXs_NtCskfEctF1MPvy_8cuenv_ci7contextNtB4_9CIContextNtNtCskzPJi2J8k3N_4core3fmt7Display3fmt
FN:22,_RNvXNtCsilPUL3AyWrc_8cuenv_ci7contextNtB2_9CIContextNtNtCskzPJi2J8k3N_4core7default7Default7default
FN:34,_RNvXs_NtCsilPUL3AyWrc_8cuenv_ci7contextNtB4_9CIContextNtNtCskzPJi2J8k3N_4core3fmt7Display3fmt
FN:114,_RNvNtNtCsilPUL3AyWrc_8cuenv_ci7context5testss_21test_ci_context_debug
FN:51,_RNvNtNtCsilPUL3AyWrc_8cuenv_ci7context5testss_23test_ci_context_default
FN:91,_RNvNtNtCsilPUL3AyWrc_8cuenv_ci7context5testss_24test_ci_context_equality
FN:104,_RNvNtNtCsilPUL3AyWrc_8cuenv_ci7context5testss_26test_ci_context_inequality
FN:122,_RNvNtNtCsilPUL3AyWrc_8cuenv_ci7context5testss_29test_ci_context_with_base_ref
FN:61,_RNvNtNtCsilPUL3AyWrc_8cuenv_ci7context5testss_37test_ci_context_display_with_long_sha
FN:77,_RNvNtNtCsilPUL3AyWrc_8cuenv_ci7context5testss_38test_ci_context_display_with_short_sha
FNDA:0,_RNvXNtCskfEctF1MPvy_8cuenv_ci7contextNtB2_9CIContextNtNtCskzPJi2J8k3N_4core7default7Default7default
FNDA:0,_RNvXs_NtCskfEctF1MPvy_8cuenv_ci7contextNtB4_9CIContextNtNtCskzPJi2J8k3N_4core3fmt7Display3fmt
FNDA:4,_RNvXNtCsilPUL3AyWrc_8cuenv_ci7contextNtB2_9CIContextNtNtCskzPJi2J8k3N_4core7default7Default7default
FNDA:2,_RNvXs_NtCsilPUL3AyWrc_8cuenv_ci7contextNtB4_9CIContextNtNtCskzPJi2J8k3N_4core3fmt7Display3fmt
FNDA:1,_RNvNtNtCsilPUL3AyWrc_8cuenv_ci7context5testss_21test_ci_context_debug
FNDA:1,_RNvNtNtCsilPUL3AyWrc_8cuenv_ci7context5testss_23test_ci_context_default
FNDA:1,_RNvNtNtCsilPUL3AyWrc_8cuenv_ci7context5testss_24test_ci_context_equality
FNDA:1,_RNvNtNtCsilPUL3AyWrc_8cuenv_ci7context5testss_26test_ci_context_inequality
FNDA:1,_RNvNtNtCsilPUL3AyWrc_8cuenv_ci7context5testss_29test_ci_context_with_base_ref
FNDA:1,_RNvNtNtCsilPUL3AyWrc_8cuenv_ci7context5testss_37test_ci_context_display_with_long_sha
FNDA:1,_RNvNtNtCsilPUL3AyWrc_8cuenv_ci7context5testss_38test_ci_context_display_with_short_sha
FNF:9
FNH:9
DA:22,4
DA:23,4
DA:24,4
DA:25,4
DA:26,4
DA:27,4
DA:28,4
DA:29,4
DA:30,4
DA:34,2
DA:35,2
DA:36,2
DA:37,2
DA:41,2
DA:43,2
DA:51,1
DA:52,1
DA:53,1
DA:54,1
DA:55,1
DA:56,1
DA:57,1
DA:58,1
DA:61,1
DA:62,1
DA:63,1
DA:64,1
DA:65,1
DA:66,1
DA:67,1
DA:68,1
DA:69,1
DA:70,1
DA:71,1
DA:72,1
DA:73,1
DA:74,1
DA:77,1
DA:78,1
DA:79,1
DA:80,1
DA:81,1
DA:82,1
DA:83,1
DA:84,1
DA:85,1
DA:86,1
DA:87,1
DA:88,1
DA:91,1
DA:92,1
DA:93,1
DA:94,1
DA:95,1
DA:96,1
DA:97,1
DA:98,1
DA:99,1
DA:100,1
DA:101,1
DA:104,1
DA:105,1
DA:106,1
DA:107,1
DA:108,1
DA:109,1
DA:110,1
DA:111,1
DA:114,1
DA:115,1
DA:116,1
DA:117,1
DA:118,1
DA:119,1
DA:122,1
DA:123,1
DA:124,1
DA:125,1
DA:126,1
DA:127,1
DA:128,1
DA:129,1
DA:130,1
DA:131,1
BRF:0
BRH:0
LF:84
LH:84
end_of_record
SF:/Users/rawkode/Code/src/github.com/cuenv/cuenv/crates/ci/src/diff.rs
FN:217,_RNCNCNvNtCskfEctF1MPvy_8cuenv_ci4diff15compare_reportss2_00B7_
FN:275,_RNCNvNtCskfEctF1MPvy_8cuenv_ci4diff11load_report0B5_
FN:279,_RNCNvNtCskfEctF1MPvy_8cuenv_ci4diff11load_reports_0B5_
FN:157,_RNCNvNtCskfEctF1MPvy_8cuenv_ci4diff15compare_reports0B5_
FN:181,_RNCNvNtCskfEctF1MPvy_8cuenv_ci4diff15compare_reportss0_0B5_
FN:192,_RNCNvNtCskfEctF1MPvy_8cuenv_ci4diff15compare_reportss1_0B5_
FN:216,_RNCNvNtCskfEctF1MPvy_8cuenv_ci4diff15compare_reportss2_0B5_
FN:162,_RNCNvNtCskfEctF1MPvy_8cuenv_ci4diff15compare_reportss_0B5_
FN:289,_RNCNvNtCskfEctF1MPvy_8cuenv_ci4diff17find_first_report0B5_
FN:294,_RNCNvNtCskfEctF1MPvy_8cuenv_ci4diff17find_first_reports_0B5_
FN:217,_RNCNCNvNtCsilPUL3AyWrc_8cuenv_ci4diff15compare_reportss2_00B7_
FN:275,_RNCNvNtCsilPUL3AyWrc_8cuenv_ci4diff11load_report0B5_
FN:279,_RNCNvNtCsilPUL3AyWrc_8cuenv_ci4diff11load_reports_0B5_
FN:157,_RNCNvNtCsilPUL3AyWrc_8cuenv_ci4diff15compare_reports0B5_
FN:181,_RNCNvNtCsilPUL3AyWrc_8cuenv_ci4diff15compare_reportss0_0B5_
FN:192,_RNCNvNtCsilPUL3AyWrc_8cuenv_ci4diff15compare_reportss1_0B5_
FN:216,_RNCNvNtCsilPUL3AyWrc_8cuenv_ci4diff15compare_reportss2_0B5_
FN:162,_RNCNvNtCsilPUL3AyWrc_8cuenv_ci4diff15compare_reportss_0B5_
FN:289,_RNCNvNtCsilPUL3AyWrc_8cuenv_ci4diff17find_first_report0B5_
FN:294,_RNCNvNtCsilPUL3AyWrc_8cuenv_ci4diff17find_first_reports_0B5_
FN:356,_RNvNtNtCsilPUL3AyWrc_8cuenv_ci4diff5tests11make_report
FN:377,_RNvNtNtCsilPUL3AyWrc_8cuenv_ci4diff5tests9make_task
FN:482,_RNvNtNtCsilPUL3AyWrc_8cuenv_ci4diff5testss_15test_task_added
FN:503,_RNvNtNtCsilPUL3AyWrc_8cuenv_ci4diff5testss_17test_task_removed
FN:404,_RNvNtNtCsilPUL3AyWrc_8cuenv_ci4diff5testss_18test_modified_task
FN:538,_RNvNtNtCsilPUL3AyWrc_8cuenv_ci4diff5testss_19test_summary_counts
FN:390,_RNvNtNtCsilPUL3AyWrc_8cuenv_ci4diff5testss_20test_unchanged_tasks
FN:562,_RNvNtNtCsilPUL3AyWrc_8cuenv_ci4diff5testss_22test_format_diff_basic
FN:787,_RNvNtNtCsilPUL3AyWrc_8cuenv_ci4diff5testss_23test_task_no_cache_keys
FN:623,_RNvNtNtCsilPUL3AyWrc_8cuenv_ci4diff5testss_25test_compare_runs_success
FN:775,_RNvNtNtCsilPUL3AyWrc_8cuenv_ci4diff5testss_25test_diff_summary_default
FN:451,_RNvNtNtCsilPUL3AyWrc_8cuenv_ci4diff5testss_26test_diff_error_read_error
FN:803,_RNvNtNtCsilPUL3AyWrc_8cuenv_ci4diff5testss_26test_format_diff_short_sha
FN:700,_RNvNtNtCsilPUL3AyWrc_8cuenv_ci4diff5testss_27test_compare_by_sha_success
FN:463,_RNvNtNtCsilPUL3AyWrc_8cuenv_ci4diff5testss_27test_diff_error_parse_error
FN:427,_RNvNtNtCsilPUL3AyWrc_8cuenv_ci4diff5testss_28test_secret_change_detection
FN:587,_RNvNtNtCsilPUL3AyWrc_8cuenv_ci4diff5testss_29test_format_diff_with_secrets
FN:661,_RNvNtNtCsilPUL3AyWrc_8cuenv_ci4diff5testss_29test_load_report_invalid_json
FN:765,_RNvNtNtCsilPUL3AyWrc_8cuenv_ci4diff5testss_30test_change_type_serialization
FN:474,_RNvNtNtCsilPUL3AyWrc_8cuenv_ci4diff5testss_30test_diff_error_invalid_run_id
FN:733,_RNvNtNtCsilPUL3AyWrc_8cuenv_ci4diff5testss_30test_digest_diff_serialization
FN:685,_RNvNtNtCsilPUL3AyWrc_8cuenv_ci4diff5testss_30test_find_first_report_no_json
FN:675,_RNvNtNtCsilPUL3AyWrc_8cuenv_ci4diff5testss_30test_find_first_report_success
FN:604,_RNvNtNtCsilPUL3AyWrc_8cuenv_ci4diff5testss_30test_format_diff_added_removed
FN:646,_RNvNtNtCsilPUL3AyWrc_8cuenv_ci4diff5testss_32test_compare_runs_file_not_found
FN:443,_RNvNtNtCsilPUL3AyWrc_8cuenv_ci4diff5testss_32test_diff_error_report_not_found
FN:694,_RNvNtNtCsilPUL3AyWrc_8cuenv_ci4diff5testss_37test_find_first_report_dir_not_exists
FN:524,_RNvNtNtCsilPUL3AyWrc_8cuenv_ci4diff5testss_38test_cache_invalidated_no_file_changes
FN:303,_RNvNtCsilPUL3AyWrc_8cuenv_ci4diff11format_diff
FN:270,_RNvNtCsilPUL3AyWrc_8cuenv_ci4diff11load_report
FN:119,_RNvNtCsilPUL3AyWrc_8cuenv_ci4diff12compare_runs
FN:235,_RNvNtCsilPUL3AyWrc_8cuenv_ci4diff13compare_tasks
FN:130,_RNvNtCsilPUL3AyWrc_8cuenv_ci4diff14compare_by_sha
FN:147,_RNvNtCsilPUL3AyWrc_8cuenv_ci4diff15compare_reports
FN:284,_RNvNtCsilPUL3AyWrc_8cuenv_ci4diff17find_first_report
FN:497,_RNCNvNtNtCsilPUL3AyWrc_8cuenv_ci4diff5testss_15test_task_added0B7_
FN:518,_RNCNvNtNtCsilPUL3AyWrc_8cuenv_ci4diff5testss_17test_task_removed0B7_
FNDA:0,_RNCNCNvNtCskfEctF1MPvy_8cuenv_ci4diff15compare_reportss2_00B7_
FNDA:0,_RNCNvNtCskfEctF1MPvy_8cuenv_ci4diff11load_report0B5_
FNDA:0,_RNCNvNtCskfEctF1MPvy_8cuenv_ci4diff11load_reports_0B5_
FNDA:0,_RNCNvNtCskfEctF1MPvy_8cuenv_ci4diff15compare_reports0B5_
FNDA:0,_RNCNvNtCskfEctF1MPvy_8cuenv_ci4diff15compare_reportss0_0B5_
FNDA:0,_RNCNvNtCskfEctF1MPvy_8cuenv_ci4diff15compare_reportss1_0B5_
FNDA:0,_RNCNvNtCskfEctF1MPvy_8cuenv_ci4diff15compare_reportss2_0B5_
FNDA:0,_RNCNvNtCskfEctF1MPvy_8cuenv_ci4diff15compare_reportss_0B5_
FNDA:0,_RNCNvNtCskfEctF1MPvy_8cuenv_ci4diff17find_first_report0B5_
FNDA:0,_RNCNvNtCskfEctF1MPvy_8cuenv_ci4diff17find_first_reports_0B5_
FNDA:12,_RNCNCNvNtCsilPUL3AyWrc_8cuenv_ci4diff15compare_reportss2_00B7_
FNDA:0,_RNCNvNtCsilPUL3AyWrc_8cuenv_ci4diff11load_report0B5_
FNDA:1,_RNCNvNtCsilPUL3AyWrc_8cuenv_ci4diff11load_reports_0B5_
FNDA:15,_RNCNvNtCsilPUL3AyWrc_8cuenv_ci4diff15compare_reports0B5_
FNDA:3,_RNCNvNtCsilPUL3AyWrc_8cuenv_ci4diff15compare_reportss0_0B5_
FNDA:3,_RNCNvNtCsilPUL3AyWrc_8cuenv_ci4diff15compare_reportss1_0B5_
FNDA:6,_RNCNvNtCsilPUL3AyWrc_8cuenv_ci4diff15compare_reportss2_0B5_
FNDA:15,_RNCNvNtCsilPUL3AyWrc_8cuenv_ci4diff15compare_reportss_0B5_
FNDA:0,_RNCNvNtCsilPUL3AyWrc_8cuenv_ci4diff17find_first_report0B5_
FNDA:4,_RNCNvNtCsilPUL3AyWrc_8cuenv_ci4diff17find_first_reports_0B5_
FNDA:28,_RNvNtNtCsilPUL3AyWrc_8cuenv_ci4diff5tests11make_report
FNDA:30,_RNvNtNtCsilPUL3AyWrc_8cuenv_ci4diff5tests9make_task
FNDA:1,_RNvNtNtCsilPUL3AyWrc_8cuenv_ci4diff5testss_15test_task_added
FNDA:1,_RNvNtNtCsilPUL3AyWrc_8cuenv_ci4diff5testss_17test_task_removed
FNDA:1,_RNvNtNtCsilPUL3AyWrc_8cuenv_ci4diff5testss_18test_modified_task
FNDA:1,_RNvNtNtCsilPUL3AyWrc_8cuenv_ci4diff5testss_19test_summary_counts
FNDA:1,_RNvNtNtCsilPUL3AyWrc_8cuenv_ci4diff5testss_20test_unchanged_tasks
FNDA:1,_RNvNtNtCsilPUL3AyWrc_8cuenv_ci4diff5testss_22test_format_diff_basic
FNDA:1,_RNvNtNtCsilPUL3AyWrc_8cuenv_ci4diff5testss_23test_task_no_cache_keys
FNDA:1,_RNvNtNtCsilPUL3AyWrc_8cuenv_ci4diff5testss_25test_compare_runs_success
FNDA:1,_RNvNtNtCsilPUL3AyWrc_8cuenv_ci4diff5testss_25test_diff_summary_default
FNDA:1,_RNvNtNtCsilPUL3AyWrc_8cuenv_ci4diff5testss_26test_diff_error_read_error
FNDA:1,_RNvNtNtCsilPUL3AyWrc_8cuenv_ci4diff5testss_26test_format_diff_short_sha
FNDA:1,_RNvNtNtCsilPUL3AyWrc_8cuenv_ci4diff5testss_27test_compare_by_sha_success
FNDA:1,_RNvNtNtCsilPUL3AyWrc_8cuenv_ci4diff5testss_27test_diff_error_parse_error
FNDA:1,_RNvNtNtCsilPUL3AyWrc_8cuenv_ci4diff5testss_28test_secret_change_detection
FNDA:1,_RNvNtNtCsilPUL3AyWrc_8cuenv_ci4diff5testss_29test_format_diff_with_secrets
FNDA:1,_RNvNtNtCsilPUL3AyWrc_8cuenv_ci4diff5testss_29test_load_report_invalid_json
FNDA:1,_RNvNtNtCsilPUL3AyWrc_8cuenv_ci4diff5testss_30test_change_type_serialization
FNDA:1,_RNvNtNtCsilPUL3AyWrc_8cuenv_ci4diff5testss_30test_diff_error_invalid_run_id
FNDA:1,_RNvNtNtCsilPUL3AyWrc_8cuenv_ci4diff5testss_30test_digest_diff_serialization
FNDA:1,_RNvNtNtCsilPUL3AyWrc_8cuenv_ci4diff5testss_30test_find_first_report_no_json
FNDA:1,_RNvNtNtCsilPUL3AyWrc_8cuenv_ci4diff5testss_30test_find_first_report_success
FNDA:1,_RNvNtNtCsilPUL3AyWrc_8cuenv_ci4diff5testss_30test_format_diff_added_removed
FNDA:1,_RNvNtNtCsilPUL3AyWrc_8cuenv_ci4diff5testss_32test_compare_runs_file_not_found
FNDA:1,_RNvNtNtCsilPUL3AyWrc_8cuenv_ci4diff5testss_32test_diff_error_report_not_found
FNDA:1,_RNvNtNtCsilPUL3AyWrc_8cuenv_ci4diff5testss_37test_find_first_report_dir_not_exists
FNDA:1,_RNvNtNtCsilPUL3AyWrc_8cuenv_ci4diff5testss_38test_cache_invalidated_no_file_changes
FNDA:4,_RNvNtCsilPUL3AyWrc_8cuenv_ci4diff11format_diff
FNDA:6,_RNvNtCsilPUL3AyWrc_8cuenv_ci4diff11load_report
FNDA:3,_RNvNtCsilPUL3AyWrc_8cuenv_ci4diff12compare_runs
FNDA:12,_RNvNtCsilPUL3AyWrc_8cuenv_ci4diff13compare_tasks
FNDA:1,_RNvNtCsilPUL3AyWrc_8cuenv_ci4diff14compare_by_sha
FNDA:14,_RNvNtCsilPUL3AyWrc_8cuenv_ci4diff15compare_reports
FNDA:5,_RNvNtCsilPUL3AyWrc_8cuenv_ci4diff17find_first_report
FNDA:1,_RNCNvNtNtCsilPUL3AyWrc_8cuenv_ci4diff5testss_15test_task_added0B7_
FNDA:1,_RNCNvNtNtCsilPUL3AyWrc_8cuenv_ci4diff5testss_17test_task_removed0B7_
FNF:47
FNH:45
DA:119,3
DA:120,3
DA:121,2
DA:122,2
DA:123,3
DA:130,1
DA:131,1
DA:132,1
DA:133,1
DA:134,1
DA:135,1
DA:136,1
DA:137,1
DA:138,1
DA:139,1
DA:140,1
DA:147,14
DA:148,14
DA:149,14
DA:150,14
DA:151,14
DA:152,14
DA:154,14
DA:155,14
DA:156,14
DA:157,15
DA:158,14
DA:159,14
DA:160,14
DA:161,14
DA:162,15
DA:163,14
DA:165,14
DA:166,14
DA:168,32
DA:169,18
DA:170,18
DA:172,18
DA:173,12
DA:175,3
DA:176,3
DA:177,3
DA:178,3
DA:179,3
DA:181,3
DA:182,3
DA:185,3
DA:186,3
DA:187,3
DA:188,3
DA:189,3
DA:191,3
DA:192,3
DA:194,0
DA:197,18
DA:198,5
DA:199,7
DA:200,3
DA:201,3
DA:203,18
DA:204,4
DA:205,14
DA:206,18
DA:207,3
DA:208,15
DA:209,18
DA:210,0
DA:211,18
DA:213,18
DA:216,14
DA:217,12
DA:218,2
DA:219,0
DA:220,4
DA:221,4
DA:222,2
DA:223,12
DA:224,6
DA:225,6
DA:227,14
DA:228,14
DA:229,14
DA:230,14
DA:231,14
DA:232,14
DA:233,14
DA:235,12
DA:236,12
DA:238,12
DA:239,12
DA:241,12
DA:242,3
DA:243,3
DA:245,12
DA:246,7
DA:247,4
DA:248,4
DA:250,12
DA:251,5
DA:252,7
DA:253,3
DA:255,4
DA:258,12
DA:259,12
DA:260,12
DA:261,12
DA:262,12
DA:263,12
DA:264,12
DA:265,12
DA:266,12
DA:267,12
DA:268,12
DA:270,6
DA:271,6
DA:272,1
DA:273,5
DA:274,5
DA:275,0
DA:276,0
DA:277,0
DA:278,5
DA:279,1
DA:280,1
DA:281,1
DA:282,6
DA:284,5
DA:285,5
DA:286,1
DA:287,4
DA:288,4
DA:289,0
DA:290,0
DA:291,0
DA:292,4
DA:293,4
DA:294,4
DA:295,3
DA:296,1
DA:298,1
DA:299,5
DA:303,4
DA:306,4
DA:307,4
DA:308,4
DA:309,4
DA:310,4
DA:311,4
DA:313,4
DA:314,4
DA:315,4
DA:316,4
DA:317,4
DA:318,4
DA:319,1
DA:320,3
DA:321,4
DA:323,8
DA:324,4
DA:325,0
DA:326,4
DA:327,4
DA:328,1
DA:329,1
DA:330,1
DA:331,1
DA:332,0
DA:334,4
DA:335,4
DA:336,1
DA:337,2
DA:338,1
DA:339,1
DA:340,3
DA:341,4
DA:342,1
DA:343,3
DA:344,4
DA:346,4
DA:347,4
DA:356,28
DA:357,28
DA:358,28
DA:359,28
DA:360,28
DA:361,28
DA:362,28
DA:363,28
DA:364,28
DA:365,28
DA:366,28
DA:367,28
DA:368,28
DA:369,28
DA:370,28
DA:371,28
DA:372,28
DA:373,28
DA:374,28
DA:375,28
DA:377,30
DA:378,30
DA:379,30
DA:380,30
DA:381,30
DA:382,30
DA:383,30
DA:384,30
DA:385,30
DA:386,30
DA:387,30
DA:390,1
DA:391,1
DA:392,1
DA:393,1
DA:395,1
DA:396,1
DA:397,1
DA:399,1
DA:400,1
DA:401,1
DA:404,1
DA:405,1
DA:406,1
DA:407,1
DA:409,1
DA:410,1
DA:411,1
DA:412,1
DA:413,1
DA:414,1
DA:417,1
DA:418,1
DA:419,1
DA:420,1
DA:421,1
DA:422,1
DA:424,1
DA:427,1
DA:428,1
DA:429,1
DA:430,1
DA:432,1
DA:433,1
DA:434,1
DA:436,1
DA:437,1
DA:438,1
DA:443,1
DA:444,1
DA:445,1
DA:446,1
DA:447,1
DA:448,1
DA:451,1
DA:452,1
DA:453,1
DA:454,1
DA:455,1
DA:456,1
DA:457,1
DA:458,1
DA:459,1
DA:460,1
DA:463,1
DA:464,1
DA:465,1
DA:466,1
DA:467,1
DA:468,1
DA:469,1
DA:470,1
DA:471,1
DA:474,1
DA:475,1
DA:476,1
DA:477,1
DA:478,1
DA:479,1
DA:482,1
DA:483,1
DA:484,1
DA:485,1
DA:487,1
DA:488,1
DA:489,1
DA:490,1
DA:491,1
DA:494,1
DA:497,1
DA:498,1
DA:499,1
DA:500,1
DA:503,1
DA:504,1
DA:505,1
DA:506,1
DA:507,1
DA:508,1
DA:511,1
DA:512,1
DA:513,1
DA:515,1
DA:518,1
DA:519,1
DA:520,1
DA:521,1
DA:524,1
DA:525,1
DA:526,1
DA:527,1
DA:529,1
DA:530,1
DA:531,1
DA:533,1
DA:534,1
DA:535,1
DA:538,1
DA:539,1
DA:540,1
DA:541,1
DA:542,1
DA:543,1
DA:546,1
DA:547,1
DA:548,1
DA:549,1
DA:550,1
DA:553,1
DA:555,1
DA:556,1
DA:557,1
DA:558,1
DA:559,1
DA:562,1
DA:563,1
DA:564,1
DA:565,1
DA:567,1
DA:568,1
DA:569,1
DA:570,1
DA:571,1
DA:572,1
DA:575,1
DA:576,1
DA:578,1
DA:579,1
DA:580,1
DA:581,1
DA:582,1
DA:583,1
DA:584,1
DA:587,1
DA:588,1
DA:589,1
DA:590,1
DA:592,1
DA:593,1
DA:594,1
DA:596,1
DA:597,1
DA:599,1
DA:600,1
DA:601,1
DA:604,1
DA:605,1
DA:606,1
DA:607,1
DA:609,1
DA:610,1
DA:611,1
DA:613,1
DA:614,1
DA:616,1
DA:617,1
DA:618,1
DA:619,1
DA:620,1
DA:623,1
DA:624,1
DA:625,1
DA:626,1
DA:628,1
DA:629,1
DA:630,1
DA:632,1
DA:633,1
DA:634,1
DA:637,1
DA:638,1
DA:640,1
DA:641,1
DA:642,1
DA:643,1
DA:646,1
DA:647,1
DA:648,1
DA:649,1
DA:651,1
DA:652,1
DA:653,1
DA:654,1
DA:656,0
DA:658,1
DA:661,1
DA:662,1
DA:663,1
DA:664,1
DA:666,1
DA:667,1
DA:668,1
DA:669,1
DA:670,0
DA:672,1
DA:675,1
DA:676,1
DA:677,1
DA:678,1
DA:680,1
DA:681,1
DA:682,1
DA:685,1
DA:686,1
DA:687,1
DA:689,1
DA:690,1
DA:691,1
DA:694,1
DA:695,1
DA:696,1
DA:697,1
DA:700,1
DA:701,1
DA:702,1
DA:703,1
DA:704,1
DA:705,1
DA:707,1
DA:708,1
DA:709,1
DA:711,1
DA:712,1
DA:713,1
DA:716,1
DA:717,1
DA:718,1
DA:720,1
DA:721,1
DA:722,1
DA:723,1
DA:725,1
DA:727,1
DA:728,1
DA:729,1
DA:730,1
DA:733,1
DA:734,1
DA:735,1
DA:736,1
DA:737,1
DA:738,1
DA:739,1
DA:740,1
DA:741,1
DA:742,1
DA:743,1
DA:744,1
DA:745,1
DA:746,1
DA:747,1
DA:748,1
DA:749,1
DA:750,1
DA:751,1
DA:752,1
DA:753,1
DA:754,1
DA:755,1
DA:756,1
DA:758,1
DA:759,1
DA:760,1
DA:761,1
DA:762,1
DA:765,1
DA:766,1
DA:767,1
DA:768,1
DA:770,1
DA:771,1
DA:772,1
DA:775,1
DA:776,1
DA:777,1
DA:778,1
DA:779,1
DA:780,1
DA:781,1
DA:782,1
DA:783,1
DA:784,1
DA:787,1
DA:788,1
DA:789,1
DA:790,1
DA:792,1
DA:793,1
DA:794,1
DA:796,1
DA:798,1
DA:799,1
DA:800,1
DA:803,1
DA:804,1
DA:805,1
DA:806,1
DA:807,1
DA:810,1
DA:811,1
DA:812,1
BRF:0
BRH:0
LF:532
LH:517
end_of_record
SF:/Users/rawkode/Code/src/github.com/cuenv/cuenv/crates/ci/src/discovery.rs
FN:70,_RNCNCNvNtCskfEctF1MPvy_8cuenv_ci9discovery17discover_projectss1_00B7_
FN:99,_RNCNCNvNtCskfEctF1MPvy_8cuenv_ci9discovery29discover_projects_from_module00B7_
FN:41,_RNCNvNtCskfEctF1MPvy_8cuenv_ci9discovery17discover_projects0B5_
FN:58,_RNCNvNtCskfEctF1MPvy_8cuenv_ci9discovery17discover_projectss0_0B5_
FN:69,_RNCNvNtCskfEctF1MPvy_8cuenv_ci9discovery17discover_projectss1_0B5_
FN:46,_RNCNvNtCskfEctF1MPvy_8cuenv_ci9discovery17discover_projectss_0B5_
FN:98,_RNCNvNtCskfEctF1MPvy_8cuenv_ci9discovery29discover_projects_from_module0B5_
FN:38,_RNvNtCskfEctF1MPvy_8cuenv_ci9discovery17discover_projects
FN:19,_RNvNtCskfEctF1MPvy_8cuenv_ci9discovery20find_cue_module_root
FN:95,_RNvNtCskfEctF1MPvy_8cuenv_ci9discovery29discover_projects_from_module
FN:99,_RNCNCNvNtCsilPUL3AyWrc_8cuenv_ci9discovery29discover_projects_from_module00B7_
FN:98,_RNCNvNtCsilPUL3AyWrc_8cuenv_ci9discovery29discover_projects_from_module0B5_
FN:95,_RNvNtCsilPUL3AyWrc_8cuenv_ci9discovery29discover_projects_from_module
FN:38,_RNvNtCsilPUL3AyWrc_8cuenv_ci9discovery17discover_projects
FN:19,_RNvNtCsilPUL3AyWrc_8cuenv_ci9discovery20find_cue_module_root
FN:70,_RNCNCNvNtCsilPUL3AyWrc_8cuenv_ci9discovery17discover_projectss1_00B7_
FN:41,_RNCNvNtCsilPUL3AyWrc_8cuenv_ci9discovery17discover_projects0B5_
FN:58,_RNCNvNtCsilPUL3AyWrc_8cuenv_ci9discovery17discover_projectss0_0B5_
FN:69,_RNCNvNtCsilPUL3AyWrc_8cuenv_ci9discovery17discover_projectss1_0B5_
FN:46,_RNCNvNtCsilPUL3AyWrc_8cuenv_ci9discovery17discover_projectss_0B5_
FN:188,_RNvNtNtCsilPUL3AyWrc_8cuenv_ci9discovery5testss_32test_discovered_ci_project_clone
FN:202,_RNvNtNtCsilPUL3AyWrc_8cuenv_ci9discovery5testss_32test_discovered_ci_project_debug
FN:126,_RNvNtNtCsilPUL3AyWrc_8cuenv_ci9discovery5testss_33test_discovered_ci_project_fields
FN:260,_RNvNtNtCsilPUL3AyWrc_8cuenv_ci9discovery5testss_35test_find_cue_module_root_from_root
FN:246,_RNvNtNtCsilPUL3AyWrc_8cuenv_ci9discovery5testss_35test_find_cue_module_root_not_found
FN:276,_RNvNtNtCsilPUL3AyWrc_8cuenv_ci9discovery5testss_39test_find_cue_module_root_deeply_nested
FN:219,_RNvNtNtCsilPUL3AyWrc_8cuenv_ci9discovery5testss_41test_find_cue_module_root_from_nested_dir
FN:340,_RNvNtNtCsilPUL3AyWrc_8cuenv_ci9discovery5testss_42test_find_cue_module_root_nonexistent_path
FN:152,_RNvNtNtCsilPUL3AyWrc_8cuenv_ci9discovery5testss_45test_discovered_ci_project_root_relative_path
FN:300,_RNvNtNtCsilPUL3AyWrc_8cuenv_ci9discovery5testss_46test_find_cue_module_root_cue_mod_file_not_dir
FN:315,_RNvNtNtCsilPUL3AyWrc_8cuenv_ci9discovery5testss_46test_find_cue_module_root_intermediate_cue_mod
FN:169,_RNvNtNtCsilPUL3AyWrc_8cuenv_ci9discovery5testss_47test_discovered_ci_project_nested_relative_path
FNDA:0,_RNCNCNvNtCskfEctF1MPvy_8cuenv_ci9discovery17discover_projectss1_00B7_
FNDA:12,_RNCNCNvNtCskfEctF1MPvy_8cuenv_ci9discovery29discover_projects_from_module00B7_
FNDA:0,_RNCNvNtCskfEctF1MPvy_8cuenv_ci9discovery17discover_projects0B5_
FNDA:0,_RNCNvNtCskfEctF1MPvy_8cuenv_ci9discovery17discover_projectss0_0B5_
FNDA:0,_RNCNvNtCskfEctF1MPvy_8cuenv_ci9discovery17discover_projectss1_0B5_
FNDA:0,_RNCNvNtCskfEctF1MPvy_8cuenv_ci9discovery17discover_projectss_0B5_
FNDA:12,_RNCNvNtCskfEctF1MPvy_8cuenv_ci9discovery29discover_projects_from_module0B5_
FNDA:0,_RNvNtCskfEctF1MPvy_8cuenv_ci9discovery17discover_projects
FNDA:0,_RNvNtCskfEctF1MPvy_8cuenv_ci9discovery20find_cue_module_root
FNDA:9,_RNvNtCskfEctF1MPvy_8cuenv_ci9discovery29discover_projects_from_module
FNDA:0,_RNCNCNvNtCsilPUL3AyWrc_8cuenv_ci9discovery29discover_projects_from_module00B7_
FNDA:0,_RNCNvNtCsilPUL3AyWrc_8cuenv_ci9discovery29discover_projects_from_module0B5_
FNDA:0,_RNvNtCsilPUL3AyWrc_8cuenv_ci9discovery29discover_projects_from_module
FNDA:0,_RNvNtCsilPUL3AyWrc_8cuenv_ci9discovery17discover_projects
FNDA:7,_RNvNtCsilPUL3AyWrc_8cuenv_ci9discovery20find_cue_module_root
FNDA:0,_RNCNCNvNtCsilPUL3AyWrc_8cuenv_ci9discovery17discover_projectss1_00B7_
FNDA:0,_RNCNvNtCsilPUL3AyWrc_8cuenv_ci9discovery17discover_projects0B5_
FNDA:0,_RNCNvNtCsilPUL3AyWrc_8cuenv_ci9discovery17discover_projectss0_0B5_
FNDA:0,_RNCNvNtCsilPUL3AyWrc_8cuenv_ci9discovery17discover_projectss1_0B5_
FNDA:0,_RNCNvNtCsilPUL3AyWrc_8cuenv_ci9discovery17discover_projectss_0B5_
FNDA:1,_RNvNtNtCsilPUL3AyWrc_8cuenv_ci9discovery5testss_32test_discovered_ci_project_clone
FNDA:1,_RNvNtNtCsilPUL3AyWrc_8cuenv_ci9discovery5testss_32test_discovered_ci_project_debug
FNDA:1,_RNvNtNtCsilPUL3AyWrc_8cuenv_ci9discovery5testss_33test_discovered_ci_project_fields
FNDA:1,_RNvNtNtCsilPUL3AyWrc_8cuenv_ci9discovery5testss_35test_find_cue_module_root_from_root
FNDA:1,_RNvNtNtCsilPUL3AyWrc_8cuenv_ci9discovery5testss_35test_find_cue_module_root_not_found
FNDA:1,_RNvNtNtCsilPUL3AyWrc_8cuenv_ci9discovery5testss_39test_find_cue_module_root_deeply_nested
FNDA:1,_RNvNtNtCsilPUL3AyWrc_8cuenv_ci9discovery5testss_41test_find_cue_module_root_from_nested_dir
FNDA:1,_RNvNtNtCsilPUL3AyWrc_8cuenv_ci9discovery5testss_42test_find_cue_module_root_nonexistent_path
FNDA:1,_RNvNtNtCsilPUL3AyWrc_8cuenv_ci9discovery5testss_45test_discovered_ci_project_root_relative_path
FNDA:1,_RNvNtNtCsilPUL3AyWrc_8cuenv_ci9discovery5testss_46test_find_cue_module_root_cue_mod_file_not_dir
FNDA:1,_RNvNtNtCsilPUL3AyWrc_8cuenv_ci9discovery5testss_46test_find_cue_module_root_intermediate_cue_mod
FNDA:1,_RNvNtNtCsilPUL3AyWrc_8cuenv_ci9discovery5testss_47test_discovered_ci_project_nested_relative_path
FNF:22
FNH:16
DA:19,7
DA:20,7
DA:22,29
DA:23,4
DA:24,25
DA:25,25
DA:26,2
DA:27,23
DA:29,7
DA:38,0
DA:40,0
DA:41,0
DA:42,0
DA:43,0
DA:44,0
DA:46,0
DA:47,0
DA:50,0
DA:53,0
DA:54,0
DA:55,0
DA:56,0
DA:57,0
DA:58,0
DA:60,0
DA:61,0
DA:62,0
DA:63,0
DA:67,0
DA:68,0
DA:69,0
DA:70,0
DA:72,0
DA:75,0
DA:77,0
DA:78,0
DA:79,0
DA:80,0
DA:81,0
DA:82,0
DA:83,0
DA:84,0
DA:85,0
DA:87,0
DA:88,0
DA:95,9
DA:96,9
DA:97,9
DA:98,12
DA:99,12
DA:101,12
DA:104,12
DA:106,12
DA:107,12
DA:108,12
DA:109,12
DA:110,12
DA:111,12
DA:112,12
DA:113,12
DA:114,9
DA:115,9
DA:126,1
DA:127,1
DA:128,1
DA:129,1
DA:130,1
DA:131,1
DA:132,1
DA:134,1
DA:136,1
DA:137,0
DA:139,1
DA:141,1
DA:142,0
DA:144,1
DA:146,1
DA:147,0
DA:149,1
DA:152,1
DA:154,1
DA:155,1
DA:156,1
DA:157,1
DA:158,1
DA:159,1
DA:161,1
DA:163,1
DA:164,0
DA:166,1
DA:169,1
DA:171,1
DA:172,1
DA:173,1
DA:174,1
DA:175,1
DA:176,1
DA:177,1
DA:178,1
DA:180,1
DA:182,1
DA:183,0
DA:185,1
DA:188,1
DA:189,1
DA:190,1
DA:191,1
DA:192,1
DA:193,1
DA:194,1
DA:196,1
DA:197,1
DA:198,1
DA:199,1
DA:202,1
DA:203,1
DA:204,1
DA:205,1
DA:206,1
DA:207,1
DA:208,1
DA:210,1
DA:211,1
DA:212,1
DA:219,1
DA:223,1
DA:224,1
DA:227,1
DA:230,1
DA:231,1
DA:234,1
DA:235,1
DA:237,1
DA:238,1
DA:239,1
DA:240,1
DA:241,0
DA:243,1
DA:246,1
DA:249,1
DA:252,1
DA:253,1
DA:254,1
DA:255,0
DA:257,1
DA:260,1
DA:264,1
DA:265,1
DA:268,1
DA:271,1
DA:272,1
DA:273,1
DA:276,1
DA:280,1
DA:281,1
DA:284,1
DA:287,1
DA:288,1
DA:291,1
DA:292,1
DA:293,1
DA:294,1
DA:295,1
DA:297,1
DA:300,1
DA:304,1
DA:305,1
DA:308,1
DA:310,1
DA:311,1
DA:312,1
DA:315,1
DA:319,1
DA:320,1
DA:323,1
DA:324,1
DA:327,1
DA:328,1
DA:331,1
DA:332,1
DA:333,1
DA:334,1
DA:335,1
DA:337,1
DA:340,1
DA:341,1
DA:342,1
DA:343,1
DA:344,1
BRF:0
BRH:0
LF:197
LH:148
end_of_record
SF:/Users/rawkode/Code/src/github.com/cuenv/cuenv/crates/ci/src/emitter.rs
FN:88,_RNvYpNtNtCskfEctF1MPvy_8cuenv_ci7emitter7Emitter11descriptionB7_
FN:99,_RNvYpNtNtCskfEctF1MPvy_8cuenv_ci7emitter7Emitter8validateB7_
FN:88,_RNvYpNtNtCsilPUL3AyWrc_8cuenv_ci7emitter7Emitter11descriptionB7_
FN:99,_RNvYNtNtNtCsilPUL3AyWrc_8cuenv_ci7emitter5tests11TestEmitterNtB6_7Emitter8validateB8_
FN:128,_RNvNtNtCsilPUL3AyWrc_8cuenv_ci7emitter5testss_18test_emitter_trait
FN:152,_RNvNtNtCsilPUL3AyWrc_8cuenv_ci7emitter5testss_23test_default_validation
FN:118,_RNvXNtNtCsilPUL3AyWrc_8cuenv_ci7emitter5testsNtB2_11TestEmitterNtB4_7Emitter11format_name
FN:122,_RNvXNtNtCsilPUL3AyWrc_8cuenv_ci7emitter5testsNtB2_11TestEmitterNtB4_7Emitter14file_extension
FN:114,_RNvXNtNtCsilPUL3AyWrc_8cuenv_ci7emitter5testsNtB2_11TestEmitterNtB4_7Emitter4emit
FNDA:0,_RNvYpNtNtCskfEctF1MPvy_8cuenv_ci7emitter7Emitter11descriptionB7_
FNDA:0,_RNvYpNtNtCskfEctF1MPvy_8cuenv_ci7emitter7Emitter8validateB7_
FNDA:0,_RNvYpNtNtCsilPUL3AyWrc_8cuenv_ci7emitter7Emitter11descriptionB7_
FNDA:1,_RNvYNtNtNtCsilPUL3AyWrc_8cuenv_ci7emitter5tests11TestEmitterNtB6_7Emitter8validateB8_
FNDA:1,_RNvNtNtCsilPUL3AyWrc_8cuenv_ci7emitter5testss_18test_emitter_trait
FNDA:1,_RNvNtNtCsilPUL3AyWrc_8cuenv_ci7emitter5testss_23test_default_validation
FNDA:1,_RNvXNtNtCsilPUL3AyWrc_8cuenv_ci7emitter5testsNtB2_11TestEmitterNtB4_7Emitter11format_name
FNDA:1,_RNvXNtNtCsilPUL3AyWrc_8cuenv_ci7emitter5testsNtB2_11TestEmitterNtB4_7Emitter14file_extension
FNDA:1,_RNvXNtNtCsilPUL3AyWrc_8cuenv_ci7emitter5testsNtB2_11TestEmitterNtB4_7Emitter4emit
FNF:7
FNH:6
DA:88,0
DA:89,0
DA:90,0
DA:99,1
DA:101,1
DA:102,1
DA:103,1
DA:114,1
DA:115,1
DA:116,1
DA:118,1
DA:119,1
DA:120,1
DA:122,1
DA:123,1
DA:124,1
DA:128,1
DA:129,1
DA:130,1
DA:131,1
DA:132,1
DA:133,1
DA:134,1
DA:135,1
DA:136,1
DA:137,1
DA:138,1
DA:139,1
DA:140,1
DA:141,1
DA:142,1
DA:143,1
DA:145,1
DA:146,1
DA:147,1
DA:148,1
DA:149,1
DA:152,1
DA:153,1
DA:154,1
DA:155,1
DA:156,1
DA:157,1
DA:158,1
DA:159,1
DA:160,1
DA:161,1
DA:162,1
DA:163,1
DA:164,1
DA:165,1
DA:166,1
DA:167,1
DA:169,1
DA:170,1
BRF:0
BRH:0
LF:55
LH:52
end_of_record
SF:/Users/rawkode/Code/src/github.com/cuenv/cuenv/crates/ci/src/executor/backend.rs
FN:66,_RINvMNtNtCskfEctF1MPvy_8cuenv_ci8executor7backendNtB3_12BackendError15io_with_contextRNtNtCsiThrkg7suPy_3std4path4PathEB7_
FN:66,_RINvMNtNtCskfEctF1MPvy_8cuenv_ci8executor7backendNtB3_12BackendError15io_with_contextRNtNtCsiThrkg7suPy_3std4path7PathBufEB7_
FN:106,_RINvMs_NtNtCskfEctF1MPvy_8cuenv_ci8executor7backendNtB5_17CacheLookupResult3hitReEB9_
FN:96,_RINvMs_NtNtCskfEctF1MPvy_8cuenv_ci8executor7backendNtB5_17CacheLookupResult4missReEB9_
FN:58,_RNvMNtNtCskfEctF1MPvy_8cuenv_ci8executor7backendNtB2_12BackendError24is_gracefully_degradable
FN:219,_RNvNtNtCskfEctF1MPvy_8cuenv_ci8executor7backend18policy_allows_read
FN:225,_RNvNtNtCskfEctF1MPvy_8cuenv_ci8executor7backend19policy_allows_write
FN:371,_RNvNtNtNtCsilPUL3AyWrc_8cuenv_ci8executor7backend5testss_20test_io_with_context
FN:444,_RNvNtNtNtCsilPUL3AyWrc_8cuenv_ci8executor7backend5testss_22test_cache_entry_clone
FN:278,_RNvNtNtNtCsilPUL3AyWrc_8cuenv_ci8executor7backend5testss_23test_cache_entry_fields
FN:431,_RNvNtNtNtCsilPUL3AyWrc_8cuenv_ci8executor7backend5testss_23test_cache_output_clone
FN:317,_RNvNtNtNtCsilPUL3AyWrc_8cuenv_ci8executor7backend5testss_23test_policy_allows_read
FN:234,_RNvNtNtNtCsilPUL3AyWrc_8cuenv_ci8executor7backend5testss_24test_cache_lookup_result
FN:256,_RNvNtNtNtCsilPUL3AyWrc_8cuenv_ci8executor7backend5testss_24test_cache_output_fields
FN:325,_RNvNtNtNtCsilPUL3AyWrc_8cuenv_ci8executor7backend5testss_24test_policy_allows_write
FN:384,_RNvNtNtNtCsilPUL3AyWrc_8cuenv_ci8executor7backend5testss_26test_backend_error_display
FN:416,_RNvNtNtNtCsilPUL3AyWrc_8cuenv_ci8executor7backend5testss_26test_backend_error_from_io
FN:268,_RNvNtNtNtCsilPUL3AyWrc_8cuenv_ci8executor7backend5testss_28test_cache_output_executable
FN:293,_RNvNtNtNtCsilPUL3AyWrc_8cuenv_ci8executor7backend5testss_29test_cache_entry_with_outputs
FN:333,_RNvNtNtNtCsilPUL3AyWrc_8cuenv_ci8executor7backend5testss_29test_is_gracefully_degradable
FN:247,_RNvNtNtNtCsilPUL3AyWrc_8cuenv_ci8executor7backend5testss_30test_cache_lookup_result_clone
FN:423,_RNvNtNtNtCsilPUL3AyWrc_8cuenv_ci8executor7backend5testss_30test_cache_lookup_result_debug
FN:58,_RNvMNtNtCsilPUL3AyWrc_8cuenv_ci8executor7backendNtB2_12BackendError24is_gracefully_degradable
FN:219,_RNvNtNtCsilPUL3AyWrc_8cuenv_ci8executor7backend18policy_allows_read
FN:225,_RNvNtNtCsilPUL3AyWrc_8cuenv_ci8executor7backend19policy_allows_write
FN:66,_RINvMNtNtCsilPUL3AyWrc_8cuenv_ci8executor7backendNtB3_12BackendError15io_with_contextRNtNtCsiThrkg7suPy_3std4path4PathEB7_
FN:66,_RINvMNtNtCsilPUL3AyWrc_8cuenv_ci8executor7backendNtB3_12BackendError15io_with_contextRNtNtCsiThrkg7suPy_3std4path7PathBufEB7_
FN:66,_RINvMNtNtCsilPUL3AyWrc_8cuenv_ci8executor7backendNtB3_12BackendError15io_with_contextReEB7_
FN:106,_RINvMs_NtNtCsilPUL3AyWrc_8cuenv_ci8executor7backendNtB5_17CacheLookupResult3hitReEB9_
FN:96,_RINvMs_NtNtCsilPUL3AyWrc_8cuenv_ci8executor7backendNtB5_17CacheLookupResult4missReEB9_
FNDA:0,_RINvMNtNtCskfEctF1MPvy_8cuenv_ci8executor7backendNtB3_12BackendError15io_with_contextRNtNtCsiThrkg7suPy_3std4path4PathEB7_
FNDA:0,_RINvMNtNtCskfEctF1MPvy_8cuenv_ci8executor7backendNtB3_12BackendError15io_with_contextRNtNtCsiThrkg7suPy_3std4path7PathBufEB7_
FNDA:0,_RINvMs_NtNtCskfEctF1MPvy_8cuenv_ci8executor7backendNtB5_17CacheLookupResult3hitReEB9_
FNDA:0,_RINvMs_NtNtCskfEctF1MPvy_8cuenv_ci8executor7backendNtB5_17CacheLookupResult4missReEB9_
FNDA:0,_RNvMNtNtCskfEctF1MPvy_8cuenv_ci8executor7backendNtB2_12BackendError24is_gracefully_degradable
FNDA:0,_RNvNtNtCskfEctF1MPvy_8cuenv_ci8executor7backend18policy_allows_read
FNDA:0,_RNvNtNtCskfEctF1MPvy_8cuenv_ci8executor7backend19policy_allows_write
FNDA:1,_RNvNtNtNtCsilPUL3AyWrc_8cuenv_ci8executor7backend5testss_20test_io_with_context
FNDA:1,_RNvNtNtNtCsilPUL3AyWrc_8cuenv_ci8executor7backend5testss_22test_cache_entry_clone
FNDA:1,_RNvNtNtNtCsilPUL3AyWrc_8cuenv_ci8executor7backend5testss_23test_cache_entry_fields
FNDA:1,_RNvNtNtNtCsilPUL3AyWrc_8cuenv_ci8executor7backend5testss_23test_cache_output_clone
FNDA:1,_RNvNtNtNtCsilPUL3AyWrc_8cuenv_ci8executor7backend5testss_23test_policy_allows_read
FNDA:1,_RNvNtNtNtCsilPUL3AyWrc_8cuenv_ci8executor7backend5testss_24test_cache_lookup_result
FNDA:1,_RNvNtNtNtCsilPUL3AyWrc_8cuenv_ci8executor7backend5testss_24test_cache_output_fields
FNDA:1,_RNvNtNtNtCsilPUL3AyWrc_8cuenv_ci8executor7backend5testss_24test_policy_allows_write
FNDA:1,_RNvNtNtNtCsilPUL3AyWrc_8cuenv_ci8executor7backend5testss_26test_backend_error_display
FNDA:1,_RNvNtNtNtCsilPUL3AyWrc_8cuenv_ci8executor7backend5testss_26test_backend_error_from_io
FNDA:1,_RNvNtNtNtCsilPUL3AyWrc_8cuenv_ci8executor7backend5testss_28test_cache_output_executable
FNDA:1,_RNvNtNtNtCsilPUL3AyWrc_8cuenv_ci8executor7backend5testss_29test_cache_entry_with_outputs
FNDA:1,_RNvNtNtNtCsilPUL3AyWrc_8cuenv_ci8executor7backend5testss_29test_is_gracefully_degradable
FNDA:1,_RNvNtNtNtCsilPUL3AyWrc_8cuenv_ci8executor7backend5testss_30test_cache_lookup_result_clone
FNDA:1,_RNvNtNtNtCsilPUL3AyWrc_8cuenv_ci8executor7backend5testss_30test_cache_lookup_result_debug
FNDA:8,_RNvMNtNtCsilPUL3AyWrc_8cuenv_ci8executor7backendNtB2_12BackendError24is_gracefully_degradable
FNDA:8,_RNvNtNtCsilPUL3AyWrc_8cuenv_ci8executor7backend18policy_allows_read
FNDA:8,_RNvNtNtCsilPUL3AyWrc_8cuenv_ci8executor7backend19policy_allows_write
FNDA:0,_RINvMNtNtCsilPUL3AyWrc_8cuenv_ci8executor7backendNtB3_12BackendError15io_with_contextRNtNtCsiThrkg7suPy_3std4path4PathEB7_
FNDA:0,_RINvMNtNtCsilPUL3AyWrc_8cuenv_ci8executor7backendNtB3_12BackendError15io_with_contextRNtNtCsiThrkg7suPy_3std4path7PathBufEB7_
FNDA:1,_RINvMNtNtCsilPUL3AyWrc_8cuenv_ci8executor7backendNtB3_12BackendError15io_with_contextReEB7_
FNDA:3,_RINvMs_NtNtCsilPUL3AyWrc_8cuenv_ci8executor7backendNtB5_17CacheLookupResult3hitReEB9_
FNDA:5,_RINvMs_NtNtCsilPUL3AyWrc_8cuenv_ci8executor7backendNtB5_17CacheLookupResult4missReEB9_
FNF:21
FNH:21
DA:58,8
DA:59,5
DA:60,8
DA:63,8
DA:66,1
DA:67,1
DA:68,1
DA:69,1
DA:70,1
DA:71,1
DA:72,1
DA:73,1
DA:74,1
DA:75,1
DA:76,1
DA:96,5
DA:97,5
DA:98,5
DA:99,5
DA:100,5
DA:101,5
DA:102,5
DA:106,3
DA:107,3
DA:108,3
DA:109,3
DA:110,3
DA:111,3
DA:112,3
DA:219,8
DA:220,8
DA:221,8
DA:225,8
DA:226,8
DA:227,8
DA:234,1
DA:235,1
DA:236,1
DA:237,1
DA:238,1
DA:240,1
DA:241,1
DA:242,1
DA:243,1
DA:244,1
DA:247,1
DA:248,1
DA:249,1
DA:250,1
DA:251,1
DA:252,1
DA:253,1
DA:256,1
DA:257,1
DA:258,1
DA:259,1
DA:260,1
DA:261,1
DA:262,1
DA:263,1
DA:264,1
DA:265,1
DA:268,1
DA:269,1
DA:270,1
DA:271,1
DA:272,1
DA:273,1
DA:274,1
DA:275,1
DA:278,1
DA:279,1
DA:280,1
DA:281,1
DA:282,1
DA:283,1
DA:284,1
DA:285,1
DA:286,1
DA:287,1
DA:288,1
DA:289,1
DA:290,1
DA:293,1
DA:294,1
DA:295,1
DA:296,1
DA:297,1
DA:298,1
DA:299,1
DA:300,1
DA:301,1
DA:302,1
DA:303,1
DA:304,1
DA:305,1
DA:306,1
DA:307,1
DA:308,1
DA:309,1
DA:310,1
DA:311,1
DA:312,1
DA:313,1
DA:314,1
DA:317,1
DA:318,1
DA:319,1
DA:320,1
DA:321,1
DA:322,1
DA:325,1
DA:326,1
DA:327,1
DA:328,1
DA:329,1
DA:330,1
DA:333,1
DA:335,1
DA:336,1
DA:337,1
DA:338,1
DA:339,1
DA:340,1
DA:341,1
DA:345,1
DA:346,1
DA:347,1
DA:348,1
DA:349,1
DA:350,1
DA:351,1
DA:352,1
DA:354,1
DA:355,1
DA:356,1
DA:357,1
DA:358,1
DA:359,1
DA:360,1
DA:362,1
DA:363,1
DA:364,1
DA:365,1
DA:366,1
DA:368,1
DA:371,1
DA:372,1
DA:375,1
DA:377,1
DA:378,1
DA:379,1
DA:380,1
DA:381,1
DA:384,1
DA:385,1
DA:386,1
DA:388,1
DA:389,1
DA:391,1
DA:392,1
DA:394,1
DA:395,1
DA:397,1
DA:398,1
DA:399,1
DA:400,1
DA:401,1
DA:402,1
DA:404,1
DA:405,1
DA:406,1
DA:407,1
DA:409,1
DA:410,1
DA:411,1
DA:412,1
DA:413,1
DA:416,1
DA:417,1
DA:418,1
DA:419,1
DA:420,1
DA:423,1
DA:424,1
DA:425,1
DA:426,1
DA:427,1
DA:428,1
DA:431,1
DA:432,1
DA:433,1
DA:434,1
DA:435,1
DA:436,1
DA:437,1
DA:438,1
DA:439,1
DA:440,1
DA:441,1
DA:444,1
DA:445,1
DA:446,1
DA:447,1
DA:448,1
DA:449,1
DA:450,1
DA:451,1
DA:452,1
DA:453,1
DA:454,1
DA:455,1
BRF:0
BRH:0
LF:212
LH:212
end_of_record
SF:/Users/rawkode/Code/src/github.com/cuenv/cuenv/crates/ci/src/executor/cache.rs
FN:303,_RINvMs_NtNtCskfEctF1MPvy_8cuenv_ci8executor5cacheNtB5_17LocalCacheBackend3newpEB9_
FN:310,_RNvMs_NtNtCskfEctF1MPvy_8cuenv_ci8executor5cacheNtB4_17LocalCacheBackend10cache_path
FN:315,_RNvMs_NtNtCskfEctF1MPvy_8cuenv_ci8executor5cacheNtB4_17LocalCacheBackend12outputs_path
FN:132,_RNvNtNtCskfEctF1MPvy_8cuenv_ci8executor5cache11check_cache
FN:196,_RNvNtNtCskfEctF1MPvy_8cuenv_ci8executor5cache12store_result
FN:267,_RNvNtNtCskfEctF1MPvy_8cuenv_ci8executor5cache13load_metadata
FN:567,_RNvNtNtCskfEctF1MPvy_8cuenv_ci8executor5cache18is_file_executable
FN:110,_RNvNtNtCskfEctF1MPvy_8cuenv_ci8executor5cache21cache_path_for_digest
FN:549,_RNvNtNtCskfEctF1MPvy_8cuenv_ci8executor5cache7walkdir
FN:277,_RNvNtNtCskfEctF1MPvy_8cuenv_ci8executor5cache9load_logs
FN:540,_RNvXsf_NtNtCskfEctF1MPvy_8cuenv_ci8executor5cacheNtB5_17LocalCacheBackendNtNtB7_7backend12CacheBackend12health_check
FN:469,_RNvXsf_NtNtCskfEctF1MPvy_8cuenv_ci8executor5cacheNtB5_17LocalCacheBackendNtNtB7_7backend12CacheBackend15restore_outputs
FN:536,_RNvXsf_NtNtCskfEctF1MPvy_8cuenv_ci8executor5cacheNtB5_17LocalCacheBackendNtNtB7_7backend12CacheBackend4name
FN:327,_RNvXsf_NtNtCskfEctF1MPvy_8cuenv_ci8executor5cacheNtB5_17LocalCacheBackendNtNtB7_7backend12CacheBackend5check
FN:376,_RNvXsf_NtNtCskfEctF1MPvy_8cuenv_ci8executor5cacheNtB5_17LocalCacheBackendNtNtB7_7backend12CacheBackend5store
FN:530,_RNvXsf_NtNtCskfEctF1MPvy_8cuenv_ci8executor5cacheNtB5_17LocalCacheBackendNtNtB7_7backend12CacheBackend8get_logs
FN:56,_RINvMNtNtCskfEctF1MPvy_8cuenv_ci8executor5cacheNtB3_10CacheError15io_with_contextRNtNtCsiThrkg7suPy_3std4path7PathBufEB7_
FN:543,_RNCNCNvXsf_NtNtCskfEctF1MPvy_8cuenv_ci8executor5cacheNtB9_17LocalCacheBackendNtNtBb_7backend12CacheBackend12health_check00Bd_
FN:479,_RNCNCNvXsf_NtNtCskfEctF1MPvy_8cuenv_ci8executor5cacheNtB9_17LocalCacheBackendNtNtBb_7backend12CacheBackend15restore_outputs00Bd_
FN:488,_RNCNCNvXsf_NtNtCskfEctF1MPvy_8cuenv_ci8executor5cacheNtB9_17LocalCacheBackendNtNtBb_7backend12CacheBackend15restore_outputs0s0_0Bd_
FN:492,_RNCNCNvXsf_NtNtCskfEctF1MPvy_8cuenv_ci8executor5cacheNtB9_17LocalCacheBackendNtNtBb_7backend12CacheBackend15restore_outputs0s1_0Bd_
FN:496,_RNCNCNvXsf_NtNtCskfEctF1MPvy_8cuenv_ci8executor5cacheNtB9_17LocalCacheBackendNtNtBb_7backend12CacheBackend15restore_outputs0s2_0Bd_
FN:502,_RNCNCNvXsf_NtNtCskfEctF1MPvy_8cuenv_ci8executor5cacheNtB9_17LocalCacheBackendNtNtBb_7backend12CacheBackend15restore_outputs0s3_0Bd_
FN:506,_RNCNCNvXsf_NtNtCskfEctF1MPvy_8cuenv_ci8executor5cacheNtB9_17LocalCacheBackendNtNtBb_7backend12CacheBackend15restore_outputs0s4_0Bd_
FN:483,_RNCNCNvXsf_NtNtCskfEctF1MPvy_8cuenv_ci8executor5cacheNtB9_17LocalCacheBackendNtNtBb_7backend12CacheBackend15restore_outputs0s_0Bd_
FN:388,_RNCNCNvXsf_NtNtCskfEctF1MPvy_8cuenv_ci8executor5cacheNtB9_17LocalCacheBackendNtNtBb_7backend12CacheBackend5store00Bd_
FN:403,_RNCNCNvXsf_NtNtCskfEctF1MPvy_8cuenv_ci8executor5cacheNtB9_17LocalCacheBackendNtNtBb_7backend12CacheBackend5store0s0_0Bd_
FN:408,_RNCNCNvXsf_NtNtCskfEctF1MPvy_8cuenv_ci8executor5cacheNtB9_17LocalCacheBackendNtNtBb_7backend12CacheBackend5store0s1_0Bd_
FN:413,_RNCNCNvXsf_NtNtCskfEctF1MPvy_8cuenv_ci8executor5cacheNtB9_17LocalCacheBackendNtNtBb_7backend12CacheBackend5store0s2_0Bd_
FN:418,_RNCNCNvXsf_NtNtCskfEctF1MPvy_8cuenv_ci8executor5cacheNtB9_17LocalCacheBackendNtNtBb_7backend12CacheBackend5store0s3_0Bd_
FN:425,_RNCNCNvXsf_NtNtCskfEctF1MPvy_8cuenv_ci8executor5cacheNtB9_17LocalCacheBackendNtNtBb_7backend12CacheBackend5store0s4_0Bd_
FN:430,_RNCNCNvXsf_NtNtCskfEctF1MPvy_8cuenv_ci8executor5cacheNtB9_17LocalCacheBackendNtNtBb_7backend12CacheBackend5store0s5_0Bd_
FN:435,_RNCNCNvXsf_NtNtCskfEctF1MPvy_8cuenv_ci8executor5cacheNtB9_17LocalCacheBackendNtNtBb_7backend12CacheBackend5store0s6_0Bd_
FN:441,_RNCNCNvXsf_NtNtCskfEctF1MPvy_8cuenv_ci8executor5cacheNtB9_17LocalCacheBackendNtNtBb_7backend12CacheBackend5store0s7_0Bd_
FN:446,_RNCNCNvXsf_NtNtCskfEctF1MPvy_8cuenv_ci8executor5cacheNtB9_17LocalCacheBackendNtNtBb_7backend12CacheBackend5store0s8_0Bd_
FN:401,_RNCNCNvXsf_NtNtCskfEctF1MPvy_8cuenv_ci8executor5cacheNtB9_17LocalCacheBackendNtNtBb_7backend12CacheBackend5store0s_0Bd_
FN:211,_RNCNvNtNtCskfEctF1MPvy_8cuenv_ci8executor5cache12store_result0B7_
FN:230,_RNCNvNtNtCskfEctF1MPvy_8cuenv_ci8executor5cache12store_results0_0B7_
FN:235,_RNCNvNtNtCskfEctF1MPvy_8cuenv_ci8executor5cache12store_results1_0B7_
FN:240,_RNCNvNtNtCskfEctF1MPvy_8cuenv_ci8executor5cache12store_results2_0B7_
FN:225,_RNCNvNtNtCskfEctF1MPvy_8cuenv_ci8executor5cache12store_results_0B7_
FN:270,_RNCNvNtNtCskfEctF1MPvy_8cuenv_ci8executor5cache13load_metadata0B7_
FN:570,_RNCNvNtNtCskfEctF1MPvy_8cuenv_ci8executor5cache18is_file_executable0B7_
FN:56,_RINvMNtNtCsilPUL3AyWrc_8cuenv_ci8executor5cacheNtB3_10CacheError15io_with_contextRNtNtCsiThrkg7suPy_3std4path7PathBufEB7_
FN:56,_RINvMNtNtCsilPUL3AyWrc_8cuenv_ci8executor5cacheNtB3_10CacheError15io_with_contextReEB7_
FN:303,_RINvMs_NtNtCsilPUL3AyWrc_8cuenv_ci8executor5cacheNtB5_17LocalCacheBackend3newRNtNtCsiThrkg7suPy_3std4path4PathEB9_
FN:303,_RINvMs_NtNtCsilPUL3AyWrc_8cuenv_ci8executor5cacheNtB5_17LocalCacheBackend3newReEB9_
FN:543,_RNCNCNvXsf_NtNtCsilPUL3AyWrc_8cuenv_ci8executor5cacheNtB9_17LocalCacheBackendNtNtBb_7backend12CacheBackend12health_check00Bd_
FN:479,_RNCNCNvXsf_NtNtCsilPUL3AyWrc_8cuenv_ci8executor5cacheNtB9_17LocalCacheBackendNtNtBb_7backend12CacheBackend15restore_outputs00Bd_
FN:488,_RNCNCNvXsf_NtNtCsilPUL3AyWrc_8cuenv_ci8executor5cacheNtB9_17LocalCacheBackendNtNtBb_7backend12CacheBackend15restore_outputs0s0_0Bd_
FN:492,_RNCNCNvXsf_NtNtCsilPUL3AyWrc_8cuenv_ci8executor5cacheNtB9_17LocalCacheBackendNtNtBb_7backend12CacheBackend15restore_outputs0s1_0Bd_
FN:496,_RNCNCNvXsf_NtNtCsilPUL3AyWrc_8cuenv_ci8executor5cacheNtB9_17LocalCacheBackendNtNtBb_7backend12CacheBackend15restore_outputs0s2_0Bd_
FN:502,_RNCNCNvXsf_NtNtCsilPUL3AyWrc_8cuenv_ci8executor5cacheNtB9_17LocalCacheBackendNtNtBb_7backend12CacheBackend15restore_outputs0s3_0Bd_
FN:506,_RNCNCNvXsf_NtNtCsilPUL3AyWrc_8cuenv_ci8executor5cacheNtB9_17LocalCacheBackendNtNtBb_7backend12CacheBackend15restore_outputs0s4_0Bd_
FN:483,_RNCNCNvXsf_NtNtCsilPUL3AyWrc_8cuenv_ci8executor5cacheNtB9_17LocalCacheBackendNtNtBb_7backend12CacheBackend15restore_outputs0s_0Bd_
FN:388,_RNCNCNvXsf_NtNtCsilPUL3AyWrc_8cuenv_ci8executor5cacheNtB9_17LocalCacheBackendNtNtBb_7backend12CacheBackend5store00Bd_
FN:403,_RNCNCNvXsf_NtNtCsilPUL3AyWrc_8cuenv_ci8executor5cacheNtB9_17LocalCacheBackendNtNtBb_7backend12CacheBackend5store0s0_0Bd_
FN:408,_RNCNCNvXsf_NtNtCsilPUL3AyWrc_8cuenv_ci8executor5cacheNtB9_17LocalCacheBackendNtNtBb_7backend12CacheBackend5store0s1_0Bd_
FN:413,_RNCNCNvXsf_NtNtCsilPUL3AyWrc_8cuenv_ci8executor5cacheNtB9_17LocalCacheBackendNtNtBb_7backend12CacheBackend5store0s2_0Bd_
FN:418,_RNCNCNvXsf_NtNtCsilPUL3AyWrc_8cuenv_ci8executor5cacheNtB9_17LocalCacheBackendNtNtBb_7backend12CacheBackend5store0s3_0Bd_
FN:425,_RNCNCNvXsf_NtNtCsilPUL3AyWrc_8cuenv_ci8executor5cacheNtB9_17LocalCacheBackendNtNtBb_7backend12CacheBackend5store0s4_0Bd_
FN:430,_RNCNCNvXsf_NtNtCsilPUL3AyWrc_8cuenv_ci8executor5cacheNtB9_17LocalCacheBackendNtNtBb_7backend12CacheBackend5store0s5_0Bd_
FN:435,_RNCNCNvXsf_NtNtCsilPUL3AyWrc_8cuenv_ci8executor5cacheNtB9_17LocalCacheBackendNtNtBb_7backend12CacheBackend5store0s6_0Bd_
FN:441,_RNCNCNvXsf_NtNtCsilPUL3AyWrc_8cuenv_ci8executor5cacheNtB9_17LocalCacheBackendNtNtBb_7backend12CacheBackend5store0s7_0Bd_
FN:446,_RNCNCNvXsf_NtNtCsilPUL3AyWrc_8cuenv_ci8executor5cacheNtB9_17LocalCacheBackendNtNtBb_7backend12CacheBackend5store0s8_0Bd_
FN:401,_RNCNCNvXsf_NtNtCsilPUL3AyWrc_8cuenv_ci8executor5cacheNtB9_17LocalCacheBackendNtNtBb_7backend12CacheBackend5store0s_0Bd_
FN:211,_RNCNvNtNtCsilPUL3AyWrc_8cuenv_ci8executor5cache12store_result0B7_
FN:230,_RNCNvNtNtCsilPUL3AyWrc_8cuenv_ci8executor5cache12store_results0_0B7_
FN:235,_RNCNvNtNtCsilPUL3AyWrc_8cuenv_ci8executor5cache12store_results1_0B7_
FN:240,_RNCNvNtNtCsilPUL3AyWrc_8cuenv_ci8executor5cache12store_results2_0B7_
FN:225,_RNCNvNtNtCsilPUL3AyWrc_8cuenv_ci8executor5cache12store_results_0B7_
FN:270,_RNCNvNtNtCsilPUL3AyWrc_8cuenv_ci8executor5cache13load_metadata0B7_
FN:570,_RNCNvNtNtCsilPUL3AyWrc_8cuenv_ci8executor5cache18is_file_executable0B7_
FN:310,_RNvMs_NtNtCsilPUL3AyWrc_8cuenv_ci8executor5cacheNtB4_17LocalCacheBackend10cache_path
FN:315,_RNvMs_NtNtCsilPUL3AyWrc_8cuenv_ci8executor5cacheNtB4_17LocalCacheBackend12outputs_path
FN:132,_RNvNtNtCsilPUL3AyWrc_8cuenv_ci8executor5cache11check_cache
FN:196,_RNvNtNtCsilPUL3AyWrc_8cuenv_ci8executor5cache12store_result
FN:267,_RNvNtNtCsilPUL3AyWrc_8cuenv_ci8executor5cache13load_metadata
FN:567,_RNvNtNtCsilPUL3AyWrc_8cuenv_ci8executor5cache18is_file_executable
FN:110,_RNvNtNtCsilPUL3AyWrc_8cuenv_ci8executor5cache21cache_path_for_digest
FN:549,_RNvNtNtCsilPUL3AyWrc_8cuenv_ci8executor5cache7walkdir
FN:277,_RNvNtNtCsilPUL3AyWrc_8cuenv_ci8executor5cache9load_logs
FN:540,_RNvXsf_NtNtCsilPUL3AyWrc_8cuenv_ci8executor5cacheNtB5_17LocalCacheBackendNtNtB7_7backend12CacheBackend12health_check
FN:469,_RNvXsf_NtNtCsilPUL3AyWrc_8cuenv_ci8executor5cacheNtB5_17LocalCacheBackendNtNtB7_7backend12CacheBackend15restore_outputs
FN:536,_RNvXsf_NtNtCsilPUL3AyWrc_8cuenv_ci8executor5cacheNtB5_17LocalCacheBackendNtNtB7_7backend12CacheBackend4name
FN:327,_RNvXsf_NtNtCsilPUL3AyWrc_8cuenv_ci8executor5cacheNtB5_17LocalCacheBackendNtNtB7_7backend12CacheBackend5check
FN:376,_RNvXsf_NtNtCsilPUL3AyWrc_8cuenv_ci8executor5cacheNtB5_17LocalCacheBackendNtNtB7_7backend12CacheBackend5store
FN:530,_RNvXsf_NtNtCsilPUL3AyWrc_8cuenv_ci8executor5cacheNtB5_17LocalCacheBackendNtNtB7_7backend12CacheBackend8get_logs
FN:584,_RNvNtNtNtCsilPUL3AyWrc_8cuenv_ci8executor5cache5tests9make_task
FN:614,_RNvNtNtNtCsilPUL3AyWrc_8cuenv_ci8executor5cache5testss_15test_cache_miss
FN:1006,_RNvNtNtNtCsilPUL3AyWrc_8cuenv_ci8executor5cache5testss_18test_walkdir_empty
FN:694,_RNvNtNtNtCsilPUL3AyWrc_8cuenv_ci8executor5cache5testss_20test_policy_override
FN:775,_RNvNtNtNtCsilPUL3AyWrc_8cuenv_ci8executor5cache5testss_22test_task_logs_default
FN:1024,_RNvNtNtNtCsilPUL3AyWrc_8cuenv_ci8executor5cache5testss_23test_is_file_executable
FN:1013,_RNvNtNtNtCsilPUL3AyWrc_8cuenv_ci8executor5cache5testss_23test_walkdir_with_files
FN:731,_RNvNtNtNtCsilPUL3AyWrc_8cuenv_ci8executor5cache5testss_24test_cache_error_from_io
FN:746,_RNvNtNtNtCsilPUL3AyWrc_8cuenv_ci8executor5cache5testss_24test_cache_result_fields
FN:607,_RNvNtNtNtCsilPUL3AyWrc_8cuenv_ci8executor5cache5testss_25test_cache_path_structure
FN:624,_RNvNtNtNtCsilPUL3AyWrc_8cuenv_ci8executor5cache5testss_26test_cache_hit_after_store
FN:807,_RNvNtNtNtCsilPUL3AyWrc_8cuenv_ci8executor5cache5testss_26test_load_logs_nonexistent
FN:815,_RNvNtNtNtCsilPUL3AyWrc_8cuenv_ci8executor5cache5testss_27test_load_logs_with_content
FN:1044,_RNvNtNtNtCsilPUL3AyWrc_8cuenv_ci8executor5cache5testss_27test_store_result_with_logs
FN:782,_RNvNtNtNtCsilPUL3AyWrc_8cuenv_ci8executor5cache5testss_27test_task_logs_with_content
FN:828,_RNvNtNtNtCsilPUL3AyWrc_8cuenv_ci8executor5cache5testss_28test_local_cache_backend_new
FN:679,_RNvNtNtNtCsilPUL3AyWrc_8cuenv_ci8executor5cache5testss_29test_disabled_policy_no_cache
FN:649,_RNvNtNtNtCsilPUL3AyWrc_8cuenv_ci8executor5cache5testss_29test_readonly_policy_no_write
FN:664,_RNvNtNtNtCsilPUL3AyWrc_8cuenv_ci8executor5cache5testss_29test_writeonly_policy_no_read
FN:800,_RNvNtNtNtCsilPUL3AyWrc_8cuenv_ci8executor5cache5testss_30test_load_metadata_nonexistent
FN:718,_RNvNtNtNtCsilPUL3AyWrc_8cuenv_ci8executor5cache5testss_32test_cache_error_io_with_context
FN:792,_RNvNtNtNtCsilPUL3AyWrc_8cuenv_ci8executor5cache5testss_32test_cache_path_for_short_digest
FN:758,_RNvNtNtNtCsilPUL3AyWrc_8cuenv_ci8executor5cache5testss_33test_cache_metadata_serialization
FN:905,_RNvNtNtNtCsilPUL3AyWrc_8cuenv_ci8executor5cache5testss_33test_local_cache_backend_get_logs
FN:738,_RNvNtNtNtCsilPUL3AyWrc_8cuenv_ci8executor5cache5testss_35test_cache_error_from_serialization
FN:849,_RNvNtNtNtCsilPUL3AyWrc_8cuenv_ci8executor5cache5testss_35test_local_cache_backend_check_miss
FN:841,_RNvNtNtNtCsilPUL3AyWrc_8cuenv_ci8executor5cache5testss_37test_local_cache_backend_health_check
FN:834,_RNvNtNtNtCsilPUL3AyWrc_8cuenv_ci8executor5cache5testss_37test_local_cache_backend_outputs_path
FN:875,_RNvNtNtNtCsilPUL3AyWrc_8cuenv_ci8executor5cache5testss_40test_local_cache_backend_store_and_check
FN:975,_RNvNtNtNtCsilPUL3AyWrc_8cuenv_ci8executor5cache5testss_43test_local_cache_backend_store_with_outputs
FN:862,_RNvNtNtNtCsilPUL3AyWrc_8cuenv_ci8executor5cache5testss_46test_local_cache_backend_check_skips_on_policy
FN:962,_RNvNtNtNtCsilPUL3AyWrc_8cuenv_ci8executor5cache5testss_46test_local_cache_backend_restore_outputs_empty
FN:932,_RNvNtNtNtCsilPUL3AyWrc_8cuenv_ci8executor5cache5testss_48test_local_cache_backend_store_skips_on_readonly
FN:905,_RNCNvNtNtNtCsilPUL3AyWrc_8cuenv_ci8executor5cache5testss_33test_local_cache_backend_get_logs0B9_
FN:849,_RNCNvNtNtNtCsilPUL3AyWrc_8cuenv_ci8executor5cache5testss_35test_local_cache_backend_check_miss0B9_
FN:841,_RNCNvNtNtNtCsilPUL3AyWrc_8cuenv_ci8executor5cache5testss_37test_local_cache_backend_health_check0B9_
FN:875,_RNCNvNtNtNtCsilPUL3AyWrc_8cuenv_ci8executor5cache5testss_40test_local_cache_backend_store_and_check0B9_
FN:975,_RNCNvNtNtNtCsilPUL3AyWrc_8cuenv_ci8executor5cache5testss_43test_local_cache_backend_store_with_outputs0B9_
FN:862,_RNCNvNtNtNtCsilPUL3AyWrc_8cuenv_ci8executor5cache5testss_46test_local_cache_backend_check_skips_on_policy0B9_
FN:962,_RNCNvNtNtNtCsilPUL3AyWrc_8cuenv_ci8executor5cache5testss_46test_local_cache_backend_restore_outputs_empty0B9_
FN:932,_RNCNvNtNtNtCsilPUL3AyWrc_8cuenv_ci8executor5cache5testss_48test_local_cache_backend_store_skips_on_readonly0B9_
FNDA:0,_RINvMs_NtNtCskfEctF1MPvy_8cuenv_ci8executor5cacheNtB5_17LocalCacheBackend3newpEB9_
FNDA:0,_RNvMs_NtNtCskfEctF1MPvy_8cuenv_ci8executor5cacheNtB4_17LocalCacheBackend10cache_path
FNDA:0,_RNvMs_NtNtCskfEctF1MPvy_8cuenv_ci8executor5cacheNtB4_17LocalCacheBackend12outputs_path
FNDA:0,_RNvNtNtCskfEctF1MPvy_8cuenv_ci8executor5cache11check_cache
FNDA:0,_RNvNtNtCskfEctF1MPvy_8cuenv_ci8executor5cache12store_result
FNDA:0,_RNvNtNtCskfEctF1MPvy_8cuenv_ci8executor5cache13load_metadata
FNDA:0,_RNvNtNtCskfEctF1MPvy_8cuenv_ci8executor5cache18is_file_executable
FNDA:0,_RNvNtNtCskfEctF1MPvy_8cuenv_ci8executor5cache21cache_path_for_digest
FNDA:0,_RNvNtNtCskfEctF1MPvy_8cuenv_ci8executor5cache7walkdir
FNDA:0,_RNvNtNtCskfEctF1MPvy_8cuenv_ci8executor5cache9load_logs
FNDA:0,_RNvXsf_NtNtCskfEctF1MPvy_8cuenv_ci8executor5cacheNtB5_17LocalCacheBackendNtNtB7_7backend12CacheBackend12health_check
FNDA:0,_RNvXsf_NtNtCskfEctF1MPvy_8cuenv_ci8executor5cacheNtB5_17LocalCacheBackendNtNtB7_7backend12CacheBackend15restore_outputs
FNDA:0,_RNvXsf_NtNtCskfEctF1MPvy_8cuenv_ci8executor5cacheNtB5_17LocalCacheBackendNtNtB7_7backend12CacheBackend4name
FNDA:0,_RNvXsf_NtNtCskfEctF1MPvy_8cuenv_ci8executor5cacheNtB5_17LocalCacheBackendNtNtB7_7backend12CacheBackend5check
FNDA:0,_RNvXsf_NtNtCskfEctF1MPvy_8cuenv_ci8executor5cacheNtB5_17LocalCacheBackendNtNtB7_7backend12CacheBackend5store
FNDA:0,_RNvXsf_NtNtCskfEctF1MPvy_8cuenv_ci8executor5cacheNtB5_17LocalCacheBackendNtNtB7_7backend12CacheBackend8get_logs
FNDA:0,_RINvMNtNtCskfEctF1MPvy_8cuenv_ci8executor5cacheNtB3_10CacheError15io_with_contextRNtNtCsiThrkg7suPy_3std4path7PathBufEB7_
FNDA:0,_RNCNCNvXsf_NtNtCskfEctF1MPvy_8cuenv_ci8executor5cacheNtB9_17LocalCacheBackendNtNtBb_7backend12CacheBackend12health_check00Bd_
FNDA:0,_RNCNCNvXsf_NtNtCskfEctF1MPvy_8cuenv_ci8executor5cacheNtB9_17LocalCacheBackendNtNtBb_7backend12CacheBackend15restore_outputs00Bd_
FNDA:0,_RNCNCNvXsf_NtNtCskfEctF1MPvy_8cuenv_ci8executor5cacheNtB9_17LocalCacheBackendNtNtBb_7backend12CacheBackend15restore_outputs0s0_0Bd_
FNDA:0,_RNCNCNvXsf_NtNtCskfEctF1MPvy_8cuenv_ci8executor5cacheNtB9_17LocalCacheBackendNtNtBb_7backend12CacheBackend15restore_outputs0s1_0Bd_
FNDA:0,_RNCNCNvXsf_NtNtCskfEctF1MPvy_8cuenv_ci8executor5cacheNtB9_17LocalCacheBackendNtNtBb_7backend12CacheBackend15restore_outputs0s2_0Bd_
FNDA:0,_RNCNCNvXsf_NtNtCskfEctF1MPvy_8cuenv_ci8executor5cacheNtB9_17LocalCacheBackendNtNtBb_7backend12CacheBackend15restore_outputs0s3_0Bd_
FNDA:0,_RNCNCNvXsf_NtNtCskfEctF1MPvy_8cuenv_ci8executor5cacheNtB9_17LocalCacheBackendNtNtBb_7backend12CacheBackend15restore_outputs0s4_0Bd_
FNDA:0,_RNCNCNvXsf_NtNtCskfEctF1MPvy_8cuenv_ci8executor5cacheNtB9_17LocalCacheBackendNtNtBb_7backend12CacheBackend15restore_outputs0s_0Bd_
FNDA:0,_RNCNCNvXsf_NtNtCskfEctF1MPvy_8cuenv_ci8executor5cacheNtB9_17LocalCacheBackendNtNtBb_7backend12CacheBackend5store00Bd_
FNDA:0,_RNCNCNvXsf_NtNtCskfEctF1MPvy_8cuenv_ci8executor5cacheNtB9_17LocalCacheBackendNtNtBb_7backend12CacheBackend5store0s0_0Bd_
FNDA:0,_RNCNCNvXsf_NtNtCskfEctF1MPvy_8cuenv_ci8executor5cacheNtB9_17LocalCacheBackendNtNtBb_7backend12CacheBackend5store0s1_0Bd_
FNDA:0,_RNCNCNvXsf_NtNtCskfEctF1MPvy_8cuenv_ci8executor5cacheNtB9_17LocalCacheBackendNtNtBb_7backend12CacheBackend5store0s2_0Bd_
FNDA:0,_RNCNCNvXsf_NtNtCskfEctF1MPvy_8cuenv_ci8executor5cacheNtB9_17LocalCacheBackendNtNtBb_7backend12CacheBackend5store0s3_0Bd_
FNDA:0,_RNCNCNvXsf_NtNtCskfEctF1MPvy_8cuenv_ci8executor5cacheNtB9_17LocalCacheBackendNtNtBb_7backend12CacheBackend5store0s4_0Bd_
FNDA:0,_RNCNCNvXsf_NtNtCskfEctF1MPvy_8cuenv_ci8executor5cacheNtB9_17LocalCacheBackendNtNtBb_7backend12CacheBackend5store0s5_0Bd_
FNDA:0,_RNCNCNvXsf_NtNtCskfEctF1MPvy_8cuenv_ci8executor5cacheNtB9_17LocalCacheBackendNtNtBb_7backend12CacheBackend5store0s6_0Bd_
FNDA:0,_RNCNCNvXsf_NtNtCskfEctF1MPvy_8cuenv_ci8executor5cacheNtB9_17LocalCacheBackendNtNtBb_7backend12CacheBackend5store0s7_0Bd_
FNDA:0,_RNCNCNvXsf_NtNtCskfEctF1MPvy_8cuenv_ci8executor5cacheNtB9_17LocalCacheBackendNtNtBb_7backend12CacheBackend5store0s8_0Bd_
FNDA:0,_RNCNCNvXsf_NtNtCskfEctF1MPvy_8cuenv_ci8executor5cacheNtB9_17LocalCacheBackendNtNtBb_7backend12CacheBackend5store0s_0Bd_
FNDA:0,_RNCNvNtNtCskfEctF1MPvy_8cuenv_ci8executor5cache12store_result0B7_
FNDA:0,_RNCNvNtNtCskfEctF1MPvy_8cuenv_ci8executor5cache12store_results0_0B7_
FNDA:0,_RNCNvNtNtCskfEctF1MPvy_8cuenv_ci8executor5cache12store_results1_0B7_
FNDA:0,_RNCNvNtNtCskfEctF1MPvy_8cuenv_ci8executor5cache12store_results2_0B7_
FNDA:0,_RNCNvNtNtCskfEctF1MPvy_8cuenv_ci8executor5cache12store_results_0B7_
FNDA:0,_RNCNvNtNtCskfEctF1MPvy_8cuenv_ci8executor5cache13load_metadata0B7_
FNDA:0,_RNCNvNtNtCskfEctF1MPvy_8cuenv_ci8executor5cache18is_file_executable0B7_
FNDA:1,_RINvMNtNtCsilPUL3AyWrc_8cuenv_ci8executor5cacheNtB3_10CacheError15io_with_contextRNtNtCsiThrkg7suPy_3std4path7PathBufEB7_
FNDA:1,_RINvMNtNtCsilPUL3AyWrc_8cuenv_ci8executor5cacheNtB3_10CacheError15io_with_contextReEB7_
FNDA:9,_RINvMs_NtNtCsilPUL3AyWrc_8cuenv_ci8executor5cacheNtB5_17LocalCacheBackend3newRNtNtCsiThrkg7suPy_3std4path4PathEB9_
FNDA:2,_RINvMs_NtNtCsilPUL3AyWrc_8cuenv_ci8executor5cacheNtB5_17LocalCacheBackend3newReEB9_
FNDA:0,_RNCNCNvXsf_NtNtCsilPUL3AyWrc_8cuenv_ci8executor5cacheNtB9_17LocalCacheBackendNtNtBb_7backend12CacheBackend12health_check00Bd_
FNDA:0,_RNCNCNvXsf_NtNtCsilPUL3AyWrc_8cuenv_ci8executor5cacheNtB9_17LocalCacheBackendNtNtBb_7backend12CacheBackend15restore_outputs00Bd_
FNDA:0,_RNCNCNvXsf_NtNtCsilPUL3AyWrc_8cuenv_ci8executor5cacheNtB9_17LocalCacheBackendNtNtBb_7backend12CacheBackend15restore_outputs0s0_0Bd_
FNDA:0,_RNCNCNvXsf_NtNtCsilPUL3AyWrc_8cuenv_ci8executor5cacheNtB9_17LocalCacheBackendNtNtBb_7backend12CacheBackend15restore_outputs0s1_0Bd_
FNDA:0,_RNCNCNvXsf_NtNtCsilPUL3AyWrc_8cuenv_ci8executor5cacheNtB9_17LocalCacheBackendNtNtBb_7backend12CacheBackend15restore_outputs0s2_0Bd_
FNDA:0,_RNCNCNvXsf_NtNtCsilPUL3AyWrc_8cuenv_ci8executor5cacheNtB9_17LocalCacheBackendNtNtBb_7backend12CacheBackend15restore_outputs0s3_0Bd_
FNDA:0,_RNCNCNvXsf_NtNtCsilPUL3AyWrc_8cuenv_ci8executor5cacheNtB9_17LocalCacheBackendNtNtBb_7backend12CacheBackend15restore_outputs0s4_0Bd_
FNDA:0,_RNCNCNvXsf_NtNtCsilPUL3AyWrc_8cuenv_ci8executor5cacheNtB9_17LocalCacheBackendNtNtBb_7backend12CacheBackend15restore_outputs0s_0Bd_
FNDA:0,_RNCNCNvXsf_NtNtCsilPUL3AyWrc_8cuenv_ci8executor5cacheNtB9_17LocalCacheBackendNtNtBb_7backend12CacheBackend5store00Bd_
FNDA:0,_RNCNCNvXsf_NtNtCsilPUL3AyWrc_8cuenv_ci8executor5cacheNtB9_17LocalCacheBackendNtNtBb_7backend12CacheBackend5store0s0_0Bd_
FNDA:0,_RNCNCNvXsf_NtNtCsilPUL3AyWrc_8cuenv_ci8executor5cacheNtB9_17LocalCacheBackendNtNtBb_7backend12CacheBackend5store0s1_0Bd_
FNDA:0,_RNCNCNvXsf_NtNtCsilPUL3AyWrc_8cuenv_ci8executor5cacheNtB9_17LocalCacheBackendNtNtBb_7backend12CacheBackend5store0s2_0Bd_
FNDA:0,_RNCNCNvXsf_NtNtCsilPUL3AyWrc_8cuenv_ci8executor5cacheNtB9_17LocalCacheBackendNtNtBb_7backend12CacheBackend5store0s3_0Bd_
FNDA:0,_RNCNCNvXsf_NtNtCsilPUL3AyWrc_8cuenv_ci8executor5cacheNtB9_17LocalCacheBackendNtNtBb_7backend12CacheBackend5store0s4_0Bd_
FNDA:0,_RNCNCNvXsf_NtNtCsilPUL3AyWrc_8cuenv_ci8executor5cacheNtB9_17LocalCacheBackendNtNtBb_7backend12CacheBackend5store0s5_0Bd_
FNDA:0,_RNCNCNvXsf_NtNtCsilPUL3AyWrc_8cuenv_ci8executor5cacheNtB9_17LocalCacheBackendNtNtBb_7backend12CacheBackend5store0s6_0Bd_
FNDA:0,_RNCNCNvXsf_NtNtCsilPUL3AyWrc_8cuenv_ci8executor5cacheNtB9_17LocalCacheBackendNtNtBb_7backend12CacheBackend5store0s7_0Bd_
FNDA:0,_RNCNCNvXsf_NtNtCsilPUL3AyWrc_8cuenv_ci8executor5cacheNtB9_17LocalCacheBackendNtNtBb_7backend12CacheBackend5store0s8_0Bd_
FNDA:0,_RNCNCNvXsf_NtNtCsilPUL3AyWrc_8cuenv_ci8executor5cacheNtB9_17LocalCacheBackendNtNtBb_7backend12CacheBackend5store0s_0Bd_
FNDA:0,_RNCNvNtNtCsilPUL3AyWrc_8cuenv_ci8executor5cache12store_result0B7_
FNDA:0,_RNCNvNtNtCsilPUL3AyWrc_8cuenv_ci8executor5cache12store_results0_0B7_
FNDA:0,_RNCNvNtNtCsilPUL3AyWrc_8cuenv_ci8executor5cache12store_results1_0B7_
FNDA:0,_RNCNvNtNtCsilPUL3AyWrc_8cuenv_ci8executor5cache12store_results2_0B7_
FNDA:0,_RNCNvNtNtCsilPUL3AyWrc_8cuenv_ci8executor5cache12store_results_0B7_
FNDA:1,_RNCNvNtNtCsilPUL3AyWrc_8cuenv_ci8executor5cache13load_metadata0B7_
FNDA:2,_RNCNvNtNtCsilPUL3AyWrc_8cuenv_ci8executor5cache18is_file_executable0B7_
FNDA:11,_RNvMs_NtNtCsilPUL3AyWrc_8cuenv_ci8executor5cacheNtB4_17LocalCacheBackend10cache_path
FNDA:4,_RNvMs_NtNtCsilPUL3AyWrc_8cuenv_ci8executor5cacheNtB4_17LocalCacheBackend12outputs_path
FNDA:6,_RNvNtNtCsilPUL3AyWrc_8cuenv_ci8executor5cache11check_cache
FNDA:6,_RNvNtNtCsilPUL3AyWrc_8cuenv_ci8executor5cache12store_result
FNDA:4,_RNvNtNtCsilPUL3AyWrc_8cuenv_ci8executor5cache13load_metadata
FNDA:2,_RNvNtNtCsilPUL3AyWrc_8cuenv_ci8executor5cache18is_file_executable
FNDA:21,_RNvNtNtCsilPUL3AyWrc_8cuenv_ci8executor5cache21cache_path_for_digest
FNDA:3,_RNvNtNtCsilPUL3AyWrc_8cuenv_ci8executor5cache7walkdir
FNDA:3,_RNvNtNtCsilPUL3AyWrc_8cuenv_ci8executor5cache9load_logs
FNDA:1,_RNvXsf_NtNtCsilPUL3AyWrc_8cuenv_ci8executor5cacheNtB5_17LocalCacheBackendNtNtB7_7backend12CacheBackend12health_check
FNDA:1,_RNvXsf_NtNtCsilPUL3AyWrc_8cuenv_ci8executor5cacheNtB5_17LocalCacheBackendNtNtB7_7backend12CacheBackend15restore_outputs
FNDA:2,_RNvXsf_NtNtCsilPUL3AyWrc_8cuenv_ci8executor5cacheNtB5_17LocalCacheBackendNtNtB7_7backend12CacheBackend4name
FNDA:4,_RNvXsf_NtNtCsilPUL3AyWrc_8cuenv_ci8executor5cacheNtB5_17LocalCacheBackendNtNtB7_7backend12CacheBackend5check
FNDA:4,_RNvXsf_NtNtCsilPUL3AyWrc_8cuenv_ci8executor5cacheNtB5_17LocalCacheBackendNtNtB7_7backend12CacheBackend5store
FNDA:1,_RNvXsf_NtNtCsilPUL3AyWrc_8cuenv_ci8executor5cacheNtB5_17LocalCacheBackendNtNtB7_7backend12CacheBackend8get_logs
FNDA:14,_RNvNtNtNtCsilPUL3AyWrc_8cuenv_ci8executor5cache5tests9make_task
FNDA:1,_RNvNtNtNtCsilPUL3AyWrc_8cuenv_ci8executor5cache5testss_15test_cache_miss
FNDA:1,_RNvNtNtNtCsilPUL3AyWrc_8cuenv_ci8executor5cache5testss_18test_walkdir_empty
FNDA:1,_RNvNtNtNtCsilPUL3AyWrc_8cuenv_ci8executor5cache5testss_20test_policy_override
FNDA:1,_RNvNtNtNtCsilPUL3AyWrc_8cuenv_ci8executor5cache5testss_22test_task_logs_default
FNDA:1,_RNvNtNtNtCsilPUL3AyWrc_8cuenv_ci8executor5cache5testss_23test_is_file_executable
FNDA:1,_RNvNtNtNtCsilPUL3AyWrc_8cuenv_ci8executor5cache5testss_23test_walkdir_with_files
FNDA:1,_RNvNtNtNtCsilPUL3AyWrc_8cuenv_ci8executor5cache5testss_24test_cache_error_from_io
FNDA:1,_RNvNtNtNtCsilPUL3AyWrc_8cuenv_ci8executor5cache5testss_24test_cache_result_fields
FNDA:1,_RNvNtNtNtCsilPUL3AyWrc_8cuenv_ci8executor5cache5testss_25test_cache_path_structure
FNDA:1,_RNvNtNtNtCsilPUL3AyWrc_8cuenv_ci8executor5cache5testss_26test_cache_hit_after_store
FNDA:1,_RNvNtNtNtCsilPUL3AyWrc_8cuenv_ci8executor5cache5testss_26test_load_logs_nonexistent
FNDA:1,_RNvNtNtNtCsilPUL3AyWrc_8cuenv_ci8executor5cache5testss_27test_load_logs_with_content
FNDA:1,_RNvNtNtNtCsilPUL3AyWrc_8cuenv_ci8executor5cache5testss_27test_store_result_with_logs
FNDA:1,_RNvNtNtNtCsilPUL3AyWrc_8cuenv_ci8executor5cache5testss_27test_task_logs_with_content
FNDA:1,_RNvNtNtNtCsilPUL3AyWrc_8cuenv_ci8executor5cache5testss_28test_local_cache_backend_new
FNDA:1,_RNvNtNtNtCsilPUL3AyWrc_8cuenv_ci8executor5cache5testss_29test_disabled_policy_no_cache
FNDA:1,_RNvNtNtNtCsilPUL3AyWrc_8cuenv_ci8executor5cache5testss_29test_readonly_policy_no_write
FNDA:1,_RNvNtNtNtCsilPUL3AyWrc_8cuenv_ci8executor5cache5testss_29test_writeonly_policy_no_read
FNDA:1,_RNvNtNtNtCsilPUL3AyWrc_8cuenv_ci8executor5cache5testss_30test_load_metadata_nonexistent
FNDA:1,_RNvNtNtNtCsilPUL3AyWrc_8cuenv_ci8executor5cache5testss_32test_cache_error_io_with_context
FNDA:1,_RNvNtNtNtCsilPUL3AyWrc_8cuenv_ci8executor5cache5testss_32test_cache_path_for_short_digest
FNDA:1,_RNvNtNtNtCsilPUL3AyWrc_8cuenv_ci8executor5cache5testss_33test_cache_metadata_serialization
FNDA:1,_RNvNtNtNtCsilPUL3AyWrc_8cuenv_ci8executor5cache5testss_33test_local_cache_backend_get_logs
FNDA:1,_RNvNtNtNtCsilPUL3AyWrc_8cuenv_ci8executor5cache5testss_35test_cache_error_from_serialization
FNDA:1,_RNvNtNtNtCsilPUL3AyWrc_8cuenv_ci8executor5cache5testss_35test_local_cache_backend_check_miss
FNDA:1,_RNvNtNtNtCsilPUL3AyWrc_8cuenv_ci8executor5cache5testss_37test_local_cache_backend_health_check
FNDA:1,_RNvNtNtNtCsilPUL3AyWrc_8cuenv_ci8executor5cache5testss_37test_local_cache_backend_outputs_path
FNDA:1,_RNvNtNtNtCsilPUL3AyWrc_8cuenv_ci8executor5cache5testss_40test_local_cache_backend_store_and_check
FNDA:1,_RNvNtNtNtCsilPUL3AyWrc_8cuenv_ci8executor5cache5testss_43test_local_cache_backend_store_with_outputs
FNDA:1,_RNvNtNtNtCsilPUL3AyWrc_8cuenv_ci8executor5cache5testss_46test_local_cache_backend_check_skips_on_policy
FNDA:1,_RNvNtNtNtCsilPUL3AyWrc_8cuenv_ci8executor5cache5testss_46test_local_cache_backend_restore_outputs_empty
FNDA:1,_RNvNtNtNtCsilPUL3AyWrc_8cuenv_ci8executor5cache5testss_48test_local_cache_backend_store_skips_on_readonly
FNDA:1,_RNCNvNtNtNtCsilPUL3AyWrc_8cuenv_ci8executor5cache5testss_33test_local_cache_backend_get_logs0B9_
FNDA:1,_RNCNvNtNtNtCsilPUL3AyWrc_8cuenv_ci8executor5cache5testss_35test_local_cache_backend_check_miss0B9_
FNDA:1,_RNCNvNtNtNtCsilPUL3AyWrc_8cuenv_ci8executor5cache5testss_37test_local_cache_backend_health_check0B9_
FNDA:1,_RNCNvNtNtNtCsilPUL3AyWrc_8cuenv_ci8executor5cache5testss_40test_local_cache_backend_store_and_check0B9_
FNDA:1,_RNCNvNtNtNtCsilPUL3AyWrc_8cuenv_ci8executor5cache5testss_43test_local_cache_backend_store_with_outputs0B9_
FNDA:1,_RNCNvNtNtNtCsilPUL3AyWrc_8cuenv_ci8executor5cache5testss_46test_local_cache_backend_check_skips_on_policy0B9_
FNDA:1,_RNCNvNtNtNtCsilPUL3AyWrc_8cuenv_ci8executor5cache5testss_46test_local_cache_backend_restore_outputs_empty0B9_
FNDA:1,_RNCNvNtNtNtCsilPUL3AyWrc_8cuenv_ci8executor5cache5testss_48test_local_cache_backend_store_skips_on_readonly0B9_
FNF:84
FNH:60
DA:56,2
DA:57,2
DA:58,2
DA:59,2
DA:60,2
DA:61,2
DA:62,2
DA:63,2
DA:64,2
DA:65,2
DA:66,2
DA:110,21
DA:112,21
DA:114,21
DA:116,1
DA:117,20
DA:119,20
DA:120,21
DA:132,6
DA:133,6
DA:134,6
DA:135,6
DA:136,6
DA:137,6
DA:138,6
DA:140,6
DA:143,4
DA:144,4
DA:146,4
DA:147,1
DA:150,0
DA:151,0
DA:153,1
DA:154,1
DA:155,1
DA:156,1
DA:157,1
DA:158,3
DA:160,3
DA:163,0
DA:168,2
DA:171,0
DA:176,5
DA:177,5
DA:178,5
DA:179,5
DA:180,5
DA:181,6
DA:196,6
DA:197,6
DA:198,6
DA:199,6
DA:200,6
DA:201,6
DA:202,6
DA:203,6
DA:204,6
DA:205,6
DA:207,6
DA:209,3
DA:210,3
DA:211,3
DA:214,3
DA:215,3
DA:216,3
DA:217,3
DA:218,3
DA:219,3
DA:220,3
DA:221,3
DA:222,3
DA:223,3
DA:224,3
DA:225,3
DA:228,3
DA:229,3
DA:230,3
DA:232,3
DA:233,2
DA:234,2
DA:235,2
DA:236,1
DA:237,3
DA:238,1
DA:239,1
DA:240,1
DA:241,2
DA:243,3
DA:246,0
DA:247,0
DA:252,3
DA:255,0
DA:260,6
DA:261,6
DA:267,4
DA:268,4
DA:269,4
DA:270,4
DA:271,3
DA:272,3
DA:273,4
DA:277,3
DA:278,3
DA:280,3
DA:281,3
DA:283,3
DA:284,3
DA:303,11
DA:304,11
DA:305,11
DA:306,11
DA:307,11
DA:310,11
DA:311,11
DA:312,11
DA:315,4
DA:316,4
DA:317,4
DA:327,4
DA:368,4
DA:376,4
DA:388,0
DA:401,0
DA:403,0
DA:408,0
DA:413,0
DA:418,0
DA:425,0
DA:430,0
DA:431,0
DA:432,0
DA:435,0
DA:441,0
DA:442,0
DA:443,0
DA:446,0
DA:447,0
DA:448,0
DA:462,4
DA:469,1
DA:479,0
DA:483,0
DA:488,0
DA:492,0
DA:496,0
DA:502,0
DA:506,0
DA:524,1
DA:530,1
DA:534,1
DA:536,2
DA:537,2
DA:538,2
DA:540,1
DA:543,0
DA:545,1
DA:549,3
DA:550,3
DA:551,3
DA:552,3
DA:553,3
DA:554,3
DA:555,3
DA:556,1
DA:557,2
DA:558,2
DA:559,2
DA:561,0
DA:562,3
DA:563,3
DA:567,2
DA:569,2
DA:570,2
DA:571,2
DA:572,2
DA:584,14
DA:585,14
DA:586,14
DA:587,14
DA:588,14
DA:589,14
DA:590,14
DA:591,14
DA:592,14
DA:593,14
DA:594,14
DA:595,14
DA:596,14
DA:597,14
DA:598,14
DA:599,14
DA:600,14
DA:601,14
DA:602,14
DA:603,14
DA:604,14
DA:607,1
DA:608,1
DA:609,1
DA:610,1
DA:611,1
DA:614,1
DA:615,1
DA:616,1
DA:618,1
DA:619,1
DA:620,1
DA:621,1
DA:624,1
DA:625,1
DA:626,1
DA:627,1
DA:630,1
DA:631,1
DA:632,1
DA:633,1
DA:634,1
DA:637,1
DA:638,1
DA:639,1
DA:642,1
DA:643,1
DA:644,1
DA:645,1
DA:646,1
DA:649,1
DA:650,1
DA:651,1
DA:652,1
DA:655,1
DA:656,1
DA:659,1
DA:660,1
DA:661,1
DA:664,1
DA:665,1
DA:666,1
DA:667,1
DA:670,1
DA:671,1
DA:674,1
DA:675,1
DA:676,1
DA:679,1
DA:680,1
DA:681,1
DA:682,1
DA:685,1
DA:686,1
DA:689,1
DA:690,1
DA:691,1
DA:694,1
DA:695,1
DA:696,1
DA:697,1
DA:700,1
DA:701,1
DA:702,1
DA:703,1
DA:704,1
DA:705,1
DA:708,1
DA:710,1
DA:713,1
DA:714,1
DA:715,1
DA:718,1
DA:719,1
DA:722,1
DA:724,1
DA:725,1
DA:726,1
DA:727,1
DA:728,1
DA:731,1
DA:732,1
DA:733,1
DA:734,1
DA:735,1
DA:738,1
DA:740,1
DA:741,1
DA:742,1
DA:743,1
DA:746,1
DA:747,1
DA:748,1
DA:749,1
DA:750,1
DA:751,1
DA:752,1
DA:753,1
DA:754,1
DA:755,1
DA:758,1
DA:759,1
DA:760,1
DA:761,1
DA:762,1
DA:763,1
DA:764,1
DA:765,1
DA:766,1
DA:767,1
DA:768,1
DA:769,1
DA:770,1
DA:771,1
DA:772,1
DA:775,1
DA:776,1
DA:777,1
DA:778,1
DA:779,1
DA:782,1
DA:783,1
DA:784,1
DA:785,1
DA:786,1
DA:787,1
DA:788,1
DA:789,1
DA:792,1
DA:793,1
DA:795,1
DA:796,1
DA:797,1
DA:800,1
DA:801,1
DA:802,1
DA:803,1
DA:804,1
DA:807,1
DA:808,1
DA:809,1
DA:810,1
DA:811,1
DA:812,1
DA:815,1
DA:816,1
DA:817,1
DA:818,1
DA:819,1
DA:820,1
DA:822,1
DA:823,1
DA:824,1
DA:825,1
DA:828,1
DA:829,1
DA:830,1
DA:831,1
DA:834,1
DA:835,1
DA:836,1
DA:837,1
DA:838,1
DA:841,1
DA:842,1
DA:843,1
DA:844,1
DA:845,1
DA:846,1
DA:849,1
DA:850,1
DA:851,1
DA:852,1
DA:854,1
DA:855,1
DA:856,1
DA:857,1
DA:858,1
DA:859,1
DA:862,1
DA:863,1
DA:864,1
DA:865,1
DA:867,1
DA:868,1
DA:869,1
DA:870,1
DA:871,1
DA:872,1
DA:875,1
DA:878,1
DA:879,1
DA:880,1
DA:881,1
DA:883,1
DA:884,1
DA:885,1
DA:886,1
DA:887,1
DA:888,1
DA:889,1
DA:891,1
DA:892,1
DA:893,1
DA:894,1
DA:896,1
DA:897,1
DA:898,1
DA:899,1
DA:900,1
DA:901,1
DA:902,1
DA:905,1
DA:908,1
DA:909,1
DA:910,1
DA:911,1
DA:913,1
DA:914,1
DA:915,1
DA:916,1
DA:917,1
DA:918,1
DA:919,1
DA:921,1
DA:922,1
DA:923,1
DA:924,1
DA:926,1
DA:927,1
DA:928,1
DA:929,1
DA:932,1
DA:935,1
DA:936,1
DA:937,1
DA:938,1
DA:940,1
DA:941,1
DA:942,1
DA:943,1
DA:944,1
DA:945,1
DA:946,1
DA:948,1
DA:949,1
DA:950,1
DA:951,1
DA:954,1
DA:955,1
DA:956,1
DA:957,1
DA:958,1
DA:959,1
DA:962,1
DA:963,1
DA:964,1
DA:965,1
DA:967,1
DA:968,1
DA:969,1
DA:970,1
DA:971,1
DA:972,1
DA:975,1
DA:978,1
DA:979,1
DA:980,1
DA:981,1
DA:983,1
DA:984,1
DA:985,1
DA:986,1
DA:987,1
DA:988,1
DA:989,1
DA:990,1
DA:991,1
DA:992,1
DA:993,1
DA:995,1
DA:996,1
DA:997,1
DA:998,1
DA:1001,1
DA:1002,1
DA:1003,1
DA:1006,1
DA:1007,1
DA:1008,1
DA:1009,1
DA:1010,1
DA:1013,1
DA:1014,1
DA:1015,1
DA:1016,1
DA:1017,1
DA:1019,1
DA:1020,1
DA:1021,1
DA:1024,1
DA:1025,1
DA:1026,1
DA:1027,1
DA:1030,1
DA:1036,1
DA:1037,1
DA:1038,1
DA:1039,1
DA:1041,1
DA:1044,1
DA:1045,1
DA:1046,1
DA:1047,1
DA:1049,1
DA:1050,1
DA:1051,1
DA:1052,1
DA:1053,1
DA:1056,1
DA:1057,1
DA:1058,1
DA:1059,1
DA:1062,1
DA:1063,1
DA:1064,1
DA:1065,1
BRF:0
BRH:0
LF:545
LH:507
end_of_record
SF:/Users/rawkode/Code/src/github.com/cuenv/cuenv/crates/ci/src/executor/config.rs
FN:120,_RINvMs_NtNtCskfEctF1MPvy_8cuenv_ci8executor6configNtB5_16CIExecutorConfig15with_shell_pathpEB9_
FN:130,_RNCNvMs_NtNtCskfEctF1MPvy_8cuenv_ci8executor6configNtB6_16CIExecutorConfig20effective_cache_root0Ba_
FN:92,_RNvMs_NtNtCskfEctF1MPvy_8cuenv_ci8executor6configNtB4_16CIExecutorConfig12with_dry_run
FN:71,_RNvMs_NtNtCskfEctF1MPvy_8cuenv_ci8executor6configNtB4_16CIExecutorConfig15with_cache_root
FN:106,_RNvMs_NtNtCskfEctF1MPvy_8cuenv_ci8executor6configNtB4_16CIExecutorConfig16with_secret_salt
FN:78,_RNvMs_NtNtCskfEctF1MPvy_8cuenv_ci8executor6configNtB4_16CIExecutorConfig17with_max_parallel
FN:85,_RNvMs_NtNtCskfEctF1MPvy_8cuenv_ci8executor6configNtB4_16CIExecutorConfig19with_capture_output
FN:127,_RNvMs_NtNtCskfEctF1MPvy_8cuenv_ci8executor6configNtB4_16CIExecutorConfig20effective_cache_root
FN:113,_RNvMs_NtNtCskfEctF1MPvy_8cuenv_ci8executor6configNtB4_16CIExecutorConfig21with_secret_salt_prev
FN:99,_RNvMs_NtNtCskfEctF1MPvy_8cuenv_ci8executor6configNtB4_16CIExecutorConfig26with_cache_policy_override
FN:62,_RNvMs_NtNtCskfEctF1MPvy_8cuenv_ci8executor6configNtB4_16CIExecutorConfig3new
FN:44,_RNvXNtNtCskfEctF1MPvy_8cuenv_ci8executor6configNtB2_16CIExecutorConfigNtNtCskzPJi2J8k3N_4core7default7Default7default
FN:92,_RNvMs_NtNtCsilPUL3AyWrc_8cuenv_ci8executor6configNtB4_16CIExecutorConfig12with_dry_run
FN:71,_RNvMs_NtNtCsilPUL3AyWrc_8cuenv_ci8executor6configNtB4_16CIExecutorConfig15with_cache_root
FN:106,_RNvMs_NtNtCsilPUL3AyWrc_8cuenv_ci8executor6configNtB4_16CIExecutorConfig16with_secret_salt
FN:78,_RNvMs_NtNtCsilPUL3AyWrc_8cuenv_ci8executor6configNtB4_16CIExecutorConfig17with_max_parallel
FN:85,_RNvMs_NtNtCsilPUL3AyWrc_8cuenv_ci8executor6configNtB4_16CIExecutorConfig19with_capture_output
FN:127,_RNvMs_NtNtCsilPUL3AyWrc_8cuenv_ci8executor6configNtB4_16CIExecutorConfig20effective_cache_root
FN:113,_RNvMs_NtNtCsilPUL3AyWrc_8cuenv_ci8executor6configNtB4_16CIExecutorConfig21with_secret_salt_prev
FN:99,_RNvMs_NtNtCsilPUL3AyWrc_8cuenv_ci8executor6configNtB4_16CIExecutorConfig26with_cache_policy_override
FN:62,_RNvMs_NtNtCsilPUL3AyWrc_8cuenv_ci8executor6configNtB4_16CIExecutorConfig3new
FN:44,_RNvXNtNtCsilPUL3AyWrc_8cuenv_ci8executor6configNtB2_16CIExecutorConfigNtNtCskzPJi2J8k3N_4core7default7Default7default
FN:120,_RINvMs_NtNtCsilPUL3AyWrc_8cuenv_ci8executor6configNtB5_16CIExecutorConfig15with_shell_pathReEB9_
FN:130,_RNCNvMs_NtNtCsilPUL3AyWrc_8cuenv_ci8executor6configNtB6_16CIExecutorConfig20effective_cache_root0Ba_
FN:139,_RNvNtNtNtCsilPUL3AyWrc_8cuenv_ci8executor6config5testss_19test_default_config
FN:148,_RNvNtNtNtCsilPUL3AyWrc_8cuenv_ci8executor6config5testss_20test_builder_pattern
FN:182,_RNvNtNtNtCsilPUL3AyWrc_8cuenv_ci8executor6config5testss_22test_shell_path_custom
FN:176,_RNvNtNtNtCsilPUL3AyWrc_8cuenv_ci8executor6config5testss_23test_shell_path_default
FN:160,_RNvNtNtNtCsilPUL3AyWrc_8cuenv_ci8executor6config5testss_25test_effective_cache_root
FNDA:0,_RINvMs_NtNtCskfEctF1MPvy_8cuenv_ci8executor6configNtB5_16CIExecutorConfig15with_shell_pathpEB9_
FNDA:0,_RNCNvMs_NtNtCskfEctF1MPvy_8cuenv_ci8executor6configNtB6_16CIExecutorConfig20effective_cache_root0Ba_
FNDA:0,_RNvMs_NtNtCskfEctF1MPvy_8cuenv_ci8executor6configNtB4_16CIExecutorConfig12with_dry_run
FNDA:0,_RNvMs_NtNtCskfEctF1MPvy_8cuenv_ci8executor6configNtB4_16CIExecutorConfig15with_cache_root
FNDA:0,_RNvMs_NtNtCskfEctF1MPvy_8cuenv_ci8executor6configNtB4_16CIExecutorConfig16with_secret_salt
FNDA:0,_RNvMs_NtNtCskfEctF1MPvy_8cuenv_ci8executor6configNtB4_16CIExecutorConfig17with_max_parallel
FNDA:0,_RNvMs_NtNtCskfEctF1MPvy_8cuenv_ci8executor6configNtB4_16CIExecutorConfig19with_capture_output
FNDA:0,_RNvMs_NtNtCskfEctF1MPvy_8cuenv_ci8executor6configNtB4_16CIExecutorConfig20effective_cache_root
FNDA:0,_RNvMs_NtNtCskfEctF1MPvy_8cuenv_ci8executor6configNtB4_16CIExecutorConfig21with_secret_salt_prev
FNDA:0,_RNvMs_NtNtCskfEctF1MPvy_8cuenv_ci8executor6configNtB4_16CIExecutorConfig26with_cache_policy_override
FNDA:0,_RNvMs_NtNtCskfEctF1MPvy_8cuenv_ci8executor6configNtB4_16CIExecutorConfig3new
FNDA:0,_RNvXNtNtCskfEctF1MPvy_8cuenv_ci8executor6configNtB2_16CIExecutorConfigNtNtCskzPJi2J8k3N_4core7default7Default7default
FNDA:2,_RNvMs_NtNtCsilPUL3AyWrc_8cuenv_ci8executor6configNtB4_16CIExecutorConfig12with_dry_run
FNDA:1,_RNvMs_NtNtCsilPUL3AyWrc_8cuenv_ci8executor6configNtB4_16CIExecutorConfig15with_cache_root
FNDA:0,_RNvMs_NtNtCsilPUL3AyWrc_8cuenv_ci8executor6configNtB4_16CIExecutorConfig16with_secret_salt
FNDA:2,_RNvMs_NtNtCsilPUL3AyWrc_8cuenv_ci8executor6configNtB4_16CIExecutorConfig17with_max_parallel
FNDA:1,_RNvMs_NtNtCsilPUL3AyWrc_8cuenv_ci8executor6configNtB4_16CIExecutorConfig19with_capture_output
FNDA:2,_RNvMs_NtNtCsilPUL3AyWrc_8cuenv_ci8executor6configNtB4_16CIExecutorConfig20effective_cache_root
FNDA:0,_RNvMs_NtNtCsilPUL3AyWrc_8cuenv_ci8executor6configNtB4_16CIExecutorConfig21with_secret_salt_prev
FNDA:1,_RNvMs_NtNtCsilPUL3AyWrc_8cuenv_ci8executor6configNtB4_16CIExecutorConfig26with_cache_policy_override
FNDA:6,_RNvMs_NtNtCsilPUL3AyWrc_8cuenv_ci8executor6configNtB4_16CIExecutorConfig3new
FNDA:14,_RNvXNtNtCsilPUL3AyWrc_8cuenv_ci8executor6configNtB2_16CIExecutorConfigNtNtCskzPJi2J8k3N_4core7default7Default7default
FNDA:1,_RINvMs_NtNtCsilPUL3AyWrc_8cuenv_ci8executor6configNtB5_16CIExecutorConfig15with_shell_pathReEB9_
FNDA:1,_RNCNvMs_NtNtCsilPUL3AyWrc_8cuenv_ci8executor6configNtB6_16CIExecutorConfig20effective_cache_root0Ba_
FNDA:1,_RNvNtNtNtCsilPUL3AyWrc_8cuenv_ci8executor6config5testss_19test_default_config
FNDA:1,_RNvNtNtNtCsilPUL3AyWrc_8cuenv_ci8executor6config5testss_20test_builder_pattern
FNDA:1,_RNvNtNtNtCsilPUL3AyWrc_8cuenv_ci8executor6config5testss_22test_shell_path_custom
FNDA:1,_RNvNtNtNtCsilPUL3AyWrc_8cuenv_ci8executor6config5testss_23test_shell_path_default
FNDA:1,_RNvNtNtNtCsilPUL3AyWrc_8cuenv_ci8executor6config5testss_25test_effective_cache_root
FNF:17
FNH:15
DA:44,14
DA:45,14
DA:46,14
DA:47,14
DA:48,14
DA:49,14
DA:50,14
DA:51,14
DA:52,14
DA:53,14
DA:54,14
DA:55,14
DA:56,14
DA:62,6
DA:63,6
DA:64,6
DA:65,6
DA:66,6
DA:67,6
DA:71,1
DA:72,1
DA:73,1
DA:74,1
DA:78,2
DA:79,2
DA:80,2
DA:81,2
DA:85,1
DA:86,1
DA:87,1
DA:88,1
DA:92,2
DA:93,2
DA:94,2
DA:95,2
DA:99,1
DA:100,1
DA:101,1
DA:102,1
DA:106,0
DA:107,0
DA:108,0
DA:109,0
DA:113,0
DA:114,0
DA:115,0
DA:116,0
DA:120,1
DA:121,1
DA:122,1
DA:123,1
DA:127,2
DA:128,2
DA:129,2
DA:130,2
DA:131,2
DA:139,1
DA:140,1
DA:141,1
DA:142,1
DA:143,1
DA:144,1
DA:145,1
DA:148,1
DA:149,1
DA:150,1
DA:151,1
DA:152,1
DA:154,1
DA:155,1
DA:156,1
DA:157,1
DA:160,1
DA:161,1
DA:162,1
DA:163,1
DA:164,1
DA:167,1
DA:168,1
DA:169,1
DA:170,1
DA:171,1
DA:173,1
DA:176,1
DA:177,1
DA:178,1
DA:179,1
DA:182,1
DA:183,1
DA:184,1
DA:185,1
BRF:0
BRH:0
LF:92
LH:84
end_of_record
SF:/Users/rawkode/Code/src/github.com/cuenv/cuenv/crates/ci/src/executor/graph.rs
FN:114,_RNvMNtNtCskfEctF1MPvy_8cuenv_ci8executor5graphNtB2_11CITaskGraph10has_cycles
FN:120,_RNvMNtNtCskfEctF1MPvy_8cuenv_ci8executor5graphNtB2_11CITaskGraph10task_count
FN:175,_RNvMNtNtCskfEctF1MPvy_8cuenv_ci8executor5graphNtB2_11CITaskGraph15compute_digests
FN:132,_RNvMNtNtCskfEctF1MPvy_8cuenv_ci8executor5graphNtB2_11CITaskGraph19get_parallel_groups
FN:286,_RNvMNtNtCskfEctF1MPvy_8cuenv_ci8executor5graphNtB2_11CITaskGraph21depends_on_deployment
FN:232,_RNvMNtNtCskfEctF1MPvy_8cuenv_ci8executor5graphNtB2_11CITaskGraph33propagate_deployment_cache_policy
FN:58,_RNvMNtNtCskfEctF1MPvy_8cuenv_ci8executor5graphNtB2_11CITaskGraph7from_ir
FN:211,_RNvMNtNtCskfEctF1MPvy_8cuenv_ci8executor5graphNtB2_11CITaskGraph8get_task
FN:217,_RNvMNtNtCskfEctF1MPvy_8cuenv_ci8executor5graphNtB2_11CITaskGraph8task_ids
FN:189,_RNCNCNvMNtNtCskfEctF1MPvy_8cuenv_ci8executor5graphNtB6_11CITaskGraph15compute_digests00Ba_
FN:189,_RNCNvMNtNtCskfEctF1MPvy_8cuenv_ci8executor5graphNtB4_11CITaskGraph15compute_digests0B8_
FN:190,_RNCNvMNtNtCskfEctF1MPvy_8cuenv_ci8executor5graphNtB4_11CITaskGraph15compute_digestss_0B8_
FN:242,_RNCNvMNtNtCskfEctF1MPvy_8cuenv_ci8executor5graphNtB4_11CITaskGraph33propagate_deployment_cache_policy0B8_
FN:82,_RNCNvMNtNtCskfEctF1MPvy_8cuenv_ci8executor5graphNtB4_11CITaskGraph7from_ir0B8_
FN:102,_RNCNvMNtNtCskfEctF1MPvy_8cuenv_ci8executor5graphNtB4_11CITaskGraph7from_irs_0B8_
FN:212,_RNCNvMNtNtCskfEctF1MPvy_8cuenv_ci8executor5graphNtB4_11CITaskGraph8get_task0B8_
FN:220,_RNCNvMNtNtCskfEctF1MPvy_8cuenv_ci8executor5graphNtB4_11CITaskGraph8task_ids0B8_
FN:242,_RNCNvMNtNtCsilPUL3AyWrc_8cuenv_ci8executor5graphNtB4_11CITaskGraph33propagate_deployment_cache_policy0B8_
FN:220,_RNCNvMNtNtCsilPUL3AyWrc_8cuenv_ci8executor5graphNtB4_11CITaskGraph8task_ids0B8_
FN:286,_RNvMNtNtCsilPUL3AyWrc_8cuenv_ci8executor5graphNtB2_11CITaskGraph21depends_on_deployment
FN:232,_RNvMNtNtCsilPUL3AyWrc_8cuenv_ci8executor5graphNtB2_11CITaskGraph33propagate_deployment_cache_policy
FN:217,_RNvMNtNtCsilPUL3AyWrc_8cuenv_ci8executor5graphNtB2_11CITaskGraph8task_ids
FN:325,_RNCNvNtNtNtCsilPUL3AyWrc_8cuenv_ci8executor5graph5tests9make_task0B9_
FN:114,_RNvMNtNtCsilPUL3AyWrc_8cuenv_ci8executor5graphNtB2_11CITaskGraph10has_cycles
FN:120,_RNvMNtNtCsilPUL3AyWrc_8cuenv_ci8executor5graphNtB2_11CITaskGraph10task_count
FN:175,_RNvMNtNtCsilPUL3AyWrc_8cuenv_ci8executor5graphNtB2_11CITaskGraph15compute_digests
FN:132,_RNvMNtNtCsilPUL3AyWrc_8cuenv_ci8executor5graphNtB2_11CITaskGraph19get_parallel_groups
FN:58,_RNvMNtNtCsilPUL3AyWrc_8cuenv_ci8executor5graphNtB2_11CITaskGraph7from_ir
FN:211,_RNvMNtNtCsilPUL3AyWrc_8cuenv_ci8executor5graphNtB2_11CITaskGraph8get_task
FN:335,_RNvNtNtNtCsilPUL3AyWrc_8cuenv_ci8executor5graph5tests7make_ir
FN:313,_RNvNtNtNtCsilPUL3AyWrc_8cuenv_ci8executor5graph5tests9make_task
FN:353,_RNvNtNtNtCsilPUL3AyWrc_8cuenv_ci8executor5graph5testss_17test_simple_graph
FN:400,_RNvNtNtNtCsilPUL3AyWrc_8cuenv_ci8executor5graph5testss_20test_cycle_detection
FN:420,_RNvNtNtNtCsilPUL3AyWrc_8cuenv_ci8executor5graph5testss_23test_digest_computation
FN:412,_RNvNtNtNtCsilPUL3AyWrc_8cuenv_ci8executor5graph5testss_23test_missing_dependency
FN:362,_RNvNtNtNtCsilPUL3AyWrc_8cuenv_ci8executor5graph5testss_27test_parallel_groups_linear
FN:380,_RNvNtNtNtCsilPUL3AyWrc_8cuenv_ci8executor5graph5testss_28test_parallel_groups_diamond
FN:432,_RNvNtNtNtCsilPUL3AyWrc_8cuenv_ci8executor5graph5testss_33test_independent_tasks_same_group
FN:189,_RNCNCNvMNtNtCsilPUL3AyWrc_8cuenv_ci8executor5graphNtB6_11CITaskGraph15compute_digests00Ba_
FN:189,_RNCNvMNtNtCsilPUL3AyWrc_8cuenv_ci8executor5graphNtB4_11CITaskGraph15compute_digests0B8_
FN:190,_RNCNvMNtNtCsilPUL3AyWrc_8cuenv_ci8executor5graphNtB4_11CITaskGraph15compute_digestss_0B8_
FN:82,_RNCNvMNtNtCsilPUL3AyWrc_8cuenv_ci8executor5graphNtB4_11CITaskGraph7from_ir0B8_
FN:102,_RNCNvMNtNtCsilPUL3AyWrc_8cuenv_ci8executor5graphNtB4_11CITaskGraph7from_irs_0B8_
FN:212,_RNCNvMNtNtCsilPUL3AyWrc_8cuenv_ci8executor5graphNtB4_11CITaskGraph8get_task0B8_
FNDA:0,_RNvMNtNtCskfEctF1MPvy_8cuenv_ci8executor5graphNtB2_11CITaskGraph10has_cycles
FNDA:0,_RNvMNtNtCskfEctF1MPvy_8cuenv_ci8executor5graphNtB2_11CITaskGraph10task_count
FNDA:0,_RNvMNtNtCskfEctF1MPvy_8cuenv_ci8executor5graphNtB2_11CITaskGraph15compute_digests
FNDA:0,_RNvMNtNtCskfEctF1MPvy_8cuenv_ci8executor5graphNtB2_11CITaskGraph19get_parallel_groups
FNDA:0,_RNvMNtNtCskfEctF1MPvy_8cuenv_ci8executor5graphNtB2_11CITaskGraph21depends_on_deployment
FNDA:0,_RNvMNtNtCskfEctF1MPvy_8cuenv_ci8executor5graphNtB2_11CITaskGraph33propagate_deployment_cache_policy
FNDA:0,_RNvMNtNtCskfEctF1MPvy_8cuenv_ci8executor5graphNtB2_11CITaskGraph7from_ir
FNDA:0,_RNvMNtNtCskfEctF1MPvy_8cuenv_ci8executor5graphNtB2_11CITaskGraph8get_task
FNDA:0,_RNvMNtNtCskfEctF1MPvy_8cuenv_ci8executor5graphNtB2_11CITaskGraph8task_ids
FNDA:0,_RNCNCNvMNtNtCskfEctF1MPvy_8cuenv_ci8executor5graphNtB6_11CITaskGraph15compute_digests00Ba_
FNDA:0,_RNCNvMNtNtCskfEctF1MPvy_8cuenv_ci8executor5graphNtB4_11CITaskGraph15compute_digests0B8_
FNDA:0,_RNCNvMNtNtCskfEctF1MPvy_8cuenv_ci8executor5graphNtB4_11CITaskGraph15compute_digestss_0B8_
FNDA:0,_RNCNvMNtNtCskfEctF1MPvy_8cuenv_ci8executor5graphNtB4_11CITaskGraph33propagate_deployment_cache_policy0B8_
FNDA:0,_RNCNvMNtNtCskfEctF1MPvy_8cuenv_ci8executor5graphNtB4_11CITaskGraph7from_ir0B8_
FNDA:0,_RNCNvMNtNtCskfEctF1MPvy_8cuenv_ci8executor5graphNtB4_11CITaskGraph7from_irs_0B8_
FNDA:0,_RNCNvMNtNtCskfEctF1MPvy_8cuenv_ci8executor5graphNtB4_11CITaskGraph8get_task0B8_
FNDA:0,_RNCNvMNtNtCskfEctF1MPvy_8cuenv_ci8executor5graphNtB4_11CITaskGraph8task_ids0B8_
FNDA:0,_RNCNvMNtNtCsilPUL3AyWrc_8cuenv_ci8executor5graphNtB4_11CITaskGraph33propagate_deployment_cache_policy0B8_
FNDA:0,_RNCNvMNtNtCsilPUL3AyWrc_8cuenv_ci8executor5graphNtB4_11CITaskGraph8task_ids0B8_
FNDA:0,_RNvMNtNtCsilPUL3AyWrc_8cuenv_ci8executor5graphNtB2_11CITaskGraph21depends_on_deployment
FNDA:0,_RNvMNtNtCsilPUL3AyWrc_8cuenv_ci8executor5graphNtB2_11CITaskGraph33propagate_deployment_cache_policy
FNDA:0,_RNvMNtNtCsilPUL3AyWrc_8cuenv_ci8executor5graphNtB2_11CITaskGraph8task_ids
FNDA:11,_RNCNvNtNtNtCsilPUL3AyWrc_8cuenv_ci8executor5graph5tests9make_task0B9_
FNDA:7,_RNvMNtNtCsilPUL3AyWrc_8cuenv_ci8executor5graphNtB2_11CITaskGraph10has_cycles
FNDA:1,_RNvMNtNtCsilPUL3AyWrc_8cuenv_ci8executor5graphNtB2_11CITaskGraph10task_count
FNDA:1,_RNvMNtNtCsilPUL3AyWrc_8cuenv_ci8executor5graphNtB2_11CITaskGraph15compute_digests
FNDA:3,_RNvMNtNtCsilPUL3AyWrc_8cuenv_ci8executor5graphNtB2_11CITaskGraph19get_parallel_groups
FNDA:7,_RNvMNtNtCsilPUL3AyWrc_8cuenv_ci8executor5graphNtB2_11CITaskGraph7from_ir
FNDA:1,_RNvMNtNtCsilPUL3AyWrc_8cuenv_ci8executor5graphNtB2_11CITaskGraph8get_task
FNDA:7,_RNvNtNtNtCsilPUL3AyWrc_8cuenv_ci8executor5graph5tests7make_ir
FNDA:17,_RNvNtNtNtCsilPUL3AyWrc_8cuenv_ci8executor5graph5tests9make_task
FNDA:1,_RNvNtNtNtCsilPUL3AyWrc_8cuenv_ci8executor5graph5testss_17test_simple_graph
FNDA:1,_RNvNtNtNtCsilPUL3AyWrc_8cuenv_ci8executor5graph5testss_20test_cycle_detection
FNDA:1,_RNvNtNtNtCsilPUL3AyWrc_8cuenv_ci8executor5graph5testss_23test_digest_computation
FNDA:1,_RNvNtNtNtCsilPUL3AyWrc_8cuenv_ci8executor5graph5testss_23test_missing_dependency
FNDA:1,_RNvNtNtNtCsilPUL3AyWrc_8cuenv_ci8executor5graph5testss_27test_parallel_groups_linear
FNDA:1,_RNvNtNtNtCsilPUL3AyWrc_8cuenv_ci8executor5graph5testss_28test_parallel_groups_diamond
FNDA:1,_RNvNtNtNtCsilPUL3AyWrc_8cuenv_ci8executor5graph5testss_33test_independent_tasks_same_group
FNDA:0,_RNCNCNvMNtNtCsilPUL3AyWrc_8cuenv_ci8executor5graphNtB6_11CITaskGraph15compute_digests00Ba_
FNDA:0,_RNCNvMNtNtCsilPUL3AyWrc_8cuenv_ci8executor5graphNtB4_11CITaskGraph15compute_digests0B8_
FNDA:0,_RNCNvMNtNtCsilPUL3AyWrc_8cuenv_ci8executor5graphNtB4_11CITaskGraph15compute_digestss_0B8_
FNDA:1,_RNCNvMNtNtCsilPUL3AyWrc_8cuenv_ci8executor5graphNtB4_11CITaskGraph7from_ir0B8_
FNDA:3,_RNCNvMNtNtCsilPUL3AyWrc_8cuenv_ci8executor5graphNtB4_11CITaskGraph7from_irs_0B8_
FNDA:1,_RNCNvMNtNtCsilPUL3AyWrc_8cuenv_ci8executor5graphNtB4_11CITaskGraph8get_task0B8_
FNF:27
FNH:19
DA:58,7
DA:59,7
DA:60,7
DA:63,24
DA:64,17
DA:65,17
DA:66,17
DA:67,17
DA:68,17
DA:69,17
DA:70,17
DA:71,17
DA:74,7
DA:75,23
DA:76,17
DA:77,27
DA:78,10
DA:79,11
DA:80,11
DA:81,11
DA:82,1
DA:83,1
DA:84,1
DA:86,10
DA:90,16
DA:91,10
DA:92,10
DA:94,6
DA:97,6
DA:99,1
DA:100,1
DA:101,1
DA:102,3
DA:103,1
DA:104,1
DA:105,1
DA:106,1
DA:107,5
DA:109,5
DA:110,7
DA:114,7
DA:115,7
DA:116,7
DA:120,1
DA:121,1
DA:122,1
DA:132,3
DA:134,3
DA:136,3
DA:137,0
DA:138,3
DA:141,3
DA:142,3
DA:144,13
DA:145,10
DA:148,10
DA:149,16
DA:150,6
DA:151,6
DA:152,6
DA:156,10
DA:157,7
DA:158,7
DA:159,10
DA:160,10
DA:163,3
DA:164,3
DA:175,1
DA:176,1
DA:177,1
DA:178,1
DA:179,1
DA:180,1
DA:181,1
DA:182,1
DA:183,1
DA:186,1
DA:187,1
DA:188,1
DA:189,1
DA:190,1
DA:193,1
DA:195,1
DA:196,1
DA:197,1
DA:198,1
DA:199,1
DA:200,1
DA:201,1
DA:205,1
DA:207,1
DA:211,1
DA:212,1
DA:213,1
DA:217,0
DA:218,0
DA:219,0
DA:220,0
DA:221,0
DA:222,0
DA:232,0
DA:236,0
DA:239,0
DA:240,0
DA:241,0
DA:242,0
DA:243,0
DA:246,0
DA:249,0
DA:250,0
DA:252,0
DA:253,0
DA:254,0
DA:256,0
DA:257,0
DA:258,0
DA:261,0
DA:263,0
DA:264,0
DA:265,0
DA:270,0
DA:271,0
DA:273,0
DA:274,0
DA:275,0
DA:277,0
DA:279,0
DA:281,0
DA:282,0
DA:286,0
DA:289,0
DA:290,0
DA:294,0
DA:295,0
DA:296,0
DA:297,0
DA:299,0
DA:300,0
DA:303,0
DA:304,0
DA:313,17
DA:315,17
DA:316,17
DA:317,17
DA:319,17
DA:320,17
DA:321,17
DA:322,17
DA:323,17
DA:324,17
DA:325,17
DA:326,17
DA:329,17
DA:330,17
DA:331,17
DA:333,17
DA:335,7
DA:336,7
DA:337,7
DA:338,7
DA:339,7
DA:340,7
DA:341,7
DA:342,7
DA:343,7
DA:344,7
DA:345,7
DA:346,7
DA:347,7
DA:348,7
DA:349,7
DA:350,7
DA:353,1
DA:354,1
DA:356,1
DA:357,1
DA:358,1
DA:359,1
DA:362,1
DA:364,1
DA:365,1
DA:366,1
DA:367,1
DA:370,1
DA:371,1
DA:373,1
DA:374,1
DA:375,1
DA:376,1
DA:377,1
DA:380,1
DA:383,1
DA:384,1
DA:385,1
DA:386,1
DA:387,1
DA:390,1
DA:391,1
DA:393,1
DA:394,1
DA:395,1
DA:396,1
DA:397,1
DA:400,1
DA:401,1
DA:402,1
DA:403,1
DA:404,1
DA:407,1
DA:408,1
DA:409,1
DA:412,1
DA:413,1
DA:415,1
DA:416,1
DA:417,1
DA:420,1
DA:421,1
DA:423,1
DA:424,1
DA:426,1
DA:427,1
DA:428,1
DA:429,1
DA:432,1
DA:434,1
DA:435,1
DA:436,1
DA:437,1
DA:440,1
DA:441,1
DA:443,1
DA:444,1
DA:445,1
BRF:0
BRH:0
LF:243
LH:191
end_of_record
SF:/Users/rawkode/Code/src/github.com/cuenv/cuenv/crates/ci/src/executor/lock.rs
FN:136,_RINvMs0_NtNtCskfEctF1MPvy_8cuenv_ci8executor4lockNtB6_15ConcurrencyLock13with_lock_dirpEBa_
FN:158,_RNCNvMs0_NtNtCskfEctF1MPvy_8cuenv_ci8executor4lockNtB7_15ConcurrencyLock7acquire0Bb_
FN:343,_RNvXs3_NtNtCskfEctF1MPvy_8cuenv_ci8executor4lockNtB5_9LockGuardNtNtNtCskzPJi2J8k3N_4core3ops4drop4Drop4drop
FN:284,_RNCNvMs0_NtNtCskfEctF1MPvy_8cuenv_ci8executor4lockNtB7_15ConcurrencyLock11try_acquire0Bb_
FN:262,_RNCNvMs0_NtNtCskfEctF1MPvy_8cuenv_ci8executor4lockNtB7_15ConcurrencyLock9lock_path0Bb_
FN:370,_RNCNvNtNtCskfEctF1MPvy_8cuenv_ci8executor4lock17current_timestamp0B7_
FN:64,_RNvMNtNtCskfEctF1MPvy_8cuenv_ci8executor4lockNtB2_12LockMetadata11deserialize
FN:60,_RNvMNtNtCskfEctF1MPvy_8cuenv_ci8executor4lockNtB2_12LockMetadata9serialize
FN:273,_RNvMs0_NtNtCskfEctF1MPvy_8cuenv_ci8executor4lockNtB5_15ConcurrencyLock11try_acquire
FN:130,_RNvMs0_NtNtCskfEctF1MPvy_8cuenv_ci8executor4lockNtB5_15ConcurrencyLock11with_config
FN:143,_RNvMs0_NtNtCskfEctF1MPvy_8cuenv_ci8executor4lockNtB5_15ConcurrencyLock12with_timeout
FN:226,_RNvMs0_NtNtCskfEctF1MPvy_8cuenv_ci8executor4lockNtB5_15ConcurrencyLock16try_acquire_sync
FN:122,_RNvMs0_NtNtCskfEctF1MPvy_8cuenv_ci8executor4lockNtB5_15ConcurrencyLock3new
FN:158,_RNvMs0_NtNtCskfEctF1MPvy_8cuenv_ci8executor4lockNtB5_15ConcurrencyLock7acquire
FN:246,_RNvMs0_NtNtCskfEctF1MPvy_8cuenv_ci8executor4lockNtB5_15ConcurrencyLock9is_locked
FN:253,_RNvMs0_NtNtCskfEctF1MPvy_8cuenv_ci8executor4lockNtB5_15ConcurrencyLock9lock_info
FN:258,_RNvMs0_NtNtCskfEctF1MPvy_8cuenv_ci8executor4lockNtB5_15ConcurrencyLock9lock_path
FN:331,_RNvMs2_NtNtCskfEctF1MPvy_8cuenv_ci8executor4lockNtB5_9LockGuard5group
FN:336,_RNvMs2_NtNtCskfEctF1MPvy_8cuenv_ci8executor4lockNtB5_9LockGuard7release
FN:365,_RNvNtNtCskfEctF1MPvy_8cuenv_ci8executor4lock17current_timestamp
FN:358,_RNvNtNtCskfEctF1MPvy_8cuenv_ci8executor4lock18read_lock_metadata
FN:316,_RNvXs1_NtNtCskfEctF1MPvy_8cuenv_ci8executor4lockNtB5_15ConcurrencyLockNtNtCskzPJi2J8k3N_4core7default7Default7default
FN:89,_RNvXs_NtNtCskfEctF1MPvy_8cuenv_ci8executor4lockNtB4_10LockConfigNtNtCskzPJi2J8k3N_4core7default7Default7default
FN:130,_RNvMs0_NtNtCsilPUL3AyWrc_8cuenv_ci8executor4lockNtB5_15ConcurrencyLock11with_config
FN:331,_RNvMs2_NtNtCsilPUL3AyWrc_8cuenv_ci8executor4lockNtB5_9LockGuard5group
FN:336,_RNvMs2_NtNtCsilPUL3AyWrc_8cuenv_ci8executor4lockNtB5_9LockGuard7release
FN:316,_RNvXs1_NtNtCsilPUL3AyWrc_8cuenv_ci8executor4lockNtB5_15ConcurrencyLockNtNtCskzPJi2J8k3N_4core7default7Default7default
FN:469,_RNvNtNtNtCsilPUL3AyWrc_8cuenv_ci8executor4lock5testss_12test_timeout
FN:430,_RNvNtNtNtCsilPUL3AyWrc_8cuenv_ci8executor4lock5testss_14test_lock_info
FN:418,_RNvNtNtNtCsilPUL3AyWrc_8cuenv_ci8executor4lock5testss_21test_different_groups
FN:457,_RNvNtNtNtCsilPUL3AyWrc_8cuenv_ci8executor4lock5testss_22test_async_acquisition
FN:484,_RNvNtNtNtCsilPUL3AyWrc_8cuenv_ci8executor4lock5testss_25test_lock_release_on_drop
FN:396,_RNvNtNtNtCsilPUL3AyWrc_8cuenv_ci8executor4lock5testss_26test_lock_acquisition_sync
FN:442,_RNvNtNtNtCsilPUL3AyWrc_8cuenv_ci8executor4lock5testss_28test_group_name_sanitization
FN:380,_RNvNtNtNtCsilPUL3AyWrc_8cuenv_ci8executor4lock5testss_32test_lock_metadata_serialization
FN:469,_RNCNvNtNtNtCsilPUL3AyWrc_8cuenv_ci8executor4lock5testss_12test_timeout0B9_
FN:457,_RNCNvNtNtNtCsilPUL3AyWrc_8cuenv_ci8executor4lock5testss_22test_async_acquisition0B9_
FN:136,_RINvMs0_NtNtCsilPUL3AyWrc_8cuenv_ci8executor4lockNtB6_15ConcurrencyLock13with_lock_dirRNtNtCsiThrkg7suPy_3std4path4PathEBa_
FN:284,_RNCNvMs0_NtNtCsilPUL3AyWrc_8cuenv_ci8executor4lockNtB7_15ConcurrencyLock11try_acquire0Bb_
FN:158,_RNCNvMs0_NtNtCsilPUL3AyWrc_8cuenv_ci8executor4lockNtB7_15ConcurrencyLock7acquire0Bb_
FN:262,_RNCNvMs0_NtNtCsilPUL3AyWrc_8cuenv_ci8executor4lockNtB7_15ConcurrencyLock9lock_path0Bb_
FN:370,_RNCNvNtNtCsilPUL3AyWrc_8cuenv_ci8executor4lock17current_timestamp0B7_
FN:64,_RNvMNtNtCsilPUL3AyWrc_8cuenv_ci8executor4lockNtB2_12LockMetadata11deserialize
FN:60,_RNvMNtNtCsilPUL3AyWrc_8cuenv_ci8executor4lockNtB2_12LockMetadata9serialize
FN:273,_RNvMs0_NtNtCsilPUL3AyWrc_8cuenv_ci8executor4lockNtB5_15ConcurrencyLock11try_acquire
FN:143,_RNvMs0_NtNtCsilPUL3AyWrc_8cuenv_ci8executor4lockNtB5_15ConcurrencyLock12with_timeout
FN:226,_RNvMs0_NtNtCsilPUL3AyWrc_8cuenv_ci8executor4lockNtB5_15ConcurrencyLock16try_acquire_sync
FN:122,_RNvMs0_NtNtCsilPUL3AyWrc_8cuenv_ci8executor4lockNtB5_15ConcurrencyLock3new
FN:158,_RNvMs0_NtNtCsilPUL3AyWrc_8cuenv_ci8executor4lockNtB5_15ConcurrencyLock7acquire
FN:246,_RNvMs0_NtNtCsilPUL3AyWrc_8cuenv_ci8executor4lockNtB5_15ConcurrencyLock9is_locked
FN:253,_RNvMs0_NtNtCsilPUL3AyWrc_8cuenv_ci8executor4lockNtB5_15ConcurrencyLock9lock_info
FN:258,_RNvMs0_NtNtCsilPUL3AyWrc_8cuenv_ci8executor4lockNtB5_15ConcurrencyLock9lock_path
FN:365,_RNvNtNtCsilPUL3AyWrc_8cuenv_ci8executor4lock17current_timestamp
FN:358,_RNvNtNtCsilPUL3AyWrc_8cuenv_ci8executor4lock18read_lock_metadata
FN:89,_RNvXs_NtNtCsilPUL3AyWrc_8cuenv_ci8executor4lockNtB4_10LockConfigNtNtCskzPJi2J8k3N_4core7default7Default7default
FN:343,_RNvXs3_NtNtCsilPUL3AyWrc_8cuenv_ci8executor4lockNtB5_9LockGuardNtNtNtCskzPJi2J8k3N_4core3ops4drop4Drop4drop
FNDA:0,_RINvMs0_NtNtCskfEctF1MPvy_8cuenv_ci8executor4lockNtB6_15ConcurrencyLock13with_lock_dirpEBa_
FNDA:0,_RNCNvMs0_NtNtCskfEctF1MPvy_8cuenv_ci8executor4lockNtB7_15ConcurrencyLock7acquire0Bb_
FNDA:0,_RNvXs3_NtNtCskfEctF1MPvy_8cuenv_ci8executor4lockNtB5_9LockGuardNtNtNtCskzPJi2J8k3N_4core3ops4drop4Drop4drop
FNDA:0,_RNCNvMs0_NtNtCskfEctF1MPvy_8cuenv_ci8executor4lockNtB7_15ConcurrencyLock11try_acquire0Bb_
FNDA:0,_RNCNvMs0_NtNtCskfEctF1MPvy_8cuenv_ci8executor4lockNtB7_15ConcurrencyLock9lock_path0Bb_
FNDA:0,_RNCNvNtNtCskfEctF1MPvy_8cuenv_ci8executor4lock17current_timestamp0B7_
FNDA:0,_RNvMNtNtCskfEctF1MPvy_8cuenv_ci8executor4lockNtB2_12LockMetadata11deserialize
FNDA:0,_RNvMNtNtCskfEctF1MPvy_8cuenv_ci8executor4lockNtB2_12LockMetadata9serialize
FNDA:0,_RNvMs0_NtNtCskfEctF1MPvy_8cuenv_ci8executor4lockNtB5_15ConcurrencyLock11try_acquire
FNDA:0,_RNvMs0_NtNtCskfEctF1MPvy_8cuenv_ci8executor4lockNtB5_15ConcurrencyLock11with_config
FNDA:0,_RNvMs0_NtNtCskfEctF1MPvy_8cuenv_ci8executor4lockNtB5_15ConcurrencyLock12with_timeout
FNDA:0,_RNvMs0_NtNtCskfEctF1MPvy_8cuenv_ci8executor4lockNtB5_15ConcurrencyLock16try_acquire_sync
FNDA:0,_RNvMs0_NtNtCskfEctF1MPvy_8cuenv_ci8executor4lockNtB5_15ConcurrencyLock3new
FNDA:0,_RNvMs0_NtNtCskfEctF1MPvy_8cuenv_ci8executor4lockNtB5_15ConcurrencyLock7acquire
FNDA:0,_RNvMs0_NtNtCskfEctF1MPvy_8cuenv_ci8executor4lockNtB5_15ConcurrencyLock9is_locked
FNDA:0,_RNvMs0_NtNtCskfEctF1MPvy_8cuenv_ci8executor4lockNtB5_15ConcurrencyLock9lock_info
FNDA:0,_RNvMs0_NtNtCskfEctF1MPvy_8cuenv_ci8executor4lockNtB5_15ConcurrencyLock9lock_path
FNDA:0,_RNvMs2_NtNtCskfEctF1MPvy_8cuenv_ci8executor4lockNtB5_9LockGuard5group
FNDA:0,_RNvMs2_NtNtCskfEctF1MPvy_8cuenv_ci8executor4lockNtB5_9LockGuard7release
FNDA:0,_RNvNtNtCskfEctF1MPvy_8cuenv_ci8executor4lock17current_timestamp
FNDA:0,_RNvNtNtCskfEctF1MPvy_8cuenv_ci8executor4lock18read_lock_metadata
FNDA:0,_RNvXs1_NtNtCskfEctF1MPvy_8cuenv_ci8executor4lockNtB5_15ConcurrencyLockNtNtCskzPJi2J8k3N_4core7default7Default7default
FNDA:0,_RNvXs_NtNtCskfEctF1MPvy_8cuenv_ci8executor4lockNtB4_10LockConfigNtNtCskzPJi2J8k3N_4core7default7Default7default
FNDA:0,_RNvMs0_NtNtCsilPUL3AyWrc_8cuenv_ci8executor4lockNtB5_15ConcurrencyLock11with_config
FNDA:0,_RNvMs2_NtNtCsilPUL3AyWrc_8cuenv_ci8executor4lockNtB5_9LockGuard5group
FNDA:0,_RNvMs2_NtNtCsilPUL3AyWrc_8cuenv_ci8executor4lockNtB5_9LockGuard7release
FNDA:0,_RNvXs1_NtNtCsilPUL3AyWrc_8cuenv_ci8executor4lockNtB5_15ConcurrencyLockNtNtCskzPJi2J8k3N_4core7default7Default7default
FNDA:1,_RNvNtNtNtCsilPUL3AyWrc_8cuenv_ci8executor4lock5testss_12test_timeout
FNDA:1,_RNvNtNtNtCsilPUL3AyWrc_8cuenv_ci8executor4lock5testss_14test_lock_info
FNDA:1,_RNvNtNtNtCsilPUL3AyWrc_8cuenv_ci8executor4lock5testss_21test_different_groups
FNDA:1,_RNvNtNtNtCsilPUL3AyWrc_8cuenv_ci8executor4lock5testss_22test_async_acquisition
FNDA:1,_RNvNtNtNtCsilPUL3AyWrc_8cuenv_ci8executor4lock5testss_25test_lock_release_on_drop
FNDA:1,_RNvNtNtNtCsilPUL3AyWrc_8cuenv_ci8executor4lock5testss_26test_lock_acquisition_sync
FNDA:1,_RNvNtNtNtCsilPUL3AyWrc_8cuenv_ci8executor4lock5testss_28test_group_name_sanitization
FNDA:1,_RNvNtNtNtCsilPUL3AyWrc_8cuenv_ci8executor4lock5testss_32test_lock_metadata_serialization
FNDA:1,_RNCNvNtNtNtCsilPUL3AyWrc_8cuenv_ci8executor4lock5testss_12test_timeout0B9_
FNDA:1,_RNCNvNtNtNtCsilPUL3AyWrc_8cuenv_ci8executor4lock5testss_22test_async_acquisition0B9_
FNDA:7,_RINvMs0_NtNtCsilPUL3AyWrc_8cuenv_ci8executor4lockNtB6_15ConcurrencyLock13with_lock_dirRNtNtCsiThrkg7suPy_3std4path4PathEBa_
FNDA:0,_RNCNvMs0_NtNtCsilPUL3AyWrc_8cuenv_ci8executor4lockNtB7_15ConcurrencyLock11try_acquire0Bb_
FNDA:2,_RNCNvMs0_NtNtCsilPUL3AyWrc_8cuenv_ci8executor4lockNtB7_15ConcurrencyLock7acquire0Bb_
FNDA:203,_RNCNvMs0_NtNtCsilPUL3AyWrc_8cuenv_ci8executor4lockNtB7_15ConcurrencyLock9lock_path0Bb_
FNDA:14,_RNCNvNtNtCsilPUL3AyWrc_8cuenv_ci8executor4lock17current_timestamp0B7_
FNDA:5,_RNvMNtNtCsilPUL3AyWrc_8cuenv_ci8executor4lockNtB2_12LockMetadata11deserialize
FNDA:10,_RNvMNtNtCsilPUL3AyWrc_8cuenv_ci8executor4lockNtB2_12LockMetadata9serialize
FNDA:12,_RNvMs0_NtNtCsilPUL3AyWrc_8cuenv_ci8executor4lockNtB5_15ConcurrencyLock11try_acquire
FNDA:2,_RNvMs0_NtNtCsilPUL3AyWrc_8cuenv_ci8executor4lockNtB5_15ConcurrencyLock12with_timeout
FNDA:9,_RNvMs0_NtNtCsilPUL3AyWrc_8cuenv_ci8executor4lockNtB5_15ConcurrencyLock16try_acquire_sync
FNDA:7,_RNvMs0_NtNtCsilPUL3AyWrc_8cuenv_ci8executor4lockNtB5_15ConcurrencyLock3new
FNDA:2,_RNvMs0_NtNtCsilPUL3AyWrc_8cuenv_ci8executor4lockNtB5_15ConcurrencyLock7acquire
FNDA:8,_RNvMs0_NtNtCsilPUL3AyWrc_8cuenv_ci8executor4lockNtB5_15ConcurrencyLock9is_locked
FNDA:1,_RNvMs0_NtNtCsilPUL3AyWrc_8cuenv_ci8executor4lockNtB5_15ConcurrencyLock9lock_info
FNDA:20,_RNvMs0_NtNtCsilPUL3AyWrc_8cuenv_ci8executor4lockNtB5_15ConcurrencyLock9lock_path
FNDA:14,_RNvNtNtCsilPUL3AyWrc_8cuenv_ci8executor4lock17current_timestamp
FNDA:4,_RNvNtNtCsilPUL3AyWrc_8cuenv_ci8executor4lock18read_lock_metadata
FNDA:7,_RNvXs_NtNtCsilPUL3AyWrc_8cuenv_ci8executor4lockNtB4_10LockConfigNtNtCskzPJi2J8k3N_4core7default7Default7default
FNDA:9,_RNvXs3_NtNtCsilPUL3AyWrc_8cuenv_ci8executor4lockNtB5_9LockGuardNtNtNtCskzPJi2J8k3N_4core3ops4drop4Drop4drop
FNF:33
FNH:28
DA:60,10
DA:61,10
DA:62,10
DA:64,5
DA:65,5
DA:66,5
DA:67,0
DA:68,5
DA:70,5
DA:71,5
DA:72,5
DA:74,5
DA:89,7
DA:90,7
DA:91,7
DA:92,7
DA:93,7
DA:94,7
DA:95,7
DA:122,7
DA:123,7
DA:124,7
DA:125,7
DA:126,7
DA:130,0
DA:131,0
DA:132,0
DA:136,7
DA:137,7
DA:138,7
DA:139,7
DA:143,2
DA:144,2
DA:145,2
DA:146,2
DA:158,2
DA:160,2
DA:162,2
DA:163,2
DA:164,2
DA:165,2
DA:166,2
DA:167,2
DA:168,2
DA:169,2
DA:173,3
DA:175,1
DA:178,0
DA:180,1
DA:181,1
DA:182,1
DA:183,1
DA:185,2
DA:187,2
DA:188,0
DA:192,0
DA:195,0
DA:196,0
DA:197,2
DA:200,2
DA:201,1
DA:202,1
DA:203,1
DA:204,1
DA:205,1
DA:207,1
DA:210,0
DA:213,0
DA:217,1
DA:219,2
DA:226,9
DA:227,9
DA:229,9
DA:230,9
DA:231,9
DA:232,9
DA:233,9
DA:234,9
DA:236,9
DA:238,8
DA:239,8
DA:240,8
DA:241,8
DA:242,9
DA:246,8
DA:247,8
DA:248,8
DA:249,8
DA:253,1
DA:254,1
DA:255,1
DA:256,1
DA:258,20
DA:260,20
DA:261,20
DA:262,203
DA:263,203
DA:264,201
DA:266,2
DA:268,203
DA:269,20
DA:270,20
DA:271,20
DA:273,12
DA:275,12
DA:276,12
DA:277,12
DA:278,12
DA:280,9
DA:282,9
DA:283,9
DA:284,0
DA:285,0
DA:286,0
DA:287,9
DA:289,3
DA:291,3
DA:292,3
DA:293,3
DA:294,3
DA:295,3
DA:296,3
DA:297,3
DA:300,0
DA:301,0
DA:302,0
DA:303,0
DA:304,0
DA:307,0
DA:308,0
DA:309,0
DA:310,0
DA:312,12
DA:316,0
DA:317,0
DA:318,0
DA:331,0
DA:332,0
DA:333,0
DA:336,0
DA:338,0
DA:339,0
DA:343,9
DA:344,9
DA:345,0
DA:346,0
DA:349,0
DA:351,0
DA:353,9
DA:355,9
DA:358,4
DA:359,4
DA:360,4
DA:361,4
DA:362,4
DA:363,4
DA:365,14
DA:368,14
DA:369,14
DA:370,14
DA:371,14
DA:372,14
DA:380,1
DA:381,1
DA:382,1
DA:383,1
DA:384,1
DA:385,1
DA:387,1
DA:388,1
DA:390,1
DA:391,1
DA:392,1
DA:393,1
DA:396,1
DA:397,1
DA:398,1
DA:401,1
DA:402,1
DA:405,1
DA:406,1
DA:409,1
DA:410,1
DA:413,1
DA:414,1
DA:415,1
DA:418,1
DA:419,1
DA:420,1
DA:422,1
DA:423,1
DA:425,1
DA:426,1
DA:427,1
DA:430,1
DA:431,1
DA:432,1
DA:434,1
DA:436,1
DA:437,1
DA:438,1
DA:439,1
DA:442,1
DA:443,1
DA:444,1
DA:447,1
DA:448,1
DA:449,1
DA:452,1
DA:453,1
DA:454,1
DA:457,1
DA:458,1
DA:459,1
DA:460,1
DA:461,1
DA:463,1
DA:464,1
DA:465,1
DA:466,1
DA:469,1
DA:470,1
DA:471,1
DA:472,1
DA:473,1
DA:476,1
DA:479,1
DA:480,1
DA:481,1
DA:484,1
DA:485,1
DA:486,1
DA:489,1
DA:490,1
DA:494,1
DA:495,1
BRF:0
BRH:0
LF:244
LH:207
end_of_record
SF:/Users/rawkode/Code/src/github.com/cuenv/cuenv/crates/ci/src/executor/metrics.rs
FN:257,_RNCNvMNtNtCskfEctF1MPvy_8cuenv_ci8executor7metricsNtB4_12CacheMetrics8hit_rate0B8_
FN:267,_RNCNvMNtNtCskfEctF1MPvy_8cuenv_ci8executor7metricsNtB4_12CacheMetrics8hit_rates_0B8_
FN:478,_RNCNvNtNtCskfEctF1MPvy_8cuenv_ci8executor7metrics14global_metrics0B7_
FN:83,_RNvMNtNtCskfEctF1MPvy_8cuenv_ci8executor7metricsNtB2_12CacheMetrics10record_hit
FN:180,_RNvMNtNtCskfEctF1MPvy_8cuenv_ci8executor7metricsNtB2_12CacheMetrics10task_count
FN:94,_RNvMNtNtCskfEctF1MPvy_8cuenv_ci8executor7metricsNtB2_12CacheMetrics11record_miss
FN:121,_RNvMNtNtCskfEctF1MPvy_8cuenv_ci8executor7metricsNtB2_12CacheMetrics13record_upload
FN:202,_RNvMNtNtCskfEctF1MPvy_8cuenv_ci8executor7metricsNtB2_12CacheMetrics13runtime_count
FN:281,_RNvMNtNtCskfEctF1MPvy_8cuenv_ci8executor7metricsNtB2_12CacheMetrics13to_prometheus
FN:232,_RNvMNtNtCskfEctF1MPvy_8cuenv_ci8executor7metricsNtB2_12CacheMetrics14bytes_uploaded
FN:116,_RNvMNtNtCskfEctF1MPvy_8cuenv_ci8executor7metricsNtB2_12CacheMetrics15record_download
FN:226,_RNvMNtNtCskfEctF1MPvy_8cuenv_ci8executor7metricsNtB2_12CacheMetrics16bytes_downloaded
FN:220,_RNvMNtNtCskfEctF1MPvy_8cuenv_ci8executor7metricsNtB2_12CacheMetrics16restore_failures
FN:174,_RNvMNtNtCskfEctF1MPvy_8cuenv_ci8executor7metricsNtB2_12CacheMetrics18total_task_time_ms
FN:238,_RNvMNtNtCskfEctF1MPvy_8cuenv_ci8executor7metricsNtB2_12CacheMetrics20avg_check_latency_us
FN:186,_RNvMNtNtCskfEctF1MPvy_8cuenv_ci8executor7metricsNtB2_12CacheMetrics20avg_task_duration_ms
FN:126,_RNvMNtNtCskfEctF1MPvy_8cuenv_ci8executor7metricsNtB2_12CacheMetrics20record_check_latency
FN:133,_RNvMNtNtCskfEctF1MPvy_8cuenv_ci8executor7metricsNtB2_12CacheMetrics20record_task_duration
FN:196,_RNvMNtNtCskfEctF1MPvy_8cuenv_ci8executor7metricsNtB2_12CacheMetrics21total_runtime_time_ms
FN:105,_RNvMNtNtCskfEctF1MPvy_8cuenv_ci8executor7metricsNtB2_12CacheMetrics22record_restore_failure
FN:153,_RNvMNtNtCskfEctF1MPvy_8cuenv_ci8executor7metricsNtB2_12CacheMetrics30record_runtime_materialization
FN:78,_RNvMNtNtCskfEctF1MPvy_8cuenv_ci8executor7metricsNtB2_12CacheMetrics3new
FN:208,_RNvMNtNtCskfEctF1MPvy_8cuenv_ci8executor7metricsNtB2_12CacheMetrics4hits
FN:214,_RNvMNtNtCskfEctF1MPvy_8cuenv_ci8executor7metricsNtB2_12CacheMetrics6misses
FN:249,_RNvMNtNtCskfEctF1MPvy_8cuenv_ci8executor7metricsNtB2_12CacheMetrics8hit_rate
FN:460,_RNvMs0_NtNtCskfEctF1MPvy_8cuenv_ci8executor7metricsNtB5_13ErrorCounters3get
FN:448,_RNvMs0_NtNtCskfEctF1MPvy_8cuenv_ci8executor7metricsNtB5_13ErrorCounters9increment
FN:422,_RNvMs_NtNtCskfEctF1MPvy_8cuenv_ci8executor7metricsNtB4_14PolicyCounters3get
FN:413,_RNvMs_NtNtCskfEctF1MPvy_8cuenv_ci8executor7metricsNtB4_14PolicyCounters9increment
FN:476,_RNvNtNtCskfEctF1MPvy_8cuenv_ci8executor7metrics14global_metrics
FN:478,_RNCNvNtNtCsilPUL3AyWrc_8cuenv_ci8executor7metrics14global_metrics0B7_
FN:180,_RNvMNtNtCsilPUL3AyWrc_8cuenv_ci8executor7metricsNtB2_12CacheMetrics10task_count
FN:202,_RNvMNtNtCsilPUL3AyWrc_8cuenv_ci8executor7metricsNtB2_12CacheMetrics13runtime_count
FN:174,_RNvMNtNtCsilPUL3AyWrc_8cuenv_ci8executor7metricsNtB2_12CacheMetrics18total_task_time_ms
FN:186,_RNvMNtNtCsilPUL3AyWrc_8cuenv_ci8executor7metricsNtB2_12CacheMetrics20avg_task_duration_ms
FN:133,_RNvMNtNtCsilPUL3AyWrc_8cuenv_ci8executor7metricsNtB2_12CacheMetrics20record_task_duration
FN:196,_RNvMNtNtCsilPUL3AyWrc_8cuenv_ci8executor7metricsNtB2_12CacheMetrics21total_runtime_time_ms
FN:153,_RNvMNtNtCsilPUL3AyWrc_8cuenv_ci8executor7metricsNtB2_12CacheMetrics30record_runtime_materialization
FN:476,_RNvNtNtCsilPUL3AyWrc_8cuenv_ci8executor7metrics14global_metrics
FN:83,_RNvMNtNtCsilPUL3AyWrc_8cuenv_ci8executor7metricsNtB2_12CacheMetrics10record_hit
FN:94,_RNvMNtNtCsilPUL3AyWrc_8cuenv_ci8executor7metricsNtB2_12CacheMetrics11record_miss
FN:121,_RNvMNtNtCsilPUL3AyWrc_8cuenv_ci8executor7metricsNtB2_12CacheMetrics13record_upload
FN:281,_RNvMNtNtCsilPUL3AyWrc_8cuenv_ci8executor7metricsNtB2_12CacheMetrics13to_prometheus
FN:232,_RNvMNtNtCsilPUL3AyWrc_8cuenv_ci8executor7metricsNtB2_12CacheMetrics14bytes_uploaded
FN:116,_RNvMNtNtCsilPUL3AyWrc_8cuenv_ci8executor7metricsNtB2_12CacheMetrics15record_download
FN:226,_RNvMNtNtCsilPUL3AyWrc_8cuenv_ci8executor7metricsNtB2_12CacheMetrics16bytes_downloaded
FN:220,_RNvMNtNtCsilPUL3AyWrc_8cuenv_ci8executor7metricsNtB2_12CacheMetrics16restore_failures
FN:238,_RNvMNtNtCsilPUL3AyWrc_8cuenv_ci8executor7metricsNtB2_12CacheMetrics20avg_check_latency_us
FN:126,_RNvMNtNtCsilPUL3AyWrc_8cuenv_ci8executor7metricsNtB2_12CacheMetrics20record_check_latency
FN:105,_RNvMNtNtCsilPUL3AyWrc_8cuenv_ci8executor7metricsNtB2_12CacheMetrics22record_restore_failure
FN:78,_RNvMNtNtCsilPUL3AyWrc_8cuenv_ci8executor7metricsNtB2_12CacheMetrics3new
FN:208,_RNvMNtNtCsilPUL3AyWrc_8cuenv_ci8executor7metricsNtB2_12CacheMetrics4hits
FN:214,_RNvMNtNtCsilPUL3AyWrc_8cuenv_ci8executor7metricsNtB2_12CacheMetrics6misses
FN:249,_RNvMNtNtCsilPUL3AyWrc_8cuenv_ci8executor7metricsNtB2_12CacheMetrics8hit_rate
FN:460,_RNvMs0_NtNtCsilPUL3AyWrc_8cuenv_ci8executor7metricsNtB5_13ErrorCounters3get
FN:448,_RNvMs0_NtNtCsilPUL3AyWrc_8cuenv_ci8executor7metricsNtB5_13ErrorCounters9increment
FN:422,_RNvMs_NtNtCsilPUL3AyWrc_8cuenv_ci8executor7metricsNtB4_14PolicyCounters3get
FN:413,_RNvMs_NtNtCsilPUL3AyWrc_8cuenv_ci8executor7metricsNtB4_14PolicyCounters9increment
FN:511,_RNvNtNtNtCsilPUL3AyWrc_8cuenv_ci8executor7metrics5testss_13test_hit_rate
FN:487,_RNvNtNtNtCsilPUL3AyWrc_8cuenv_ci8executor7metrics5testss_15test_record_hit
FN:551,_RNvNtNtNtCsilPUL3AyWrc_8cuenv_ci8executor7metrics5testss_16test_avg_latency
FN:495,_RNvNtNtNtCsilPUL3AyWrc_8cuenv_ci8executor7metrics5testss_16test_record_miss
FN:524,_RNvNtNtNtCsilPUL3AyWrc_8cuenv_ci8executor7metrics5testss_18test_hit_rate_zero
FN:530,_RNvNtNtNtCsilPUL3AyWrc_8cuenv_ci8executor7metrics5testss_19test_bytes_tracking
FN:539,_RNvNtNtNtCsilPUL3AyWrc_8cuenv_ci8executor7metrics5testss_22test_prometheus_format
FN:503,_RNvNtNtNtCsilPUL3AyWrc_8cuenv_ci8executor7metrics5testss_27test_record_restore_failure
FN:257,_RNCNvMNtNtCsilPUL3AyWrc_8cuenv_ci8executor7metricsNtB4_12CacheMetrics8hit_rate0B8_
FN:267,_RNCNvMNtNtCsilPUL3AyWrc_8cuenv_ci8executor7metricsNtB4_12CacheMetrics8hit_rates_0B8_
FNDA:0,_RNCNvMNtNtCskfEctF1MPvy_8cuenv_ci8executor7metricsNtB4_12CacheMetrics8hit_rate0B8_
FNDA:0,_RNCNvMNtNtCskfEctF1MPvy_8cuenv_ci8executor7metricsNtB4_12CacheMetrics8hit_rates_0B8_
FNDA:0,_RNCNvNtNtCskfEctF1MPvy_8cuenv_ci8executor7metrics14global_metrics0B7_
FNDA:0,_RNvMNtNtCskfEctF1MPvy_8cuenv_ci8executor7metricsNtB2_12CacheMetrics10record_hit
FNDA:0,_RNvMNtNtCskfEctF1MPvy_8cuenv_ci8executor7metricsNtB2_12CacheMetrics10task_count
FNDA:0,_RNvMNtNtCskfEctF1MPvy_8cuenv_ci8executor7metricsNtB2_12CacheMetrics11record_miss
FNDA:0,_RNvMNtNtCskfEctF1MPvy_8cuenv_ci8executor7metricsNtB2_12CacheMetrics13record_upload
FNDA:0,_RNvMNtNtCskfEctF1MPvy_8cuenv_ci8executor7metricsNtB2_12CacheMetrics13runtime_count
FNDA:0,_RNvMNtNtCskfEctF1MPvy_8cuenv_ci8executor7metricsNtB2_12CacheMetrics13to_prometheus
FNDA:0,_RNvMNtNtCskfEctF1MPvy_8cuenv_ci8executor7metricsNtB2_12CacheMetrics14bytes_uploaded
FNDA:0,_RNvMNtNtCskfEctF1MPvy_8cuenv_ci8executor7metricsNtB2_12CacheMetrics15record_download
FNDA:0,_RNvMNtNtCskfEctF1MPvy_8cuenv_ci8executor7metricsNtB2_12CacheMetrics16bytes_downloaded
FNDA:0,_RNvMNtNtCskfEctF1MPvy_8cuenv_ci8executor7metricsNtB2_12CacheMetrics16restore_failures
FNDA:0,_RNvMNtNtCskfEctF1MPvy_8cuenv_ci8executor7metricsNtB2_12CacheMetrics18total_task_time_ms
FNDA:0,_RNvMNtNtCskfEctF1MPvy_8cuenv_ci8executor7metricsNtB2_12CacheMetrics20avg_check_latency_us
FNDA:0,_RNvMNtNtCskfEctF1MPvy_8cuenv_ci8executor7metricsNtB2_12CacheMetrics20avg_task_duration_ms
FNDA:0,_RNvMNtNtCskfEctF1MPvy_8cuenv_ci8executor7metricsNtB2_12CacheMetrics20record_check_latency
FNDA:0,_RNvMNtNtCskfEctF1MPvy_8cuenv_ci8executor7metricsNtB2_12CacheMetrics20record_task_duration
FNDA:0,_RNvMNtNtCskfEctF1MPvy_8cuenv_ci8executor7metricsNtB2_12CacheMetrics21total_runtime_time_ms
FNDA:0,_RNvMNtNtCskfEctF1MPvy_8cuenv_ci8executor7metricsNtB2_12CacheMetrics22record_restore_failure
FNDA:0,_RNvMNtNtCskfEctF1MPvy_8cuenv_ci8executor7metricsNtB2_12CacheMetrics30record_runtime_materialization
FNDA:0,_RNvMNtNtCskfEctF1MPvy_8cuenv_ci8executor7metricsNtB2_12CacheMetrics3new
FNDA:0,_RNvMNtNtCskfEctF1MPvy_8cuenv_ci8executor7metricsNtB2_12CacheMetrics4hits
FNDA:0,_RNvMNtNtCskfEctF1MPvy_8cuenv_ci8executor7metricsNtB2_12CacheMetrics6misses
FNDA:0,_RNvMNtNtCskfEctF1MPvy_8cuenv_ci8executor7metricsNtB2_12CacheMetrics8hit_rate
FNDA:0,_RNvMs0_NtNtCskfEctF1MPvy_8cuenv_ci8executor7metricsNtB5_13ErrorCounters3get
FNDA:0,_RNvMs0_NtNtCskfEctF1MPvy_8cuenv_ci8executor7metricsNtB5_13ErrorCounters9increment
FNDA:0,_RNvMs_NtNtCskfEctF1MPvy_8cuenv_ci8executor7metricsNtB4_14PolicyCounters3get
FNDA:0,_RNvMs_NtNtCskfEctF1MPvy_8cuenv_ci8executor7metricsNtB4_14PolicyCounters9increment
FNDA:0,_RNvNtNtCskfEctF1MPvy_8cuenv_ci8executor7metrics14global_metrics
FNDA:0,_RNCNvNtNtCsilPUL3AyWrc_8cuenv_ci8executor7metrics14global_metrics0B7_
FNDA:0,_RNvMNtNtCsilPUL3AyWrc_8cuenv_ci8executor7metricsNtB2_12CacheMetrics10task_count
FNDA:0,_RNvMNtNtCsilPUL3AyWrc_8cuenv_ci8executor7metricsNtB2_12CacheMetrics13runtime_count
FNDA:0,_RNvMNtNtCsilPUL3AyWrc_8cuenv_ci8executor7metricsNtB2_12CacheMetrics18total_task_time_ms
FNDA:0,_RNvMNtNtCsilPUL3AyWrc_8cuenv_ci8executor7metricsNtB2_12CacheMetrics20avg_task_duration_ms
FNDA:0,_RNvMNtNtCsilPUL3AyWrc_8cuenv_ci8executor7metricsNtB2_12CacheMetrics20record_task_duration
FNDA:0,_RNvMNtNtCsilPUL3AyWrc_8cuenv_ci8executor7metricsNtB2_12CacheMetrics21total_runtime_time_ms
FNDA:0,_RNvMNtNtCsilPUL3AyWrc_8cuenv_ci8executor7metricsNtB2_12CacheMetrics30record_runtime_materialization
FNDA:0,_RNvNtNtCsilPUL3AyWrc_8cuenv_ci8executor7metrics14global_metrics
FNDA:5,_RNvMNtNtCsilPUL3AyWrc_8cuenv_ci8executor7metricsNtB2_12CacheMetrics10record_hit
FNDA:3,_RNvMNtNtCsilPUL3AyWrc_8cuenv_ci8executor7metricsNtB2_12CacheMetrics11record_miss
FNDA:1,_RNvMNtNtCsilPUL3AyWrc_8cuenv_ci8executor7metricsNtB2_12CacheMetrics13record_upload
FNDA:1,_RNvMNtNtCsilPUL3AyWrc_8cuenv_ci8executor7metricsNtB2_12CacheMetrics13to_prometheus
FNDA:1,_RNvMNtNtCsilPUL3AyWrc_8cuenv_ci8executor7metricsNtB2_12CacheMetrics14bytes_uploaded
FNDA:1,_RNvMNtNtCsilPUL3AyWrc_8cuenv_ci8executor7metricsNtB2_12CacheMetrics15record_download
FNDA:1,_RNvMNtNtCsilPUL3AyWrc_8cuenv_ci8executor7metricsNtB2_12CacheMetrics16bytes_downloaded
FNDA:2,_RNvMNtNtCsilPUL3AyWrc_8cuenv_ci8executor7metricsNtB2_12CacheMetrics16restore_failures
FNDA:1,_RNvMNtNtCsilPUL3AyWrc_8cuenv_ci8executor7metricsNtB2_12CacheMetrics20avg_check_latency_us
FNDA:3,_RNvMNtNtCsilPUL3AyWrc_8cuenv_ci8executor7metricsNtB2_12CacheMetrics20record_check_latency
FNDA:1,_RNvMNtNtCsilPUL3AyWrc_8cuenv_ci8executor7metricsNtB2_12CacheMetrics22record_restore_failure
FNDA:8,_RNvMNtNtCsilPUL3AyWrc_8cuenv_ci8executor7metricsNtB2_12CacheMetrics3new
FNDA:10,_RNvMNtNtCsilPUL3AyWrc_8cuenv_ci8executor7metricsNtB2_12CacheMetrics4hits
FNDA:10,_RNvMNtNtCsilPUL3AyWrc_8cuenv_ci8executor7metricsNtB2_12CacheMetrics6misses
FNDA:2,_RNvMNtNtCsilPUL3AyWrc_8cuenv_ci8executor7metricsNtB2_12CacheMetrics8hit_rate
FNDA:2,_RNvMs0_NtNtCsilPUL3AyWrc_8cuenv_ci8executor7metricsNtB5_13ErrorCounters3get
FNDA:1,_RNvMs0_NtNtCsilPUL3AyWrc_8cuenv_ci8executor7metricsNtB5_13ErrorCounters9increment
FNDA:20,_RNvMs_NtNtCsilPUL3AyWrc_8cuenv_ci8executor7metricsNtB4_14PolicyCounters3get
FNDA:8,_RNvMs_NtNtCsilPUL3AyWrc_8cuenv_ci8executor7metricsNtB4_14PolicyCounters9increment
FNDA:1,_RNvNtNtNtCsilPUL3AyWrc_8cuenv_ci8executor7metrics5testss_13test_hit_rate
FNDA:1,_RNvNtNtNtCsilPUL3AyWrc_8cuenv_ci8executor7metrics5testss_15test_record_hit
FNDA:1,_RNvNtNtNtCsilPUL3AyWrc_8cuenv_ci8executor7metrics5testss_16test_avg_latency
FNDA:1,_RNvNtNtNtCsilPUL3AyWrc_8cuenv_ci8executor7metrics5testss_16test_record_miss
FNDA:1,_RNvNtNtNtCsilPUL3AyWrc_8cuenv_ci8executor7metrics5testss_18test_hit_rate_zero
FNDA:1,_RNvNtNtNtCsilPUL3AyWrc_8cuenv_ci8executor7metrics5testss_19test_bytes_tracking
FNDA:1,_RNvNtNtNtCsilPUL3AyWrc_8cuenv_ci8executor7metrics5testss_22test_prometheus_format
FNDA:1,_RNvNtNtNtCsilPUL3AyWrc_8cuenv_ci8executor7metrics5testss_27test_record_restore_failure
FNDA:8,_RNCNvMNtNtCsilPUL3AyWrc_8cuenv_ci8executor7metricsNtB4_12CacheMetrics8hit_rate0B8_
FNDA:8,_RNCNvMNtNtCsilPUL3AyWrc_8cuenv_ci8executor7metricsNtB4_12CacheMetrics8hit_rates_0B8_
FNF:38
FNH:29
DA:78,8
DA:79,8
DA:80,8
DA:83,5
DA:84,5
DA:85,5
DA:89,0
DA:91,5
DA:94,3
DA:95,3
DA:96,3
DA:100,0
DA:102,3
DA:105,1
DA:106,1
DA:107,1
DA:111,0
DA:113,1
DA:116,1
DA:117,1
DA:118,1
DA:121,1
DA:122,1
DA:123,1
DA:126,3
DA:127,3
DA:128,3
DA:129,3
DA:130,3
DA:133,0
DA:134,0
DA:135,0
DA:136,0
DA:137,0
DA:138,0
DA:140,0
DA:141,0
DA:142,0
DA:144,0
DA:148,0
DA:150,0
DA:153,0
DA:154,0
DA:155,0
DA:156,0
DA:157,0
DA:158,0
DA:160,0
DA:161,0
DA:162,0
DA:164,0
DA:168,0
DA:170,0
DA:174,0
DA:175,0
DA:176,0
DA:180,0
DA:181,0
DA:182,0
DA:186,0
DA:187,0
DA:188,0
DA:189,0
DA:190,0
DA:191,0
DA:192,0
DA:196,0
DA:197,0
DA:198,0
DA:202,0
DA:203,0
DA:204,0
DA:208,10
DA:209,10
DA:210,10
DA:214,10
DA:215,10
DA:216,10
DA:220,2
DA:221,2
DA:222,2
DA:226,1
DA:227,1
DA:228,1
DA:232,1
DA:233,1
DA:234,1
DA:238,1
DA:239,1
DA:240,1
DA:241,0
DA:242,1
DA:243,1
DA:244,1
DA:249,2
DA:250,2
DA:251,2
DA:252,2
DA:253,2
DA:254,2
DA:255,2
DA:256,2
DA:257,8
DA:258,2
DA:260,2
DA:261,2
DA:262,2
DA:263,2
DA:264,2
DA:265,2
DA:266,2
DA:267,8
DA:268,2
DA:270,2
DA:271,2
DA:272,1
DA:273,1
DA:274,1
DA:275,2
DA:281,1
DA:284,1
DA:287,1
DA:288,1
DA:289,5
DA:290,4
DA:291,4
DA:292,3
DA:293,2
DA:294,1
DA:295,0
DA:297,4
DA:298,4
DA:299,4
DA:304,1
DA:305,1
DA:306,5
DA:307,4
DA:308,4
DA:309,3
DA:310,2
DA:311,1
DA:312,0
DA:314,4
DA:315,4
DA:316,4
DA:321,1
DA:322,1
DA:324,1
DA:325,6
DA:326,6
DA:327,6
DA:328,6
DA:329,6
DA:330,6
DA:331,6
DA:332,5
DA:333,5
DA:334,4
DA:335,3
DA:336,2
DA:337,1
DA:338,1
DA:339,1
DA:340,1
DA:341,0
DA:343,5
DA:344,5
DA:345,5
DA:350,1
DA:351,1
DA:353,1
DA:354,1
DA:355,1
DA:356,1
DA:357,1
DA:360,1
DA:361,1
DA:362,1
DA:363,1
DA:364,1
DA:365,1
DA:369,1
DA:370,1
DA:372,1
DA:373,1
DA:374,1
DA:375,1
DA:376,1
DA:377,1
DA:380,1
DA:381,1
DA:382,1
DA:383,1
DA:384,1
DA:385,1
DA:389,1
DA:390,1
DA:391,1
DA:392,1
DA:393,1
DA:394,1
DA:395,1
DA:398,1
DA:399,1
DA:401,1
DA:402,1
DA:403,1
DA:404,1
DA:405,1
DA:408,1
DA:409,1
DA:413,8
DA:414,8
DA:415,7
DA:416,1
DA:417,0
DA:418,0
DA:420,8
DA:422,20
DA:423,20
DA:424,6
DA:425,6
DA:426,4
DA:427,4
DA:429,20
DA:448,1
DA:449,1
DA:450,1
DA:451,0
DA:452,0
DA:454,0
DA:456,0
DA:458,1
DA:460,2
DA:461,2
DA:462,1
DA:463,1
DA:464,0
DA:465,0
DA:466,0
DA:468,2
DA:476,0
DA:477,0
DA:478,0
DA:479,0
DA:480,0
DA:487,1
DA:488,1
DA:489,1
DA:490,1
DA:491,1
DA:492,1
DA:495,1
DA:496,1
DA:497,1
DA:498,1
DA:499,1
DA:500,1
DA:503,1
DA:504,1
DA:505,1
DA:506,1
DA:507,1
DA:508,1
DA:511,1
DA:512,1
DA:513,1
DA:514,1
DA:515,1
DA:516,1
DA:518,1
DA:519,1
DA:520,1
DA:524,1
DA:525,1
DA:526,1
DA:527,1
DA:530,1
DA:531,1
DA:532,1
DA:533,1
DA:534,1
DA:535,1
DA:536,1
DA:539,1
DA:540,1
DA:541,1
DA:542,1
DA:544,1
DA:545,1
DA:546,1
DA:547,1
DA:548,1
DA:551,1
DA:552,1
DA:553,1
DA:554,1
DA:555,1
DA:556,1
DA:557,1
BRF:0
BRH:0
LF:303
LH:238
end_of_record
SF:/Users/rawkode/Code/src/github.com/cuenv/cuenv/crates/ci/src/executor/mod.rs
FN:172,_RNCNCNCNvMNtCskfEctF1MPvy_8cuenv_ci8executorNtB8_10CIExecutor16execute_pipeline000Ba_
FN:295,_RNCNCNvMNtCskfEctF1MPvy_8cuenv_ci8executorNtB6_10CIExecutor13execute_group00B8_
FN:305,_RNCNCNvMNtCskfEctF1MPvy_8cuenv_ci8executorNtB6_10CIExecutor13execute_group0s_0B8_
FN:242,_RNCNvMNtCskfEctF1MPvy_8cuenv_ci8executorNtB4_10CIExecutor13execute_group0B6_
FN:164,_RNCNvMNtCskfEctF1MPvy_8cuenv_ci8executorNtB4_10CIExecutor16execute_pipeline0B6_
FN:339,_RNCNvMNtCskfEctF1MPvy_8cuenv_ci8executorNtB4_10CIExecutor19execute_single_task0B6_
FN:409,_RNCNCNvMNtCskfEctF1MPvy_8cuenv_ci8executorNtB6_10CIExecutor20extract_fingerprints00B8_
FN:144,_RNCNvMNtCskfEctF1MPvy_8cuenv_ci8executorNtB4_10CIExecutor18cache_backend_name0B6_
FN:404,_RNCNvMNtCskfEctF1MPvy_8cuenv_ci8executorNtB4_10CIExecutor20extract_fingerprints0B6_
FN:236,_RNvMNtCskfEctF1MPvy_8cuenv_ci8executorNtB2_10CIExecutor13execute_group
FN:160,_RNvMNtCskfEctF1MPvy_8cuenv_ci8executorNtB2_10CIExecutor16execute_pipeline
FN:143,_RNvMNtCskfEctF1MPvy_8cuenv_ci8executorNtB2_10CIExecutor18cache_backend_name
FN:128,_RNvMNtCskfEctF1MPvy_8cuenv_ci8executorNtB2_10CIExecutor18with_cache_backend
FN:333,_RNvMNtCskfEctF1MPvy_8cuenv_ci8executorNtB2_10CIExecutor19execute_single_task
FN:391,_RNvMNtCskfEctF1MPvy_8cuenv_ci8executorNtB2_10CIExecutor19resolve_all_secrets
FN:399,_RNvMNtCskfEctF1MPvy_8cuenv_ci8executorNtB2_10CIExecutor20extract_fingerprints
FN:137,_RNvMNtCskfEctF1MPvy_8cuenv_ci8executorNtB2_10CIExecutor24has_custom_cache_backend
FN:116,_RNvMNtCskfEctF1MPvy_8cuenv_ci8executorNtB2_10CIExecutor3new
FN:172,_RNCNCNCNvMNtCsilPUL3AyWrc_8cuenv_ci8executorNtB8_10CIExecutor16execute_pipeline000Ba_
FN:295,_RNCNCNvMNtCsilPUL3AyWrc_8cuenv_ci8executorNtB6_10CIExecutor13execute_group00B8_
FN:305,_RNCNCNvMNtCsilPUL3AyWrc_8cuenv_ci8executorNtB6_10CIExecutor13execute_group0s_0B8_
FN:242,_RNCNvMNtCsilPUL3AyWrc_8cuenv_ci8executorNtB4_10CIExecutor13execute_group0B6_
FN:164,_RNCNvMNtCsilPUL3AyWrc_8cuenv_ci8executorNtB4_10CIExecutor16execute_pipeline0B6_
FN:339,_RNCNvMNtCsilPUL3AyWrc_8cuenv_ci8executorNtB4_10CIExecutor19execute_single_task0B6_
FN:236,_RNvMNtCsilPUL3AyWrc_8cuenv_ci8executorNtB2_10CIExecutor13execute_group
FN:160,_RNvMNtCsilPUL3AyWrc_8cuenv_ci8executorNtB2_10CIExecutor16execute_pipeline
FN:333,_RNvMNtCsilPUL3AyWrc_8cuenv_ci8executorNtB2_10CIExecutor19execute_single_task
FN:391,_RNvMNtCsilPUL3AyWrc_8cuenv_ci8executorNtB2_10CIExecutor19resolve_all_secrets
FN:424,_RNvNtNtCsilPUL3AyWrc_8cuenv_ci8executor5tests14make_simple_ir
FN:441,_RNvNtNtCsilPUL3AyWrc_8cuenv_ci8executor5tests9make_task
FN:600,_RNvNtNtCsilPUL3AyWrc_8cuenv_ci8executor5testss_19test_make_simple_ir
FN:534,_RNvNtNtCsilPUL3AyWrc_8cuenv_ci8executor5testss_20test_ci_executor_new
FN:711,_RNvNtNtCsilPUL3AyWrc_8cuenv_ci8executor5testss_24test_task_output_dry_run
FN:633,_RNvNtNtCsilPUL3AyWrc_8cuenv_ci8executor5testss_25test_extract_fingerprints
FN:519,_RNvNtNtCsilPUL3AyWrc_8cuenv_ci8executor5testss_27test_pipeline_result_failed
FN:506,_RNvNtNtCsilPUL3AyWrc_8cuenv_ci8executor5testss_27test_pipeline_result_fields
FN:718,_RNvNtNtCsilPUL3AyWrc_8cuenv_ci8executor5testss_27test_task_output_from_cache
FN:571,_RNvNtNtCsilPUL3AyWrc_8cuenv_ci8executor5testss_28test_executor_config_builder
FN:581,_RNvNtNtCsilPUL3AyWrc_8cuenv_ci8executor5testss_28test_executor_config_default
FN:621,_RNvNtNtCsilPUL3AyWrc_8cuenv_ci8executor5testss_30test_make_task_no_dependencies
FN:659,_RNvNtNtCsilPUL3AyWrc_8cuenv_ci8executor5testss_31test_extract_fingerprints_empty
FN:611,_RNvNtNtCsilPUL3AyWrc_8cuenv_ci8executor5testss_32test_make_task_with_dependencies
FN:543,_RNvNtNtCsilPUL3AyWrc_8cuenv_ci8executor5testss_35test_ci_executor_with_cache_backend
FN:476,_RNvNtNtCsilPUL3AyWrc_8cuenv_ci8executor5testss_38test_executor_error_task_panic_display
FN:468,_RNvNtNtCsilPUL3AyWrc_8cuenv_ci8executor5testss_39test_executor_error_compilation_display
FN:588,_RNvNtNtCsilPUL3AyWrc_8cuenv_ci8executor5testss_40test_executor_config_with_capture_output
FN:495,_RNvNtNtCsilPUL3AyWrc_8cuenv_ci8executor5testss_40test_executor_error_no_ci_config_display
FN:666,_RNvNtNtCsilPUL3AyWrc_8cuenv_ci8executor5testss_40test_extract_fingerprints_multiple_tasks
FN:561,_RNvNtNtCsilPUL3AyWrc_8cuenv_ci8executor5testss_43test_ci_executor_cache_backend_name_default
FN:484,_RNvNtNtCsilPUL3AyWrc_8cuenv_ci8executor5testss_46test_executor_error_pipeline_not_found_display
FN:555,_RNvNtNtCsilPUL3AyWrc_8cuenv_ci8executor5testss_47test_ci_executor_has_custom_cache_backend_false
FN:453,_RNCNvNtNtCsilPUL3AyWrc_8cuenv_ci8executor5tests9make_task0B7_
FN:634,_RNCNvNtNtCsilPUL3AyWrc_8cuenv_ci8executor5testss_25test_extract_fingerprints0B7_
FN:672,_RNCNvNtNtCsilPUL3AyWrc_8cuenv_ci8executor5testss_40test_extract_fingerprints_multiple_tasks0B7_
FN:409,_RNCNCNvMNtCsilPUL3AyWrc_8cuenv_ci8executorNtB6_10CIExecutor20extract_fingerprints00B8_
FN:144,_RNCNvMNtCsilPUL3AyWrc_8cuenv_ci8executorNtB4_10CIExecutor18cache_backend_name0B6_
FN:404,_RNCNvMNtCsilPUL3AyWrc_8cuenv_ci8executorNtB4_10CIExecutor20extract_fingerprints0B6_
FN:143,_RNvMNtCsilPUL3AyWrc_8cuenv_ci8executorNtB2_10CIExecutor18cache_backend_name
FN:128,_RNvMNtCsilPUL3AyWrc_8cuenv_ci8executorNtB2_10CIExecutor18with_cache_backend
FN:399,_RNvMNtCsilPUL3AyWrc_8cuenv_ci8executorNtB2_10CIExecutor20extract_fingerprints
FN:137,_RNvMNtCsilPUL3AyWrc_8cuenv_ci8executorNtB2_10CIExecutor24has_custom_cache_backend
FN:116,_RNvMNtCsilPUL3AyWrc_8cuenv_ci8executorNtB2_10CIExecutor3new
FNDA:0,_RNCNCNCNvMNtCskfEctF1MPvy_8cuenv_ci8executorNtB8_10CIExecutor16execute_pipeline000Ba_
FNDA:0,_RNCNCNvMNtCskfEctF1MPvy_8cuenv_ci8executorNtB6_10CIExecutor13execute_group00B8_
FNDA:0,_RNCNCNvMNtCskfEctF1MPvy_8cuenv_ci8executorNtB6_10CIExecutor13execute_group0s_0B8_
FNDA:0,_RNCNvMNtCskfEctF1MPvy_8cuenv_ci8executorNtB4_10CIExecutor13execute_group0B6_
FNDA:0,_RNCNvMNtCskfEctF1MPvy_8cuenv_ci8executorNtB4_10CIExecutor16execute_pipeline0B6_
FNDA:0,_RNCNvMNtCskfEctF1MPvy_8cuenv_ci8executorNtB4_10CIExecutor19execute_single_task0B6_
FNDA:0,_RNCNCNvMNtCskfEctF1MPvy_8cuenv_ci8executorNtB6_10CIExecutor20extract_fingerprints00B8_
FNDA:0,_RNCNvMNtCskfEctF1MPvy_8cuenv_ci8executorNtB4_10CIExecutor18cache_backend_name0B6_
FNDA:0,_RNCNvMNtCskfEctF1MPvy_8cuenv_ci8executorNtB4_10CIExecutor20extract_fingerprints0B6_
FNDA:0,_RNvMNtCskfEctF1MPvy_8cuenv_ci8executorNtB2_10CIExecutor13execute_group
FNDA:0,_RNvMNtCskfEctF1MPvy_8cuenv_ci8executorNtB2_10CIExecutor16execute_pipeline
FNDA:0,_RNvMNtCskfEctF1MPvy_8cuenv_ci8executorNtB2_10CIExecutor18cache_backend_name
FNDA:0,_RNvMNtCskfEctF1MPvy_8cuenv_ci8executorNtB2_10CIExecutor18with_cache_backend
FNDA:0,_RNvMNtCskfEctF1MPvy_8cuenv_ci8executorNtB2_10CIExecutor19execute_single_task
FNDA:0,_RNvMNtCskfEctF1MPvy_8cuenv_ci8executorNtB2_10CIExecutor19resolve_all_secrets
FNDA:0,_RNvMNtCskfEctF1MPvy_8cuenv_ci8executorNtB2_10CIExecutor20extract_fingerprints
FNDA:0,_RNvMNtCskfEctF1MPvy_8cuenv_ci8executorNtB2_10CIExecutor24has_custom_cache_backend
FNDA:0,_RNvMNtCskfEctF1MPvy_8cuenv_ci8executorNtB2_10CIExecutor3new
FNDA:0,_RNCNCNCNvMNtCsilPUL3AyWrc_8cuenv_ci8executorNtB8_10CIExecutor16execute_pipeline000Ba_
FNDA:0,_RNCNCNvMNtCsilPUL3AyWrc_8cuenv_ci8executorNtB6_10CIExecutor13execute_group00B8_
FNDA:0,_RNCNCNvMNtCsilPUL3AyWrc_8cuenv_ci8executorNtB6_10CIExecutor13execute_group0s_0B8_
FNDA:0,_RNCNvMNtCsilPUL3AyWrc_8cuenv_ci8executorNtB4_10CIExecutor13execute_group0B6_
FNDA:0,_RNCNvMNtCsilPUL3AyWrc_8cuenv_ci8executorNtB4_10CIExecutor16execute_pipeline0B6_
FNDA:0,_RNCNvMNtCsilPUL3AyWrc_8cuenv_ci8executorNtB4_10CIExecutor19execute_single_task0B6_
FNDA:0,_RNvMNtCsilPUL3AyWrc_8cuenv_ci8executorNtB2_10CIExecutor13execute_group
FNDA:0,_RNvMNtCsilPUL3AyWrc_8cuenv_ci8executorNtB2_10CIExecutor16execute_pipeline
FNDA:0,_RNvMNtCsilPUL3AyWrc_8cuenv_ci8executorNtB2_10CIExecutor19execute_single_task
FNDA:0,_RNvMNtCsilPUL3AyWrc_8cuenv_ci8executorNtB2_10CIExecutor19resolve_all_secrets
FNDA:1,_RNvNtNtCsilPUL3AyWrc_8cuenv_ci8executor5tests14make_simple_ir
FNDA:3,_RNvNtNtCsilPUL3AyWrc_8cuenv_ci8executor5tests9make_task
FNDA:1,_RNvNtNtCsilPUL3AyWrc_8cuenv_ci8executor5testss_19test_make_simple_ir
FNDA:1,_RNvNtNtCsilPUL3AyWrc_8cuenv_ci8executor5testss_20test_ci_executor_new
FNDA:1,_RNvNtNtCsilPUL3AyWrc_8cuenv_ci8executor5testss_24test_task_output_dry_run
FNDA:1,_RNvNtNtCsilPUL3AyWrc_8cuenv_ci8executor5testss_25test_extract_fingerprints
FNDA:1,_RNvNtNtCsilPUL3AyWrc_8cuenv_ci8executor5testss_27test_pipeline_result_failed
FNDA:1,_RNvNtNtCsilPUL3AyWrc_8cuenv_ci8executor5testss_27test_pipeline_result_fields
FNDA:1,_RNvNtNtCsilPUL3AyWrc_8cuenv_ci8executor5testss_27test_task_output_from_cache
FNDA:1,_RNvNtNtCsilPUL3AyWrc_8cuenv_ci8executor5testss_28test_executor_config_builder
FNDA:1,_RNvNtNtCsilPUL3AyWrc_8cuenv_ci8executor5testss_28test_executor_config_default
FNDA:1,_RNvNtNtCsilPUL3AyWrc_8cuenv_ci8executor5testss_30test_make_task_no_dependencies
FNDA:1,_RNvNtNtCsilPUL3AyWrc_8cuenv_ci8executor5testss_31test_extract_fingerprints_empty
FNDA:1,_RNvNtNtCsilPUL3AyWrc_8cuenv_ci8executor5testss_32test_make_task_with_dependencies
FNDA:1,_RNvNtNtCsilPUL3AyWrc_8cuenv_ci8executor5testss_35test_ci_executor_with_cache_backend
FNDA:1,_RNvNtNtCsilPUL3AyWrc_8cuenv_ci8executor5testss_38test_executor_error_task_panic_display
FNDA:1,_RNvNtNtCsilPUL3AyWrc_8cuenv_ci8executor5testss_39test_executor_error_compilation_display
FNDA:1,_RNvNtNtCsilPUL3AyWrc_8cuenv_ci8executor5testss_40test_executor_config_with_capture_output
FNDA:1,_RNvNtNtCsilPUL3AyWrc_8cuenv_ci8executor5testss_40test_executor_error_no_ci_config_display
FNDA:1,_RNvNtNtCsilPUL3AyWrc_8cuenv_ci8executor5testss_40test_extract_fingerprints_multiple_tasks
FNDA:1,_RNvNtNtCsilPUL3AyWrc_8cuenv_ci8executor5testss_43test_ci_executor_cache_backend_name_default
FNDA:1,_RNvNtNtCsilPUL3AyWrc_8cuenv_ci8executor5testss_46test_executor_error_pipeline_not_found_display
FNDA:1,_RNvNtNtCsilPUL3AyWrc_8cuenv_ci8executor5testss_47test_ci_executor_has_custom_cache_backend_false
FNDA:2,_RNCNvNtNtCsilPUL3AyWrc_8cuenv_ci8executor5tests9make_task0B7_
FNDA:1,_RNCNvNtNtCsilPUL3AyWrc_8cuenv_ci8executor5testss_25test_extract_fingerprints0B7_
FNDA:1,_RNCNvNtNtCsilPUL3AyWrc_8cuenv_ci8executor5testss_40test_extract_fingerprints_multiple_tasks0B7_
FNDA:3,_RNCNCNvMNtCsilPUL3AyWrc_8cuenv_ci8executorNtB6_10CIExecutor20extract_fingerprints00B8_
FNDA:1,_RNCNvMNtCsilPUL3AyWrc_8cuenv_ci8executorNtB4_10CIExecutor18cache_backend_name0B6_
FNDA:3,_RNCNvMNtCsilPUL3AyWrc_8cuenv_ci8executorNtB4_10CIExecutor20extract_fingerprints0B6_
FNDA:3,_RNvMNtCsilPUL3AyWrc_8cuenv_ci8executorNtB2_10CIExecutor18cache_backend_name
FNDA:1,_RNvMNtCsilPUL3AyWrc_8cuenv_ci8executorNtB2_10CIExecutor18with_cache_backend
FNDA:3,_RNvMNtCsilPUL3AyWrc_8cuenv_ci8executorNtB2_10CIExecutor20extract_fingerprints
FNDA:3,_RNvMNtCsilPUL3AyWrc_8cuenv_ci8executorNtB2_10CIExecutor24has_custom_cache_backend
FNDA:4,_RNvMNtCsilPUL3AyWrc_8cuenv_ci8executorNtB2_10CIExecutor3new
FNF:44
FNH:34
DA:116,4
DA:117,4
DA:118,4
DA:119,4
DA:120,4
DA:121,4
DA:128,1
DA:129,1
DA:130,1
DA:131,1
DA:132,1
DA:133,1
DA:137,3
DA:138,3
DA:139,3
DA:143,3
DA:144,3
DA:145,3
DA:160,0
DA:161,0
DA:162,0
DA:163,0
DA:164,0
DA:172,0
DA:233,0
DA:236,0
DA:237,0
DA:238,0
DA:239,0
DA:240,0
DA:241,0
DA:242,0
DA:243,0
DA:245,0
DA:247,0
DA:248,0
DA:249,0
DA:250,0
DA:251,0
DA:255,0
DA:257,0
DA:259,0
DA:260,0
DA:261,0
DA:262,0
DA:263,0
DA:266,0
DA:267,0
DA:268,0
DA:269,0
DA:270,0
DA:272,0
DA:273,0
DA:274,0
DA:275,0
DA:276,0
DA:279,0
DA:280,0
DA:281,0
DA:282,0
DA:283,0
DA:284,0
DA:287,0
DA:288,0
DA:289,0
DA:290,0
DA:291,0
DA:292,0
DA:295,0
DA:296,0
DA:297,0
DA:298,0
DA:299,0
DA:303,0
DA:304,0
DA:305,0
DA:307,0
DA:310,0
DA:311,0
DA:312,0
DA:313,0
DA:314,0
DA:315,0
DA:316,0
DA:317,0
DA:318,0
DA:319,0
DA:320,0
DA:321,0
DA:322,0
DA:323,0
DA:325,0
DA:329,0
DA:330,0
DA:333,0
DA:334,0
DA:335,0
DA:336,0
DA:337,0
DA:338,0
DA:339,0
DA:341,0
DA:342,0
DA:343,0
DA:344,0
DA:345,0
DA:348,0
DA:349,0
DA:350,0
DA:351,0
DA:353,0
DA:354,0
DA:355,0
DA:356,0
DA:359,0
DA:360,0
DA:361,0
DA:362,0
DA:363,0
DA:364,0
DA:367,0
DA:368,0
DA:369,0
DA:372,0
DA:373,0
DA:374,0
DA:375,0
DA:376,0
DA:377,0
DA:378,0
DA:379,0
DA:380,0
DA:381,0
DA:382,0
DA:383,0
DA:384,0
DA:385,0
DA:387,0
DA:388,0
DA:391,0
DA:392,0
DA:393,0
DA:394,0
DA:395,0
DA:396,0
DA:399,3
DA:400,3
DA:401,3
DA:402,3
DA:403,3
DA:404,3
DA:406,3
DA:407,3
DA:408,3
DA:409,3
DA:410,3
DA:411,3
DA:412,3
DA:413,3
DA:414,3
DA:424,1
DA:425,1
DA:426,1
DA:427,1
DA:428,1
DA:429,1
DA:430,1
DA:431,1
DA:432,1
DA:433,1
DA:434,1
DA:435,1
DA:436,1
DA:437,1
DA:438,1
DA:439,1
DA:441,3
DA:443,3
DA:444,3
DA:445,3
DA:447,3
DA:448,3
DA:449,3
DA:450,3
DA:451,3
DA:452,3
DA:453,3
DA:454,3
DA:457,3
DA:458,3
DA:459,3
DA:461,3
DA:468,1
DA:469,1
DA:470,1
DA:471,1
DA:472,1
DA:473,1
DA:476,1
DA:477,1
DA:478,1
DA:479,1
DA:480,1
DA:481,1
DA:484,1
DA:485,1
DA:486,1
DA:487,1
DA:488,1
DA:489,1
DA:490,1
DA:491,1
DA:492,1
DA:495,1
DA:496,1
DA:497,1
DA:498,1
DA:499,1
DA:506,1
DA:507,1
DA:508,1
DA:509,1
DA:510,1
DA:511,1
DA:513,1
DA:514,1
DA:515,1
DA:516,1
DA:519,1
DA:520,1
DA:521,1
DA:522,1
DA:523,1
DA:524,1
DA:526,1
DA:527,1
DA:534,1
DA:535,1
DA:536,1
DA:538,1
DA:539,1
DA:540,1
DA:543,1
DA:544,1
DA:545,1
DA:546,1
DA:547,1
DA:549,1
DA:551,1
DA:552,1
DA:555,1
DA:556,1
DA:557,1
DA:558,1
DA:561,1
DA:562,1
DA:563,1
DA:564,1
DA:571,1
DA:572,1
DA:573,1
DA:574,1
DA:576,1
DA:577,1
DA:578,1
DA:581,1
DA:582,1
DA:583,1
DA:584,1
DA:585,1
DA:588,1
DA:589,1
DA:590,1
DA:592,1
DA:593,1
DA:600,1
DA:601,1
DA:602,1
DA:604,1
DA:605,1
DA:606,1
DA:607,1
DA:608,1
DA:611,1
DA:612,1
DA:614,1
DA:615,1
DA:616,1
DA:617,1
DA:618,1
DA:621,1
DA:622,1
DA:624,1
DA:625,1
DA:626,1
DA:633,1
DA:634,1
DA:635,1
DA:637,1
DA:639,1
DA:640,1
DA:641,1
DA:642,1
DA:643,1
DA:644,1
DA:645,1
DA:647,1
DA:648,1
DA:650,1
DA:651,1
DA:653,1
DA:654,1
DA:655,1
DA:656,1
DA:659,1
DA:660,1
DA:661,1
DA:662,1
DA:663,1
DA:666,1
DA:667,1
DA:668,1
DA:669,1
DA:670,1
DA:671,1
DA:672,1
DA:673,1
DA:675,1
DA:676,1
DA:677,1
DA:678,1
DA:679,1
DA:680,1
DA:681,1
DA:682,1
DA:683,1
DA:684,1
DA:686,1
DA:687,1
DA:688,1
DA:689,1
DA:690,1
DA:691,1
DA:692,1
DA:693,1
DA:694,1
DA:695,1
DA:697,1
DA:699,1
DA:700,1
DA:701,1
DA:702,1
DA:704,1
DA:711,1
DA:712,1
DA:713,1
DA:714,1
DA:715,1
DA:718,1
DA:719,1
DA:720,1
DA:721,1
DA:722,1
DA:723,1
BRF:0
BRH:0
LF:374
LH:242
end_of_record
SF:/Users/rawkode/Code/src/github.com/cuenv/cuenv/crates/ci/src/executor/orchestrator.rs
FN:413,_RNCNCNCNvNtNtCskfEctF1MPvy_8cuenv_ci8executor12orchestrator27execute_single_task_by_name000Bb_
FN:438,_RNCNCNCNvNtNtCskfEctF1MPvy_8cuenv_ci8executor12orchestrator27execute_single_task_by_name0s0_00Bb_
FN:226,_RNCNCNvNtNtCskfEctF1MPvy_8cuenv_ci8executor12orchestrator24execute_project_pipeline00B9_
FN:300,_RNCNCNvNtNtCskfEctF1MPvy_8cuenv_ci8executor12orchestrator24execute_project_pipeline0s0_0B9_
FN:227,_RNCNCNvNtNtCskfEctF1MPvy_8cuenv_ci8executor12orchestrator24execute_project_pipeline0s_0B9_
FN:413,_RNCNCNvNtNtCskfEctF1MPvy_8cuenv_ci8executor12orchestrator27execute_single_task_by_name00B9_
FN:438,_RNCNCNvNtNtCskfEctF1MPvy_8cuenv_ci8executor12orchestrator27execute_single_task_by_name0s0_0B9_
FN:421,_RNCNCNvNtNtCskfEctF1MPvy_8cuenv_ci8executor12orchestrator27execute_single_task_by_name0s_0B9_
FN:82,_RNCNCNvNtNtCskfEctF1MPvy_8cuenv_ci8executor12orchestrator6run_ci00B9_
FN:93,_RNCNCNvNtNtCskfEctF1MPvy_8cuenv_ci8executor12orchestrator6run_ci0s0_0B9_
FN:104,_RNCNCNvNtNtCskfEctF1MPvy_8cuenv_ci8executor12orchestrator6run_ci0s1_0B9_
FN:105,_RNCNCNvNtNtCskfEctF1MPvy_8cuenv_ci8executor12orchestrator6run_ci0s2_0B9_
FN:118,_RNCNCNvNtNtCskfEctF1MPvy_8cuenv_ci8executor12orchestrator6run_ci0s3_0B9_
FN:161,_RNCNCNvNtNtCskfEctF1MPvy_8cuenv_ci8executor12orchestrator6run_ci0s4_0B9_
FN:92,_RNCNCNvNtNtCskfEctF1MPvy_8cuenv_ci8executor12orchestrator6run_ci0s_0B9_
FN:349,_RNCNvNtNtCskfEctF1MPvy_8cuenv_ci8executor12orchestrator15notify_provider0B7_
FN:188,_RNCNvNtNtCskfEctF1MPvy_8cuenv_ci8executor12orchestrator24execute_project_pipeline0B7_
FN:385,_RNCNvNtNtCskfEctF1MPvy_8cuenv_ci8executor12orchestrator27execute_single_task_by_name0B7_
FN:46,_RNCNvNtNtCskfEctF1MPvy_8cuenv_ci8executor12orchestrator6run_ci0B7_
FN:370,_RNvNtNtCskfEctF1MPvy_8cuenv_ci8executor12orchestrator10is_fork_pr
FN:349,_RNvNtNtCskfEctF1MPvy_8cuenv_ci8executor12orchestrator15notify_provider
FN:318,_RNvNtNtCskfEctF1MPvy_8cuenv_ci8executor12orchestrator21write_pipeline_report
FN:179,_RNvNtNtCskfEctF1MPvy_8cuenv_ci8executor12orchestrator24execute_project_pipeline
FN:380,_RNvNtNtCskfEctF1MPvy_8cuenv_ci8executor12orchestrator27execute_single_task_by_name
FN:42,_RNvNtNtCskfEctF1MPvy_8cuenv_ci8executor12orchestrator6run_ci
FN:42,_RNvNtNtCsilPUL3AyWrc_8cuenv_ci8executor12orchestrator6run_ci
FN:370,_RNvNtNtCsilPUL3AyWrc_8cuenv_ci8executor12orchestrator10is_fork_pr
FN:349,_RNvNtNtCsilPUL3AyWrc_8cuenv_ci8executor12orchestrator15notify_provider
FN:318,_RNvNtNtCsilPUL3AyWrc_8cuenv_ci8executor12orchestrator21write_pipeline_report
FN:179,_RNvNtNtCsilPUL3AyWrc_8cuenv_ci8executor12orchestrator24execute_project_pipeline
FN:380,_RNvNtNtCsilPUL3AyWrc_8cuenv_ci8executor12orchestrator27execute_single_task_by_name
FN:413,_RNCNCNCNvNtNtCsilPUL3AyWrc_8cuenv_ci8executor12orchestrator27execute_single_task_by_name000Bb_
FN:438,_RNCNCNCNvNtNtCsilPUL3AyWrc_8cuenv_ci8executor12orchestrator27execute_single_task_by_name0s0_00Bb_
FN:226,_RNCNCNvNtNtCsilPUL3AyWrc_8cuenv_ci8executor12orchestrator24execute_project_pipeline00B9_
FN:300,_RNCNCNvNtNtCsilPUL3AyWrc_8cuenv_ci8executor12orchestrator24execute_project_pipeline0s0_0B9_
FN:227,_RNCNCNvNtNtCsilPUL3AyWrc_8cuenv_ci8executor12orchestrator24execute_project_pipeline0s_0B9_
FN:413,_RNCNCNvNtNtCsilPUL3AyWrc_8cuenv_ci8executor12orchestrator27execute_single_task_by_name00B9_
FN:438,_RNCNCNvNtNtCsilPUL3AyWrc_8cuenv_ci8executor12orchestrator27execute_single_task_by_name0s0_0B9_
FN:421,_RNCNCNvNtNtCsilPUL3AyWrc_8cuenv_ci8executor12orchestrator27execute_single_task_by_name0s_0B9_
FN:82,_RNCNCNvNtNtCsilPUL3AyWrc_8cuenv_ci8executor12orchestrator6run_ci00B9_
FN:93,_RNCNCNvNtNtCsilPUL3AyWrc_8cuenv_ci8executor12orchestrator6run_ci0s0_0B9_
FN:104,_RNCNCNvNtNtCsilPUL3AyWrc_8cuenv_ci8executor12orchestrator6run_ci0s1_0B9_
FN:105,_RNCNCNvNtNtCsilPUL3AyWrc_8cuenv_ci8executor12orchestrator6run_ci0s2_0B9_
FN:118,_RNCNCNvNtNtCsilPUL3AyWrc_8cuenv_ci8executor12orchestrator6run_ci0s3_0B9_
FN:161,_RNCNCNvNtNtCsilPUL3AyWrc_8cuenv_ci8executor12orchestrator6run_ci0s4_0B9_
FN:92,_RNCNCNvNtNtCsilPUL3AyWrc_8cuenv_ci8executor12orchestrator6run_ci0s_0B9_
FN:349,_RNCNvNtNtCsilPUL3AyWrc_8cuenv_ci8executor12orchestrator15notify_provider0B7_
FN:188,_RNCNvNtNtCsilPUL3AyWrc_8cuenv_ci8executor12orchestrator24execute_project_pipeline0B7_
FN:385,_RNCNvNtNtCsilPUL3AyWrc_8cuenv_ci8executor12orchestrator27execute_single_task_by_name0B7_
FN:46,_RNCNvNtNtCsilPUL3AyWrc_8cuenv_ci8executor12orchestrator6run_ci0B7_
FNDA:0,_RNCNCNCNvNtNtCskfEctF1MPvy_8cuenv_ci8executor12orchestrator27execute_single_task_by_name000Bb_
FNDA:0,_RNCNCNCNvNtNtCskfEctF1MPvy_8cuenv_ci8executor12orchestrator27execute_single_task_by_name0s0_00Bb_
FNDA:0,_RNCNCNvNtNtCskfEctF1MPvy_8cuenv_ci8executor12orchestrator24execute_project_pipeline00B9_
FNDA:0,_RNCNCNvNtNtCskfEctF1MPvy_8cuenv_ci8executor12orchestrator24execute_project_pipeline0s0_0B9_
FNDA:0,_RNCNCNvNtNtCskfEctF1MPvy_8cuenv_ci8executor12orchestrator24execute_project_pipeline0s_0B9_
FNDA:0,_RNCNCNvNtNtCskfEctF1MPvy_8cuenv_ci8executor12orchestrator27execute_single_task_by_name00B9_
FNDA:0,_RNCNCNvNtNtCskfEctF1MPvy_8cuenv_ci8executor12orchestrator27execute_single_task_by_name0s0_0B9_
FNDA:0,_RNCNCNvNtNtCskfEctF1MPvy_8cuenv_ci8executor12orchestrator27execute_single_task_by_name0s_0B9_
FNDA:0,_RNCNCNvNtNtCskfEctF1MPvy_8cuenv_ci8executor12orchestrator6run_ci00B9_
FNDA:0,_RNCNCNvNtNtCskfEctF1MPvy_8cuenv_ci8executor12orchestrator6run_ci0s0_0B9_
FNDA:0,_RNCNCNvNtNtCskfEctF1MPvy_8cuenv_ci8executor12orchestrator6run_ci0s1_0B9_
FNDA:0,_RNCNCNvNtNtCskfEctF1MPvy_8cuenv_ci8executor12orchestrator6run_ci0s2_0B9_
FNDA:0,_RNCNCNvNtNtCskfEctF1MPvy_8cuenv_ci8executor12orchestrator6run_ci0s3_0B9_
FNDA:0,_RNCNCNvNtNtCskfEctF1MPvy_8cuenv_ci8executor12orchestrator6run_ci0s4_0B9_
FNDA:0,_RNCNCNvNtNtCskfEctF1MPvy_8cuenv_ci8executor12orchestrator6run_ci0s_0B9_
FNDA:0,_RNCNvNtNtCskfEctF1MPvy_8cuenv_ci8executor12orchestrator15notify_provider0B7_
FNDA:0,_RNCNvNtNtCskfEctF1MPvy_8cuenv_ci8executor12orchestrator24execute_project_pipeline0B7_
FNDA:0,_RNCNvNtNtCskfEctF1MPvy_8cuenv_ci8executor12orchestrator27execute_single_task_by_name0B7_
FNDA:0,_RNCNvNtNtCskfEctF1MPvy_8cuenv_ci8executor12orchestrator6run_ci0B7_
FNDA:0,_RNvNtNtCskfEctF1MPvy_8cuenv_ci8executor12orchestrator10is_fork_pr
FNDA:0,_RNvNtNtCskfEctF1MPvy_8cuenv_ci8executor12orchestrator15notify_provider
FNDA:0,_RNvNtNtCskfEctF1MPvy_8cuenv_ci8executor12orchestrator21write_pipeline_report
FNDA:0,_RNvNtNtCskfEctF1MPvy_8cuenv_ci8executor12orchestrator24execute_project_pipeline
FNDA:0,_RNvNtNtCskfEctF1MPvy_8cuenv_ci8executor12orchestrator27execute_single_task_by_name
FNDA:0,_RNvNtNtCskfEctF1MPvy_8cuenv_ci8executor12orchestrator6run_ci
FNDA:0,_RNvNtNtCsilPUL3AyWrc_8cuenv_ci8executor12orchestrator6run_ci
FNDA:0,_RNvNtNtCsilPUL3AyWrc_8cuenv_ci8executor12orchestrator10is_fork_pr
FNDA:0,_RNvNtNtCsilPUL3AyWrc_8cuenv_ci8executor12orchestrator15notify_provider
FNDA:0,_RNvNtNtCsilPUL3AyWrc_8cuenv_ci8executor12orchestrator21write_pipeline_report
FNDA:0,_RNvNtNtCsilPUL3AyWrc_8cuenv_ci8executor12orchestrator24execute_project_pipeline
FNDA:0,_RNvNtNtCsilPUL3AyWrc_8cuenv_ci8executor12orchestrator27execute_single_task_by_name
FNDA:0,_RNCNCNCNvNtNtCsilPUL3AyWrc_8cuenv_ci8executor12orchestrator27execute_single_task_by_name000Bb_
FNDA:0,_RNCNCNCNvNtNtCsilPUL3AyWrc_8cuenv_ci8executor12orchestrator27execute_single_task_by_name0s0_00Bb_
FNDA:0,_RNCNCNvNtNtCsilPUL3AyWrc_8cuenv_ci8executor12orchestrator24execute_project_pipeline00B9_
FNDA:0,_RNCNCNvNtNtCsilPUL3AyWrc_8cuenv_ci8executor12orchestrator24execute_project_pipeline0s0_0B9_
FNDA:0,_RNCNCNvNtNtCsilPUL3AyWrc_8cuenv_ci8executor12orchestrator24execute_project_pipeline0s_0B9_
FNDA:0,_RNCNCNvNtNtCsilPUL3AyWrc_8cuenv_ci8executor12orchestrator27execute_single_task_by_name00B9_
FNDA:0,_RNCNCNvNtNtCsilPUL3AyWrc_8cuenv_ci8executor12orchestrator27execute_single_task_by_name0s0_0B9_
FNDA:0,_RNCNCNvNtNtCsilPUL3AyWrc_8cuenv_ci8executor12orchestrator27execute_single_task_by_name0s_0B9_
FNDA:0,_RNCNCNvNtNtCsilPUL3AyWrc_8cuenv_ci8executor12orchestrator6run_ci00B9_
FNDA:0,_RNCNCNvNtNtCsilPUL3AyWrc_8cuenv_ci8executor12orchestrator6run_ci0s0_0B9_
FNDA:0,_RNCNCNvNtNtCsilPUL3AyWrc_8cuenv_ci8executor12orchestrator6run_ci0s1_0B9_
FNDA:0,_RNCNCNvNtNtCsilPUL3AyWrc_8cuenv_ci8executor12orchestrator6run_ci0s2_0B9_
FNDA:0,_RNCNCNvNtNtCsilPUL3AyWrc_8cuenv_ci8executor12orchestrator6run_ci0s3_0B9_
FNDA:0,_RNCNCNvNtNtCsilPUL3AyWrc_8cuenv_ci8executor12orchestrator6run_ci0s4_0B9_
FNDA:0,_RNCNCNvNtNtCsilPUL3AyWrc_8cuenv_ci8executor12orchestrator6run_ci0s_0B9_
FNDA:0,_RNCNvNtNtCsilPUL3AyWrc_8cuenv_ci8executor12orchestrator15notify_provider0B7_
FNDA:0,_RNCNvNtNtCsilPUL3AyWrc_8cuenv_ci8executor12orchestrator24execute_project_pipeline0B7_
FNDA:0,_RNCNvNtNtCsilPUL3AyWrc_8cuenv_ci8executor12orchestrator27execute_single_task_by_name0B7_
FNDA:0,_RNCNvNtNtCsilPUL3AyWrc_8cuenv_ci8executor12orchestrator6run_ci0B7_
FNF:25
FNH:0
DA:42,0
DA:43,0
DA:44,0
DA:45,0
DA:46,0
DA:47,0
DA:48,0
DA:51,0
DA:52,0
DA:55,0
DA:56,0
DA:57,0
DA:58,0
DA:59,0
DA:60,0
DA:61,0
DA:64,0
DA:65,0
DA:66,0
DA:67,0
DA:68,0
DA:69,0
DA:73,0
DA:76,0
DA:77,0
DA:80,0
DA:81,0
DA:82,0
DA:85,0
DA:86,0
DA:87,0
DA:88,0
DA:89,0
DA:92,0
DA:93,0
DA:94,0
DA:95,0
DA:96,0
DA:97,0
DA:98,0
DA:99,0
DA:103,0
DA:104,0
DA:105,0
DA:106,0
DA:107,0
DA:109,0
DA:111,0
DA:115,0
DA:116,0
DA:117,0
DA:118,0
DA:119,0
DA:122,0
DA:123,0
DA:125,0
DA:126,0
DA:127,0
DA:128,0
DA:129,0
DA:130,0
DA:134,0
DA:135,0
DA:136,0
DA:137,0
DA:139,0
DA:140,0
DA:142,0
DA:145,0
DA:146,0
DA:147,0
DA:148,0
DA:149,0
DA:150,0
DA:151,0
DA:152,0
DA:153,0
DA:154,0
DA:155,0
DA:156,0
DA:158,0
DA:159,0
DA:160,0
DA:161,0
DA:162,0
DA:163,0
DA:164,0
DA:167,0
DA:168,0
DA:169,0
DA:170,0
DA:171,0
DA:173,0
DA:174,0
DA:179,0
DA:180,0
DA:181,0
DA:182,0
DA:183,0
DA:184,0
DA:185,0
DA:186,0
DA:187,0
DA:188,0
DA:189,0
DA:190,0
DA:191,0
DA:194,0
DA:195,0
DA:197,0
DA:201,0
DA:202,0
DA:203,0
DA:204,0
DA:207,0
DA:208,0
DA:209,0
DA:210,0
DA:211,0
DA:213,0
DA:214,0
DA:216,0
DA:220,0
DA:221,0
DA:222,0
DA:223,0
DA:224,0
DA:225,0
DA:226,0
DA:227,0
DA:228,0
DA:230,0
DA:231,0
DA:232,0
DA:235,0
DA:236,0
DA:237,0
DA:239,0
DA:241,0
DA:242,0
DA:243,0
DA:244,0
DA:246,0
DA:247,0
DA:248,0
DA:249,0
DA:251,0
DA:255,0
DA:256,0
DA:257,0
DA:260,0
DA:261,0
DA:262,0
DA:265,0
DA:267,0
DA:268,0
DA:272,0
DA:273,0
DA:274,0
DA:275,0
DA:276,0
DA:277,0
DA:278,0
DA:279,0
DA:280,0
DA:283,0
DA:285,0
DA:288,0
DA:289,0
DA:290,0
DA:291,0
DA:293,0
DA:294,0
DA:295,0
DA:296,0
DA:297,0
DA:298,0
DA:299,0
DA:300,0
DA:301,0
DA:303,0
DA:304,0
DA:305,0
DA:306,0
DA:307,0
DA:311,0
DA:312,0
DA:314,0
DA:315,0
DA:318,0
DA:319,0
DA:320,0
DA:321,0
DA:322,0
DA:324,0
DA:325,0
DA:326,0
DA:327,0
DA:328,0
DA:330,0
DA:331,0
DA:333,0
DA:334,0
DA:336,0
DA:337,0
DA:339,0
DA:343,0
DA:344,0
DA:345,0
DA:346,0
DA:349,0
DA:351,0
DA:352,0
DA:353,0
DA:354,0
DA:355,0
DA:356,0
DA:358,0
DA:359,0
DA:364,0
DA:365,0
DA:366,0
DA:367,0
DA:370,0
DA:373,0
DA:374,0
DA:380,0
DA:381,0
DA:382,0
DA:383,0
DA:384,0
DA:385,0
DA:387,0
DA:388,0
DA:389,0
DA:390,0
DA:393,0
DA:394,0
DA:395,0
DA:396,0
DA:400,0
DA:401,0
DA:402,0
DA:403,0
DA:405,0
DA:407,0
DA:409,0
DA:410,0
DA:411,0
DA:412,0
DA:413,0
DA:414,0
DA:415,0
DA:416,0
DA:417,0
DA:418,0
DA:419,0
DA:420,0
DA:421,0
DA:422,0
DA:423,0
DA:424,0
DA:425,0
DA:426,0
DA:429,0
DA:430,0
DA:431,0
DA:435,0
DA:436,0
DA:437,0
DA:438,0
DA:439,0
DA:442,0
DA:443,0
DA:444,0
DA:445,0
DA:446,0
DA:447,0
DA:450,0
DA:451,0
DA:453,0
DA:454,0
BRF:0
BRH:0
LF:299
LH:0
end_of_record
SF:/Users/rawkode/Code/src/github.com/cuenv/cuenv/crates/ci/src/executor/redact.rs
FN:102,_RINvMNtNtCskfEctF1MPvy_8cuenv_ci8executor6redactNtB3_11LogRedactor10with_namespEB7_
FN:120,_RNCINvMNtNtCskfEctF1MPvy_8cuenv_ci8executor6redactNtB5_11LogRedactor10with_namespE0B9_
FN:125,_RNCINvMNtNtCskfEctF1MPvy_8cuenv_ci8executor6redactNtB5_11LogRedactor10with_namespEs_0B9_
FN:83,_RNCNvMNtNtCskfEctF1MPvy_8cuenv_ci8executor6redactNtB4_11LogRedactor3new0B8_
FN:226,_RNCNvNtNtCskfEctF1MPvy_8cuenv_ci8executor6redact14redact_secrets0B7_
FN:102,_RINvMNtNtCsilPUL3AyWrc_8cuenv_ci8executor6redactNtB3_11LogRedactor10with_namesINtNtCsganj50Cd8Gx_5alloc3vec3VecTNtNtB1j_6string6StringB1M_EEEB7_
FN:120,_RNCINvMNtNtCsilPUL3AyWrc_8cuenv_ci8executor6redactNtB5_11LogRedactor10with_namesINtNtCsganj50Cd8Gx_5alloc3vec3VecTNtNtB1l_6string6StringB1O_EEE0B9_
FN:125,_RNCINvMNtNtCsilPUL3AyWrc_8cuenv_ci8executor6redactNtB5_11LogRedactor10with_namesINtNtCsganj50Cd8Gx_5alloc3vec3VecTNtNtB1l_6string6StringB1O_EEEs_0B9_
FN:83,_RNCNvMNtNtCsilPUL3AyWrc_8cuenv_ci8executor6redactNtB4_11LogRedactor3new0B8_
FN:226,_RNCNvNtNtCsilPUL3AyWrc_8cuenv_ci8executor6redact14redact_secrets0B7_
FN:200,_RNvMNtNtCsilPUL3AyWrc_8cuenv_ci8executor6redactNtB2_11LogRedactor11has_secrets
FN:206,_RNvMNtNtCsilPUL3AyWrc_8cuenv_ci8executor6redactNtB2_11LogRedactor12secret_count
FN:188,_RNvMNtNtCsilPUL3AyWrc_8cuenv_ci8executor6redactNtB2_11LogRedactor16redact_immediate
FN:67,_RNvMNtNtCsilPUL3AyWrc_8cuenv_ci8executor6redactNtB2_11LogRedactor3new
FN:175,_RNvMNtNtCsilPUL3AyWrc_8cuenv_ci8executor6redactNtB2_11LogRedactor5flush
FN:149,_RNvMNtNtCsilPUL3AyWrc_8cuenv_ci8executor6redactNtB2_11LogRedactor6redact
FN:217,_RNvNtNtCsilPUL3AyWrc_8cuenv_ci8executor6redact14redact_secrets
FN:306,_RNvNtNtNtCsilPUL3AyWrc_8cuenv_ci8executor6redact5testss_15test_no_secrets
FN:332,_RNvNtNtNtCsilPUL3AyWrc_8cuenv_ci8executor6redact5testss_16test_empty_input
FN:316,_RNvNtNtNtCsilPUL3AyWrc_8cuenv_ci8executor6redact5testss_20test_greedy_matching
FN:257,_RNvNtNtNtCsilPUL3AyWrc_8cuenv_ci8executor6redact5testss_20test_repeated_secret
FN:249,_RNvNtNtNtCsilPUL3AyWrc_8cuenv_ci8executor6redact5testss_21test_multiple_secrets
FN:242,_RNvNtNtNtCsilPUL3AyWrc_8cuenv_ci8executor6redact5testss_21test_simple_redaction
FN:371,_RNvNtNtNtCsilPUL3AyWrc_8cuenv_ci8executor6redact5testss_22test_multiline_content
FN:364,_RNvNtNtNtCsilPUL3AyWrc_8cuenv_ci8executor6redact5testss_23test_special_characters
FN:289,_RNvNtNtNtCsilPUL3AyWrc_8cuenv_ci8executor6redact5testss_24test_streaming_redaction
FN:339,_RNvNtNtNtCsilPUL3AyWrc_8cuenv_ci8executor6redact5testss_25test_secret_at_boundaries
FN:264,_RNvNtNtNtCsilPUL3AyWrc_8cuenv_ci8executor6redact5testss_25test_short_secret_warning
FN:276,_RNvNtNtNtCsilPUL3AyWrc_8cuenv_ci8executor6redact5testss_26test_named_secrets_warning
FN:325,_RNvNtNtNtCsilPUL3AyWrc_8cuenv_ci8executor6redact5testss_28test_redact_secrets_function
FN:352,_RNvNtNtNtCsilPUL3AyWrc_8cuenv_ci8executor6redact5testss_35test_duplicate_secrets_deduplicated
FNDA:0,_RINvMNtNtCskfEctF1MPvy_8cuenv_ci8executor6redactNtB3_11LogRedactor10with_namespEB7_
FNDA:0,_RNCINvMNtNtCskfEctF1MPvy_8cuenv_ci8executor6redactNtB5_11LogRedactor10with_namespE0B9_
FNDA:0,_RNCINvMNtNtCskfEctF1MPvy_8cuenv_ci8executor6redactNtB5_11LogRedactor10with_namespEs_0B9_
FNDA:0,_RNCNvMNtNtCskfEctF1MPvy_8cuenv_ci8executor6redactNtB4_11LogRedactor3new0B8_
FNDA:0,_RNCNvNtNtCskfEctF1MPvy_8cuenv_ci8executor6redact14redact_secrets0B7_
FNDA:2,_RINvMNtNtCsilPUL3AyWrc_8cuenv_ci8executor6redactNtB3_11LogRedactor10with_namesINtNtCsganj50Cd8Gx_5alloc3vec3VecTNtNtB1j_6string6StringB1M_EEEB7_
FNDA:2,_RNCINvMNtNtCsilPUL3AyWrc_8cuenv_ci8executor6redactNtB5_11LogRedactor10with_namesINtNtCsganj50Cd8Gx_5alloc3vec3VecTNtNtB1l_6string6StringB1O_EEE0B9_
FNDA:0,_RNCINvMNtNtCsilPUL3AyWrc_8cuenv_ci8executor6redactNtB5_11LogRedactor10with_namesINtNtCsganj50Cd8Gx_5alloc3vec3VecTNtNtB1l_6string6StringB1O_EEEs_0B9_
FNDA:4,_RNCNvMNtNtCsilPUL3AyWrc_8cuenv_ci8executor6redactNtB4_11LogRedactor3new0B8_
FNDA:2,_RNCNvNtNtCsilPUL3AyWrc_8cuenv_ci8executor6redact14redact_secrets0B7_
FNDA:1,_RNvMNtNtCsilPUL3AyWrc_8cuenv_ci8executor6redactNtB2_11LogRedactor11has_secrets
FNDA:2,_RNvMNtNtCsilPUL3AyWrc_8cuenv_ci8executor6redactNtB2_11LogRedactor12secret_count
FNDA:12,_RNvMNtNtCsilPUL3AyWrc_8cuenv_ci8executor6redactNtB2_11LogRedactor16redact_immediate
FNDA:11,_RNvMNtNtCsilPUL3AyWrc_8cuenv_ci8executor6redactNtB2_11LogRedactor3new
FNDA:1,_RNvMNtNtCsilPUL3AyWrc_8cuenv_ci8executor6redactNtB2_11LogRedactor5flush
FNDA:2,_RNvMNtNtCsilPUL3AyWrc_8cuenv_ci8executor6redactNtB2_11LogRedactor6redact
FNDA:1,_RNvNtNtCsilPUL3AyWrc_8cuenv_ci8executor6redact14redact_secrets
FNDA:1,_RNvNtNtNtCsilPUL3AyWrc_8cuenv_ci8executor6redact5testss_15test_no_secrets
FNDA:1,_RNvNtNtNtCsilPUL3AyWrc_8cuenv_ci8executor6redact5testss_16test_empty_input
FNDA:1,_RNvNtNtNtCsilPUL3AyWrc_8cuenv_ci8executor6redact5testss_20test_greedy_matching
FNDA:1,_RNvNtNtNtCsilPUL3AyWrc_8cuenv_ci8executor6redact5testss_20test_repeated_secret
FNDA:1,_RNvNtNtNtCsilPUL3AyWrc_8cuenv_ci8executor6redact5testss_21test_multiple_secrets
FNDA:1,_RNvNtNtNtCsilPUL3AyWrc_8cuenv_ci8executor6redact5testss_21test_simple_redaction
FNDA:1,_RNvNtNtNtCsilPUL3AyWrc_8cuenv_ci8executor6redact5testss_22test_multiline_content
FNDA:1,_RNvNtNtNtCsilPUL3AyWrc_8cuenv_ci8executor6redact5testss_23test_special_characters
FNDA:1,_RNvNtNtNtCsilPUL3AyWrc_8cuenv_ci8executor6redact5testss_24test_streaming_redaction
FNDA:1,_RNvNtNtNtCsilPUL3AyWrc_8cuenv_ci8executor6redact5testss_25test_secret_at_boundaries
FNDA:1,_RNvNtNtNtCsilPUL3AyWrc_8cuenv_ci8executor6redact5testss_25test_short_secret_warning
FNDA:1,_RNvNtNtNtCsilPUL3AyWrc_8cuenv_ci8executor6redact5testss_26test_named_secrets_warning
FNDA:1,_RNvNtNtNtCsilPUL3AyWrc_8cuenv_ci8executor6redact5testss_28test_redact_secrets_function
FNDA:1,_RNvNtNtNtCsilPUL3AyWrc_8cuenv_ci8executor6redact5testss_35test_duplicate_secrets_deduplicated
FNF:26
FNH:25
DA:67,11
DA:68,11
DA:69,11
DA:71,14
DA:72,14
DA:73,2
DA:74,2
DA:75,2
DA:76,2
DA:77,12
DA:78,12
DA:79,12
DA:83,11
DA:85,11
DA:87,11
DA:88,11
DA:89,11
DA:90,11
DA:91,11
DA:92,11
DA:93,11
DA:94,11
DA:95,11
DA:102,2
DA:103,2
DA:104,2
DA:105,2
DA:106,2
DA:108,6
DA:109,4
DA:110,1
DA:111,1
DA:112,1
DA:113,1
DA:114,3
DA:115,3
DA:116,3
DA:120,2
DA:123,2
DA:124,2
DA:125,2
DA:127,2
DA:129,2
DA:130,2
DA:131,2
DA:132,2
DA:133,2
DA:134,2
DA:135,2
DA:136,2
DA:137,2
DA:149,2
DA:150,2
DA:151,0
DA:152,2
DA:155,2
DA:158,2
DA:160,2
DA:162,1
DA:163,1
DA:166,1
DA:167,1
DA:169,1
DA:170,2
DA:175,1
DA:176,1
DA:177,0
DA:178,1
DA:180,1
DA:181,1
DA:182,1
DA:188,12
DA:189,12
DA:191,25
DA:192,13
DA:193,13
DA:195,12
DA:196,12
DA:200,1
DA:201,1
DA:202,1
DA:206,2
DA:207,2
DA:208,2
DA:217,1
DA:218,1
DA:219,0
DA:220,1
DA:222,1
DA:225,1
DA:226,2
DA:228,3
DA:229,2
DA:230,2
DA:231,2
DA:234,1
DA:235,1
DA:242,1
DA:243,1
DA:244,1
DA:245,1
DA:246,1
DA:249,1
DA:250,1
DA:251,1
DA:252,1
DA:253,1
DA:254,1
DA:257,1
DA:258,1
DA:259,1
DA:260,1
DA:261,1
DA:264,1
DA:265,1
DA:266,1
DA:267,1
DA:268,1
DA:269,1
DA:271,1
DA:272,1
DA:273,1
DA:276,1
DA:277,1
DA:278,1
DA:279,1
DA:281,1
DA:283,1
DA:284,1
DA:285,1
DA:286,1
DA:289,1
DA:290,1
DA:293,1
DA:294,1
DA:296,1
DA:297,1
DA:298,1
DA:300,1
DA:301,1
DA:302,1
DA:303,1
DA:306,1
DA:307,1
DA:308,1
DA:309,1
DA:311,1
DA:312,1
DA:313,1
DA:316,1
DA:318,1
DA:319,1
DA:321,1
DA:322,1
DA:325,1
DA:326,1
DA:327,1
DA:328,1
DA:329,1
DA:332,1
DA:333,1
DA:334,1
DA:335,1
DA:336,1
DA:339,1
DA:340,1
DA:343,1
DA:344,1
DA:347,1
DA:348,1
DA:349,1
DA:352,1
DA:353,1
DA:354,1
DA:355,1
DA:357,1
DA:360,1
DA:361,1
DA:364,1
DA:365,1
DA:366,1
DA:367,1
DA:368,1
DA:371,1
DA:372,1
DA:373,1
DA:374,1
DA:375,1
DA:376,1
BRF:0
BRH:0
LF:193
LH:189
end_of_record
SF:/Users/rawkode/Code/src/github.com/cuenv/cuenv/crates/ci/src/executor/remote.rs
FN:368,_RNvMs0_NtNtCskfEctF1MPvy_8cuenv_ci8executor6remoteNtB5_18RemoteCacheBackend14create_backoff
FN:258,_RINvMs0_NtNtCskfEctF1MPvy_8cuenv_ci8executor6remoteNtB6_18RemoteCacheBackend18retry_with_backoffNCNCNvB2_12upload_blobs0s_0NCNCB1y_s_00EBa_
FN:262,_RNCINvMs0_NtNtCskfEctF1MPvy_8cuenv_ci8executor6remoteNtB8_18RemoteCacheBackend18retry_with_backoffNCNCNvB4_12upload_blobs0s_0NCNCB1A_s_00E0Bc_
FN:287,_RNCNCINvMs0_NtNtCskfEctF1MPvy_8cuenv_ci8executor6remoteNtBa_18RemoteCacheBackend18retry_with_backoffNCNCNvB6_12upload_blobs0s_0NCNCB1C_s_00E00Be_
FN:288,_RNCNCINvMs0_NtNtCskfEctF1MPvy_8cuenv_ci8executor6remoteNtBa_18RemoteCacheBackend18retry_with_backoffNCNCNvB6_12upload_blobs0s_0NCNCB1C_s_00E0s_0Be_
FN:222,_RNCNCNCNvMs0_NtNtCskfEctF1MPvy_8cuenv_ci8executor6remoteNtBb_18RemoteCacheBackend12upload_blobs0s_00Bf_
FN:208,_RNCNCNvMs0_NtNtCskfEctF1MPvy_8cuenv_ci8executor6remoteNtB9_18RemoteCacheBackend12upload_blobs00Bd_
FN:220,_RNCNCNvMs0_NtNtCskfEctF1MPvy_8cuenv_ci8executor6remoteNtB9_18RemoteCacheBackend12upload_blobs0s_0Bd_
FN:321,_RNCNCNvMs0_NtNtCskfEctF1MPvy_8cuenv_ci8executor6remoteNtB9_18RemoteCacheBackend14retry_cas_read00Bd_
FN:322,_RNCNCNvMs0_NtNtCskfEctF1MPvy_8cuenv_ci8executor6remoteNtB9_18RemoteCacheBackend14retry_cas_read0s_0Bd_
FN:361,_RNCNCNvMs0_NtNtCskfEctF1MPvy_8cuenv_ci8executor6remoteNtB9_18RemoteCacheBackend22retry_action_cache_get00Bd_
FN:362,_RNCNCNvMs0_NtNtCskfEctF1MPvy_8cuenv_ci8executor6remoteNtB9_18RemoteCacheBackend22retry_action_cache_get0s_0Bd_
FN:142,_RNCNCNvMs0_NtNtCskfEctF1MPvy_8cuenv_ci8executor6remoteNtB9_18RemoteCacheBackend7connect00Bd_
FN:157,_RNCNCNvMs0_NtNtCskfEctF1MPvy_8cuenv_ci8executor6remoteNtB9_18RemoteCacheBackend7connect0s0_0Bd_
FN:163,_RNCNCNvMs0_NtNtCskfEctF1MPvy_8cuenv_ci8executor6remoteNtB9_18RemoteCacheBackend7connect0s1_0Bd_
FN:149,_RNCNCNvMs0_NtNtCskfEctF1MPvy_8cuenv_ci8executor6remoteNtB9_18RemoteCacheBackend7connect0s_0Bd_
FN:585,_RNCNCNvXs4_NtNtCskfEctF1MPvy_8cuenv_ci8executor6remoteNtB9_18RemoteCacheBackendNtNtBb_7backend12CacheBackend15restore_outputs00Bd_
FN:617,_RNCNCNvXs4_NtNtCskfEctF1MPvy_8cuenv_ci8executor6remoteNtB9_18RemoteCacheBackendNtNtBb_7backend12CacheBackend15restore_outputs0s0_0Bd_
FN:593,_RNCNCNvXs4_NtNtCskfEctF1MPvy_8cuenv_ci8executor6remoteNtB9_18RemoteCacheBackendNtNtBb_7backend12CacheBackend15restore_outputs0s_0Bd_
FN:421,_RNCNCNvXs4_NtNtCskfEctF1MPvy_8cuenv_ci8executor6remoteNtB9_18RemoteCacheBackendNtNtBb_7backend12CacheBackend5check00Bd_
FN:490,_RNCNCNvXs4_NtNtCskfEctF1MPvy_8cuenv_ci8executor6remoteNtB9_18RemoteCacheBackendNtNtBb_7backend12CacheBackend5store00Bd_
FN:497,_RNCNCNvXs4_NtNtCskfEctF1MPvy_8cuenv_ci8executor6remoteNtB9_18RemoteCacheBackendNtNtBb_7backend12CacheBackend5store0s_0Bd_
FN:672,_RNCNCNvXs4_NtNtCskfEctF1MPvy_8cuenv_ci8executor6remoteNtB9_18RemoteCacheBackendNtNtBb_7backend12CacheBackend8get_logs00Bd_
FN:694,_RNCNCNvXs4_NtNtCskfEctF1MPvy_8cuenv_ci8executor6remoteNtB9_18RemoteCacheBackendNtNtBb_7backend12CacheBackend8get_logs0s0_0Bd_
FN:683,_RNCNCNvXs4_NtNtCskfEctF1MPvy_8cuenv_ci8executor6remoteNtB9_18RemoteCacheBackendNtNtBb_7backend12CacheBackend8get_logs0s_0Bd_
FN:173,_RNCNvMs0_NtNtCskfEctF1MPvy_8cuenv_ci8executor6remoteNtB7_18RemoteCacheBackend10cas_client0Bb_
FN:116,_RNCNvMs0_NtNtCskfEctF1MPvy_8cuenv_ci8executor6remoteNtB7_18RemoteCacheBackend11get_channel0Bb_
FN:200,_RNCNvMs0_NtNtCskfEctF1MPvy_8cuenv_ci8executor6remoteNtB7_18RemoteCacheBackend12upload_blobs0Bb_
FN:233,_RNCNvMs0_NtNtCskfEctF1MPvy_8cuenv_ci8executor6remoteNtB7_18RemoteCacheBackend14download_blobs0Bb_
FN:296,_RNCNvMs0_NtNtCskfEctF1MPvy_8cuenv_ci8executor6remoteNtB7_18RemoteCacheBackend14retry_cas_read0Bb_
FN:167,_RNCNvMs0_NtNtCskfEctF1MPvy_8cuenv_ci8executor6remoteNtB7_18RemoteCacheBackend19action_cache_client0Bb_
FN:331,_RNCNvMs0_NtNtCskfEctF1MPvy_8cuenv_ci8executor6remoteNtB7_18RemoteCacheBackend22retry_action_cache_get0Bb_
FN:138,_RNCNvMs0_NtNtCskfEctF1MPvy_8cuenv_ci8executor6remoteNtB7_18RemoteCacheBackend7connect0Bb_
FN:83,_RNCNvMs_NtNtCskfEctF1MPvy_8cuenv_ci8executor6remoteNtB6_17RemoteCacheConfig8from_env0Ba_
FN:173,_RNvMs0_NtNtCskfEctF1MPvy_8cuenv_ci8executor6remoteNtB5_18RemoteCacheBackend10cas_client
FN:116,_RNvMs0_NtNtCskfEctF1MPvy_8cuenv_ci8executor6remoteNtB5_18RemoteCacheBackend11get_channel
FN:200,_RNvMs0_NtNtCskfEctF1MPvy_8cuenv_ci8executor6remoteNtB5_18RemoteCacheBackend12upload_blobs
FN:188,_RNvMs0_NtNtCskfEctF1MPvy_8cuenv_ci8executor6remoteNtB5_18RemoteCacheBackend14compute_digest
FN:230,_RNvMs0_NtNtCskfEctF1MPvy_8cuenv_ci8executor6remoteNtB5_18RemoteCacheBackend14download_blobs
FN:293,_RNvMs0_NtNtCskfEctF1MPvy_8cuenv_ci8executor6remoteNtB5_18RemoteCacheBackend14retry_cas_read
FN:179,_RNvMs0_NtNtCskfEctF1MPvy_8cuenv_ci8executor6remoteNtB5_18RemoteCacheBackend15to_bazel_digest
FN:167,_RNvMs0_NtNtCskfEctF1MPvy_8cuenv_ci8executor6remoteNtB5_18RemoteCacheBackend19action_cache_client
FN:327,_RNvMs0_NtNtCskfEctF1MPvy_8cuenv_ci8executor6remoteNtB5_18RemoteCacheBackend22retry_action_cache_get
FN:100,_RNvMs0_NtNtCskfEctF1MPvy_8cuenv_ci8executor6remoteNtB5_18RemoteCacheBackend3new
FN:138,_RNvMs0_NtNtCskfEctF1MPvy_8cuenv_ci8executor6remoteNtB5_18RemoteCacheBackend7connect
FN:111,_RNvMs0_NtNtCskfEctF1MPvy_8cuenv_ci8executor6remoteNtB5_18RemoteCacheBackend8from_env
FN:73,_RNvMs_NtNtCskfEctF1MPvy_8cuenv_ci8executor6remoteNtB4_17RemoteCacheConfig8from_env
FN:714,_RNvNtNtCskfEctF1MPvy_8cuenv_ci8executor6remote12is_retryable
FN:51,_RNvXNtNtCskfEctF1MPvy_8cuenv_ci8executor6remoteNtB2_17RemoteCacheConfigNtNtCskzPJi2J8k3N_4core7default7Default7default
FN:728,_RNvXs1_NtNtCskfEctF1MPvy_8cuenv_ci8executor6remoteNtB5_18RemoteCacheBackendNtNtCskzPJi2J8k3N_4core3fmt5Debug3fmt
FN:706,_RNvXs4_NtNtCskfEctF1MPvy_8cuenv_ci8executor6remoteNtB5_18RemoteCacheBackendNtNtB7_7backend12CacheBackend12health_check
FN:569,_RNvXs4_NtNtCskfEctF1MPvy_8cuenv_ci8executor6remoteNtB5_18RemoteCacheBackendNtNtB7_7backend12CacheBackend15restore_outputs
FN:702,_RNvXs4_NtNtCskfEctF1MPvy_8cuenv_ci8executor6remoteNtB5_18RemoteCacheBackendNtNtB7_7backend12CacheBackend4name
FN:386,_RNvXs4_NtNtCskfEctF1MPvy_8cuenv_ci8executor6remoteNtB5_18RemoteCacheBackendNtNtB7_7backend12CacheBackend5check
FN:463,_RNvXs4_NtNtCskfEctF1MPvy_8cuenv_ci8executor6remoteNtB5_18RemoteCacheBackendNtNtB7_7backend12CacheBackend5store
FN:656,_RNvXs4_NtNtCskfEctF1MPvy_8cuenv_ci8executor6remoteNtB5_18RemoteCacheBackendNtNtB7_7backend12CacheBackend8get_logs
FN:83,_RNCNvMs_NtNtCsilPUL3AyWrc_8cuenv_ci8executor6remoteNtB6_17RemoteCacheConfig8from_env0Ba_
FN:258,_RINvMs0_NtNtCsilPUL3AyWrc_8cuenv_ci8executor6remoteNtB6_18RemoteCacheBackend18retry_with_backoffppEBa_
FN:262,_RNCINvMs0_NtNtCsilPUL3AyWrc_8cuenv_ci8executor6remoteNtB8_18RemoteCacheBackend18retry_with_backoffppE0Bc_
FN:287,_RNCNCINvMs0_NtNtCsilPUL3AyWrc_8cuenv_ci8executor6remoteNtBa_18RemoteCacheBackend18retry_with_backoffppE00Be_
FN:288,_RNCNCINvMs0_NtNtCsilPUL3AyWrc_8cuenv_ci8executor6remoteNtBa_18RemoteCacheBackend18retry_with_backoffppE0s_0Be_
FN:222,_RNCNCNCNvMs0_NtNtCsilPUL3AyWrc_8cuenv_ci8executor6remoteNtBb_18RemoteCacheBackend12upload_blobs0s_00Bf_
FN:208,_RNCNCNvMs0_NtNtCsilPUL3AyWrc_8cuenv_ci8executor6remoteNtB9_18RemoteCacheBackend12upload_blobs00Bd_
FN:220,_RNCNCNvMs0_NtNtCsilPUL3AyWrc_8cuenv_ci8executor6remoteNtB9_18RemoteCacheBackend12upload_blobs0s_0Bd_
FN:321,_RNCNCNvMs0_NtNtCsilPUL3AyWrc_8cuenv_ci8executor6remoteNtB9_18RemoteCacheBackend14retry_cas_read00Bd_
FN:322,_RNCNCNvMs0_NtNtCsilPUL3AyWrc_8cuenv_ci8executor6remoteNtB9_18RemoteCacheBackend14retry_cas_read0s_0Bd_
FN:361,_RNCNCNvMs0_NtNtCsilPUL3AyWrc_8cuenv_ci8executor6remoteNtB9_18RemoteCacheBackend22retry_action_cache_get00Bd_
FN:362,_RNCNCNvMs0_NtNtCsilPUL3AyWrc_8cuenv_ci8executor6remoteNtB9_18RemoteCacheBackend22retry_action_cache_get0s_0Bd_
FN:142,_RNCNCNvMs0_NtNtCsilPUL3AyWrc_8cuenv_ci8executor6remoteNtB9_18RemoteCacheBackend7connect00Bd_
FN:157,_RNCNCNvMs0_NtNtCsilPUL3AyWrc_8cuenv_ci8executor6remoteNtB9_18RemoteCacheBackend7connect0s0_0Bd_
FN:163,_RNCNCNvMs0_NtNtCsilPUL3AyWrc_8cuenv_ci8executor6remoteNtB9_18RemoteCacheBackend7connect0s1_0Bd_
FN:149,_RNCNCNvMs0_NtNtCsilPUL3AyWrc_8cuenv_ci8executor6remoteNtB9_18RemoteCacheBackend7connect0s_0Bd_
FN:585,_RNCNCNvXs4_NtNtCsilPUL3AyWrc_8cuenv_ci8executor6remoteNtB9_18RemoteCacheBackendNtNtBb_7backend12CacheBackend15restore_outputs00Bd_
FN:617,_RNCNCNvXs4_NtNtCsilPUL3AyWrc_8cuenv_ci8executor6remoteNtB9_18RemoteCacheBackendNtNtBb_7backend12CacheBackend15restore_outputs0s0_0Bd_
FN:593,_RNCNCNvXs4_NtNtCsilPUL3AyWrc_8cuenv_ci8executor6remoteNtB9_18RemoteCacheBackendNtNtBb_7backend12CacheBackend15restore_outputs0s_0Bd_
FN:421,_RNCNCNvXs4_NtNtCsilPUL3AyWrc_8cuenv_ci8executor6remoteNtB9_18RemoteCacheBackendNtNtBb_7backend12CacheBackend5check00Bd_
FN:490,_RNCNCNvXs4_NtNtCsilPUL3AyWrc_8cuenv_ci8executor6remoteNtB9_18RemoteCacheBackendNtNtBb_7backend12CacheBackend5store00Bd_
FN:497,_RNCNCNvXs4_NtNtCsilPUL3AyWrc_8cuenv_ci8executor6remoteNtB9_18RemoteCacheBackendNtNtBb_7backend12CacheBackend5store0s_0Bd_
FN:672,_RNCNCNvXs4_NtNtCsilPUL3AyWrc_8cuenv_ci8executor6remoteNtB9_18RemoteCacheBackendNtNtBb_7backend12CacheBackend8get_logs00Bd_
FN:694,_RNCNCNvXs4_NtNtCsilPUL3AyWrc_8cuenv_ci8executor6remoteNtB9_18RemoteCacheBackendNtNtBb_7backend12CacheBackend8get_logs0s0_0Bd_
FN:683,_RNCNCNvXs4_NtNtCsilPUL3AyWrc_8cuenv_ci8executor6remoteNtB9_18RemoteCacheBackendNtNtBb_7backend12CacheBackend8get_logs0s_0Bd_
FN:173,_RNCNvMs0_NtNtCsilPUL3AyWrc_8cuenv_ci8executor6remoteNtB7_18RemoteCacheBackend10cas_client0Bb_
FN:116,_RNCNvMs0_NtNtCsilPUL3AyWrc_8cuenv_ci8executor6remoteNtB7_18RemoteCacheBackend11get_channel0Bb_
FN:200,_RNCNvMs0_NtNtCsilPUL3AyWrc_8cuenv_ci8executor6remoteNtB7_18RemoteCacheBackend12upload_blobs0Bb_
FN:233,_RNCNvMs0_NtNtCsilPUL3AyWrc_8cuenv_ci8executor6remoteNtB7_18RemoteCacheBackend14download_blobs0Bb_
FN:296,_RNCNvMs0_NtNtCsilPUL3AyWrc_8cuenv_ci8executor6remoteNtB7_18RemoteCacheBackend14retry_cas_read0Bb_
FN:167,_RNCNvMs0_NtNtCsilPUL3AyWrc_8cuenv_ci8executor6remoteNtB7_18RemoteCacheBackend19action_cache_client0Bb_
FN:331,_RNCNvMs0_NtNtCsilPUL3AyWrc_8cuenv_ci8executor6remoteNtB7_18RemoteCacheBackend22retry_action_cache_get0Bb_
FN:138,_RNCNvMs0_NtNtCsilPUL3AyWrc_8cuenv_ci8executor6remoteNtB7_18RemoteCacheBackend7connect0Bb_
FN:173,_RNvMs0_NtNtCsilPUL3AyWrc_8cuenv_ci8executor6remoteNtB5_18RemoteCacheBackend10cas_client
FN:116,_RNvMs0_NtNtCsilPUL3AyWrc_8cuenv_ci8executor6remoteNtB5_18RemoteCacheBackend11get_channel
FN:200,_RNvMs0_NtNtCsilPUL3AyWrc_8cuenv_ci8executor6remoteNtB5_18RemoteCacheBackend12upload_blobs
FN:230,_RNvMs0_NtNtCsilPUL3AyWrc_8cuenv_ci8executor6remoteNtB5_18RemoteCacheBackend14download_blobs
FN:293,_RNvMs0_NtNtCsilPUL3AyWrc_8cuenv_ci8executor6remoteNtB5_18RemoteCacheBackend14retry_cas_read
FN:167,_RNvMs0_NtNtCsilPUL3AyWrc_8cuenv_ci8executor6remoteNtB5_18RemoteCacheBackend19action_cache_client
FN:327,_RNvMs0_NtNtCsilPUL3AyWrc_8cuenv_ci8executor6remoteNtB5_18RemoteCacheBackend22retry_action_cache_get
FN:138,_RNvMs0_NtNtCsilPUL3AyWrc_8cuenv_ci8executor6remoteNtB5_18RemoteCacheBackend7connect
FN:706,_RNvXs4_NtNtCsilPUL3AyWrc_8cuenv_ci8executor6remoteNtB5_18RemoteCacheBackendNtNtB7_7backend12CacheBackend12health_check
FN:569,_RNvXs4_NtNtCsilPUL3AyWrc_8cuenv_ci8executor6remoteNtB5_18RemoteCacheBackendNtNtB7_7backend12CacheBackend15restore_outputs
FN:386,_RNvXs4_NtNtCsilPUL3AyWrc_8cuenv_ci8executor6remoteNtB5_18RemoteCacheBackendNtNtB7_7backend12CacheBackend5check
FN:463,_RNvXs4_NtNtCsilPUL3AyWrc_8cuenv_ci8executor6remoteNtB5_18RemoteCacheBackendNtNtB7_7backend12CacheBackend5store
FN:656,_RNvXs4_NtNtCsilPUL3AyWrc_8cuenv_ci8executor6remoteNtB5_18RemoteCacheBackendNtNtB7_7backend12CacheBackend8get_logs
FN:848,_RNvNtNtNtCsilPUL3AyWrc_8cuenv_ci8executor6remote5testss_17test_is_retryable
FN:823,_RNvNtNtNtCsilPUL3AyWrc_8cuenv_ci8executor6remote5testss_19test_compute_digest
FN:802,_RNvNtNtNtCsilPUL3AyWrc_8cuenv_ci8executor6remote5testss_19test_config_default
FN:893,_RNvNtNtNtCsilPUL3AyWrc_8cuenv_ci8executor6remote5testss_19test_create_backoff
FN:814,_RNvNtNtNtCsilPUL3AyWrc_8cuenv_ci8executor6remote5testss_20test_to_bazel_digest
FN:831,_RNvNtNtNtCsilPUL3AyWrc_8cuenv_ci8executor6remote5testss_25test_compute_digest_empty
FN:740,_RNvNtNtNtCsilPUL3AyWrc_8cuenv_ci8executor6remote5testss_26test_config_from_env_empty
FN:748,_RNvNtNtNtCsilPUL3AyWrc_8cuenv_ci8executor6remote5testss_29test_config_from_env_with_url
FN:861,_RNvNtNtNtCsilPUL3AyWrc_8cuenv_ci8executor6remote5testss_29test_remote_cache_backend_new
FN:794,_RNvNtNtNtCsilPUL3AyWrc_8cuenv_ci8executor6remote5testss_30test_config_from_env_empty_url
FN:767,_RNvNtNtNtCsilPUL3AyWrc_8cuenv_ci8executor6remote5testss_31test_config_from_env_tls_values
FN:880,_RNvNtNtNtCsilPUL3AyWrc_8cuenv_ci8executor6remote5testss_31test_remote_cache_backend_debug
FN:839,_RNvNtNtNtCsilPUL3AyWrc_8cuenv_ci8executor6remote5testss_33test_compute_digest_deterministic
FN:872,_RNvNtNtNtCsilPUL3AyWrc_8cuenv_ci8executor6remote5testss_39test_remote_cache_backend_from_env_none
FN:188,_RNvMs0_NtNtCsilPUL3AyWrc_8cuenv_ci8executor6remoteNtB5_18RemoteCacheBackend14compute_digest
FN:368,_RNvMs0_NtNtCsilPUL3AyWrc_8cuenv_ci8executor6remoteNtB5_18RemoteCacheBackend14create_backoff
FN:179,_RNvMs0_NtNtCsilPUL3AyWrc_8cuenv_ci8executor6remoteNtB5_18RemoteCacheBackend15to_bazel_digest
FN:100,_RNvMs0_NtNtCsilPUL3AyWrc_8cuenv_ci8executor6remoteNtB5_18RemoteCacheBackend3new
FN:111,_RNvMs0_NtNtCsilPUL3AyWrc_8cuenv_ci8executor6remoteNtB5_18RemoteCacheBackend8from_env
FN:73,_RNvMs_NtNtCsilPUL3AyWrc_8cuenv_ci8executor6remoteNtB4_17RemoteCacheConfig8from_env
FN:714,_RNvNtNtCsilPUL3AyWrc_8cuenv_ci8executor6remote12is_retryable
FN:51,_RNvXNtNtCsilPUL3AyWrc_8cuenv_ci8executor6remoteNtB2_17RemoteCacheConfigNtNtCskzPJi2J8k3N_4core7default7Default7default
FN:728,_RNvXs1_NtNtCsilPUL3AyWrc_8cuenv_ci8executor6remoteNtB5_18RemoteCacheBackendNtNtCskzPJi2J8k3N_4core3fmt5Debug3fmt
FN:702,_RNvXs4_NtNtCsilPUL3AyWrc_8cuenv_ci8executor6remoteNtB5_18RemoteCacheBackendNtNtB7_7backend12CacheBackend4name
FN:741,_RNCNvNtNtNtCsilPUL3AyWrc_8cuenv_ci8executor6remote5testss_26test_config_from_env_empty0B9_
FN:756,_RNCNvNtNtNtCsilPUL3AyWrc_8cuenv_ci8executor6remote5testss_29test_config_from_env_with_url0B9_
FN:795,_RNCNvNtNtNtCsilPUL3AyWrc_8cuenv_ci8executor6remote5testss_30test_config_from_env_empty_url0B9_
FN:774,_RNCNvNtNtNtCsilPUL3AyWrc_8cuenv_ci8executor6remote5testss_31test_config_from_env_tls_values0B9_
FN:786,_RNCNvNtNtNtCsilPUL3AyWrc_8cuenv_ci8executor6remote5testss_31test_config_from_env_tls_valuess_0B9_
FN:873,_RNCNvNtNtNtCsilPUL3AyWrc_8cuenv_ci8executor6remote5testss_39test_remote_cache_backend_from_env_none0B9_
FNDA:0,_RNvMs0_NtNtCskfEctF1MPvy_8cuenv_ci8executor6remoteNtB5_18RemoteCacheBackend14create_backoff
FNDA:0,_RINvMs0_NtNtCskfEctF1MPvy_8cuenv_ci8executor6remoteNtB6_18RemoteCacheBackend18retry_with_backoffNCNCNvB2_12upload_blobs0s_0NCNCB1y_s_00EBa_
FNDA:0,_RNCINvMs0_NtNtCskfEctF1MPvy_8cuenv_ci8executor6remoteNtB8_18RemoteCacheBackend18retry_with_backoffNCNCNvB4_12upload_blobs0s_0NCNCB1A_s_00E0Bc_
FNDA:0,_RNCNCINvMs0_NtNtCskfEctF1MPvy_8cuenv_ci8executor6remoteNtBa_18RemoteCacheBackend18retry_with_backoffNCNCNvB6_12upload_blobs0s_0NCNCB1C_s_00E00Be_
FNDA:0,_RNCNCINvMs0_NtNtCskfEctF1MPvy_8cuenv_ci8executor6remoteNtBa_18RemoteCacheBackend18retry_with_backoffNCNCNvB6_12upload_blobs0s_0NCNCB1C_s_00E0s_0Be_
FNDA:0,_RNCNCNCNvMs0_NtNtCskfEctF1MPvy_8cuenv_ci8executor6remoteNtBb_18RemoteCacheBackend12upload_blobs0s_00Bf_
FNDA:0,_RNCNCNvMs0_NtNtCskfEctF1MPvy_8cuenv_ci8executor6remoteNtB9_18RemoteCacheBackend12upload_blobs00Bd_
FNDA:0,_RNCNCNvMs0_NtNtCskfEctF1MPvy_8cuenv_ci8executor6remoteNtB9_18RemoteCacheBackend12upload_blobs0s_0Bd_
FNDA:0,_RNCNCNvMs0_NtNtCskfEctF1MPvy_8cuenv_ci8executor6remoteNtB9_18RemoteCacheBackend14retry_cas_read00Bd_
FNDA:0,_RNCNCNvMs0_NtNtCskfEctF1MPvy_8cuenv_ci8executor6remoteNtB9_18RemoteCacheBackend14retry_cas_read0s_0Bd_
FNDA:0,_RNCNCNvMs0_NtNtCskfEctF1MPvy_8cuenv_ci8executor6remoteNtB9_18RemoteCacheBackend22retry_action_cache_get00Bd_
FNDA:0,_RNCNCNvMs0_NtNtCskfEctF1MPvy_8cuenv_ci8executor6remoteNtB9_18RemoteCacheBackend22retry_action_cache_get0s_0Bd_
FNDA:0,_RNCNCNvMs0_NtNtCskfEctF1MPvy_8cuenv_ci8executor6remoteNtB9_18RemoteCacheBackend7connect00Bd_
FNDA:0,_RNCNCNvMs0_NtNtCskfEctF1MPvy_8cuenv_ci8executor6remoteNtB9_18RemoteCacheBackend7connect0s0_0Bd_
FNDA:0,_RNCNCNvMs0_NtNtCskfEctF1MPvy_8cuenv_ci8executor6remoteNtB9_18RemoteCacheBackend7connect0s1_0Bd_
FNDA:0,_RNCNCNvMs0_NtNtCskfEctF1MPvy_8cuenv_ci8executor6remoteNtB9_18RemoteCacheBackend7connect0s_0Bd_
FNDA:0,_RNCNCNvXs4_NtNtCskfEctF1MPvy_8cuenv_ci8executor6remoteNtB9_18RemoteCacheBackendNtNtBb_7backend12CacheBackend15restore_outputs00Bd_
FNDA:0,_RNCNCNvXs4_NtNtCskfEctF1MPvy_8cuenv_ci8executor6remoteNtB9_18RemoteCacheBackendNtNtBb_7backend12CacheBackend15restore_outputs0s0_0Bd_
FNDA:0,_RNCNCNvXs4_NtNtCskfEctF1MPvy_8cuenv_ci8executor6remoteNtB9_18RemoteCacheBackendNtNtBb_7backend12CacheBackend15restore_outputs0s_0Bd_
FNDA:0,_RNCNCNvXs4_NtNtCskfEctF1MPvy_8cuenv_ci8executor6remoteNtB9_18RemoteCacheBackendNtNtBb_7backend12CacheBackend5check00Bd_
FNDA:0,_RNCNCNvXs4_NtNtCskfEctF1MPvy_8cuenv_ci8executor6remoteNtB9_18RemoteCacheBackendNtNtBb_7backend12CacheBackend5store00Bd_
FNDA:0,_RNCNCNvXs4_NtNtCskfEctF1MPvy_8cuenv_ci8executor6remoteNtB9_18RemoteCacheBackendNtNtBb_7backend12CacheBackend5store0s_0Bd_
FNDA:0,_RNCNCNvXs4_NtNtCskfEctF1MPvy_8cuenv_ci8executor6remoteNtB9_18RemoteCacheBackendNtNtBb_7backend12CacheBackend8get_logs00Bd_
FNDA:0,_RNCNCNvXs4_NtNtCskfEctF1MPvy_8cuenv_ci8executor6remoteNtB9_18RemoteCacheBackendNtNtBb_7backend12CacheBackend8get_logs0s0_0Bd_
FNDA:0,_RNCNCNvXs4_NtNtCskfEctF1MPvy_8cuenv_ci8executor6remoteNtB9_18RemoteCacheBackendNtNtBb_7backend12CacheBackend8get_logs0s_0Bd_
FNDA:0,_RNCNvMs0_NtNtCskfEctF1MPvy_8cuenv_ci8executor6remoteNtB7_18RemoteCacheBackend10cas_client0Bb_
FNDA:0,_RNCNvMs0_NtNtCskfEctF1MPvy_8cuenv_ci8executor6remoteNtB7_18RemoteCacheBackend11get_channel0Bb_
FNDA:0,_RNCNvMs0_NtNtCskfEctF1MPvy_8cuenv_ci8executor6remoteNtB7_18RemoteCacheBackend12upload_blobs0Bb_
FNDA:0,_RNCNvMs0_NtNtCskfEctF1MPvy_8cuenv_ci8executor6remoteNtB7_18RemoteCacheBackend14download_blobs0Bb_
FNDA:0,_RNCNvMs0_NtNtCskfEctF1MPvy_8cuenv_ci8executor6remoteNtB7_18RemoteCacheBackend14retry_cas_read0Bb_
FNDA:0,_RNCNvMs0_NtNtCskfEctF1MPvy_8cuenv_ci8executor6remoteNtB7_18RemoteCacheBackend19action_cache_client0Bb_
FNDA:0,_RNCNvMs0_NtNtCskfEctF1MPvy_8cuenv_ci8executor6remoteNtB7_18RemoteCacheBackend22retry_action_cache_get0Bb_
FNDA:0,_RNCNvMs0_NtNtCskfEctF1MPvy_8cuenv_ci8executor6remoteNtB7_18RemoteCacheBackend7connect0Bb_
FNDA:0,_RNCNvMs_NtNtCskfEctF1MPvy_8cuenv_ci8executor6remoteNtB6_17RemoteCacheConfig8from_env0Ba_
FNDA:0,_RNvMs0_NtNtCskfEctF1MPvy_8cuenv_ci8executor6remoteNtB5_18RemoteCacheBackend10cas_client
FNDA:0,_RNvMs0_NtNtCskfEctF1MPvy_8cuenv_ci8executor6remoteNtB5_18RemoteCacheBackend11get_channel
FNDA:0,_RNvMs0_NtNtCskfEctF1MPvy_8cuenv_ci8executor6remoteNtB5_18RemoteCacheBackend12upload_blobs
FNDA:0,_RNvMs0_NtNtCskfEctF1MPvy_8cuenv_ci8executor6remoteNtB5_18RemoteCacheBackend14compute_digest
FNDA:0,_RNvMs0_NtNtCskfEctF1MPvy_8cuenv_ci8executor6remoteNtB5_18RemoteCacheBackend14download_blobs
FNDA:0,_RNvMs0_NtNtCskfEctF1MPvy_8cuenv_ci8executor6remoteNtB5_18RemoteCacheBackend14retry_cas_read
FNDA:0,_RNvMs0_NtNtCskfEctF1MPvy_8cuenv_ci8executor6remoteNtB5_18RemoteCacheBackend15to_bazel_digest
FNDA:0,_RNvMs0_NtNtCskfEctF1MPvy_8cuenv_ci8executor6remoteNtB5_18RemoteCacheBackend19action_cache_client
FNDA:0,_RNvMs0_NtNtCskfEctF1MPvy_8cuenv_ci8executor6remoteNtB5_18RemoteCacheBackend22retry_action_cache_get
FNDA:0,_RNvMs0_NtNtCskfEctF1MPvy_8cuenv_ci8executor6remoteNtB5_18RemoteCacheBackend3new
FNDA:0,_RNvMs0_NtNtCskfEctF1MPvy_8cuenv_ci8executor6remoteNtB5_18RemoteCacheBackend7connect
FNDA:0,_RNvMs0_NtNtCskfEctF1MPvy_8cuenv_ci8executor6remoteNtB5_18RemoteCacheBackend8from_env
FNDA:0,_RNvMs_NtNtCskfEctF1MPvy_8cuenv_ci8executor6remoteNtB4_17RemoteCacheConfig8from_env
FNDA:0,_RNvNtNtCskfEctF1MPvy_8cuenv_ci8executor6remote12is_retryable
FNDA:0,_RNvXNtNtCskfEctF1MPvy_8cuenv_ci8executor6remoteNtB2_17RemoteCacheConfigNtNtCskzPJi2J8k3N_4core7default7Default7default
FNDA:0,_RNvXs1_NtNtCskfEctF1MPvy_8cuenv_ci8executor6remoteNtB5_18RemoteCacheBackendNtNtCskzPJi2J8k3N_4core3fmt5Debug3fmt
FNDA:0,_RNvXs4_NtNtCskfEctF1MPvy_8cuenv_ci8executor6remoteNtB5_18RemoteCacheBackendNtNtB7_7backend12CacheBackend12health_check
FNDA:0,_RNvXs4_NtNtCskfEctF1MPvy_8cuenv_ci8executor6remoteNtB5_18RemoteCacheBackendNtNtB7_7backend12CacheBackend15restore_outputs
FNDA:0,_RNvXs4_NtNtCskfEctF1MPvy_8cuenv_ci8executor6remoteNtB5_18RemoteCacheBackendNtNtB7_7backend12CacheBackend4name
FNDA:0,_RNvXs4_NtNtCskfEctF1MPvy_8cuenv_ci8executor6remoteNtB5_18RemoteCacheBackendNtNtB7_7backend12CacheBackend5check
FNDA:0,_RNvXs4_NtNtCskfEctF1MPvy_8cuenv_ci8executor6remoteNtB5_18RemoteCacheBackendNtNtB7_7backend12CacheBackend5store
FNDA:0,_RNvXs4_NtNtCskfEctF1MPvy_8cuenv_ci8executor6remoteNtB5_18RemoteCacheBackendNtNtB7_7backend12CacheBackend8get_logs
FNDA:3,_RNCNvMs_NtNtCsilPUL3AyWrc_8cuenv_ci8executor6remoteNtB6_17RemoteCacheConfig8from_env0Ba_
FNDA:0,_RINvMs0_NtNtCsilPUL3AyWrc_8cuenv_ci8executor6remoteNtB6_18RemoteCacheBackend18retry_with_backoffppEBa_
FNDA:0,_RNCINvMs0_NtNtCsilPUL3AyWrc_8cuenv_ci8executor6remoteNtB8_18RemoteCacheBackend18retry_with_backoffppE0Bc_
FNDA:0,_RNCNCINvMs0_NtNtCsilPUL3AyWrc_8cuenv_ci8executor6remoteNtBa_18RemoteCacheBackend18retry_with_backoffppE00Be_
FNDA:0,_RNCNCINvMs0_NtNtCsilPUL3AyWrc_8cuenv_ci8executor6remoteNtBa_18RemoteCacheBackend18retry_with_backoffppE0s_0Be_
FNDA:0,_RNCNCNCNvMs0_NtNtCsilPUL3AyWrc_8cuenv_ci8executor6remoteNtBb_18RemoteCacheBackend12upload_blobs0s_00Bf_
FNDA:0,_RNCNCNvMs0_NtNtCsilPUL3AyWrc_8cuenv_ci8executor6remoteNtB9_18RemoteCacheBackend12upload_blobs00Bd_
FNDA:0,_RNCNCNvMs0_NtNtCsilPUL3AyWrc_8cuenv_ci8executor6remoteNtB9_18RemoteCacheBackend12upload_blobs0s_0Bd_
FNDA:0,_RNCNCNvMs0_NtNtCsilPUL3AyWrc_8cuenv_ci8executor6remoteNtB9_18RemoteCacheBackend14retry_cas_read00Bd_
FNDA:0,_RNCNCNvMs0_NtNtCsilPUL3AyWrc_8cuenv_ci8executor6remoteNtB9_18RemoteCacheBackend14retry_cas_read0s_0Bd_
FNDA:0,_RNCNCNvMs0_NtNtCsilPUL3AyWrc_8cuenv_ci8executor6remoteNtB9_18RemoteCacheBackend22retry_action_cache_get00Bd_
FNDA:0,_RNCNCNvMs0_NtNtCsilPUL3AyWrc_8cuenv_ci8executor6remoteNtB9_18RemoteCacheBackend22retry_action_cache_get0s_0Bd_
FNDA:0,_RNCNCNvMs0_NtNtCsilPUL3AyWrc_8cuenv_ci8executor6remoteNtB9_18RemoteCacheBackend7connect00Bd_
FNDA:0,_RNCNCNvMs0_NtNtCsilPUL3AyWrc_8cuenv_ci8executor6remoteNtB9_18RemoteCacheBackend7connect0s0_0Bd_
FNDA:0,_RNCNCNvMs0_NtNtCsilPUL3AyWrc_8cuenv_ci8executor6remoteNtB9_18RemoteCacheBackend7connect0s1_0Bd_
FNDA:0,_RNCNCNvMs0_NtNtCsilPUL3AyWrc_8cuenv_ci8executor6remoteNtB9_18RemoteCacheBackend7connect0s_0Bd_
FNDA:0,_RNCNCNvXs4_NtNtCsilPUL3AyWrc_8cuenv_ci8executor6remoteNtB9_18RemoteCacheBackendNtNtBb_7backend12CacheBackend15restore_outputs00Bd_
FNDA:0,_RNCNCNvXs4_NtNtCsilPUL3AyWrc_8cuenv_ci8executor6remoteNtB9_18RemoteCacheBackendNtNtBb_7backend12CacheBackend15restore_outputs0s0_0Bd_
FNDA:0,_RNCNCNvXs4_NtNtCsilPUL3AyWrc_8cuenv_ci8executor6remoteNtB9_18RemoteCacheBackendNtNtBb_7backend12CacheBackend15restore_outputs0s_0Bd_
FNDA:0,_RNCNCNvXs4_NtNtCsilPUL3AyWrc_8cuenv_ci8executor6remoteNtB9_18RemoteCacheBackendNtNtBb_7backend12CacheBackend5check00Bd_
FNDA:0,_RNCNCNvXs4_NtNtCsilPUL3AyWrc_8cuenv_ci8executor6remoteNtB9_18RemoteCacheBackendNtNtBb_7backend12CacheBackend5store00Bd_
FNDA:0,_RNCNCNvXs4_NtNtCsilPUL3AyWrc_8cuenv_ci8executor6remoteNtB9_18RemoteCacheBackendNtNtBb_7backend12CacheBackend5store0s_0Bd_
FNDA:0,_RNCNCNvXs4_NtNtCsilPUL3AyWrc_8cuenv_ci8executor6remoteNtB9_18RemoteCacheBackendNtNtBb_7backend12CacheBackend8get_logs00Bd_
FNDA:0,_RNCNCNvXs4_NtNtCsilPUL3AyWrc_8cuenv_ci8executor6remoteNtB9_18RemoteCacheBackendNtNtBb_7backend12CacheBackend8get_logs0s0_0Bd_
FNDA:0,_RNCNCNvXs4_NtNtCsilPUL3AyWrc_8cuenv_ci8executor6remoteNtB9_18RemoteCacheBackendNtNtBb_7backend12CacheBackend8get_logs0s_0Bd_
FNDA:0,_RNCNvMs0_NtNtCsilPUL3AyWrc_8cuenv_ci8executor6remoteNtB7_18RemoteCacheBackend10cas_client0Bb_
FNDA:0,_RNCNvMs0_NtNtCsilPUL3AyWrc_8cuenv_ci8executor6remoteNtB7_18RemoteCacheBackend11get_channel0Bb_
FNDA:0,_RNCNvMs0_NtNtCsilPUL3AyWrc_8cuenv_ci8executor6remoteNtB7_18RemoteCacheBackend12upload_blobs0Bb_
FNDA:0,_RNCNvMs0_NtNtCsilPUL3AyWrc_8cuenv_ci8executor6remoteNtB7_18RemoteCacheBackend14download_blobs0Bb_
FNDA:0,_RNCNvMs0_NtNtCsilPUL3AyWrc_8cuenv_ci8executor6remoteNtB7_18RemoteCacheBackend14retry_cas_read0Bb_
FNDA:0,_RNCNvMs0_NtNtCsilPUL3AyWrc_8cuenv_ci8executor6remoteNtB7_18RemoteCacheBackend19action_cache_client0Bb_
FNDA:0,_RNCNvMs0_NtNtCsilPUL3AyWrc_8cuenv_ci8executor6remoteNtB7_18RemoteCacheBackend22retry_action_cache_get0Bb_
FNDA:0,_RNCNvMs0_NtNtCsilPUL3AyWrc_8cuenv_ci8executor6remoteNtB7_18RemoteCacheBackend7connect0Bb_
FNDA:0,_RNvMs0_NtNtCsilPUL3AyWrc_8cuenv_ci8executor6remoteNtB5_18RemoteCacheBackend10cas_client
FNDA:0,_RNvMs0_NtNtCsilPUL3AyWrc_8cuenv_ci8executor6remoteNtB5_18RemoteCacheBackend11get_channel
FNDA:0,_RNvMs0_NtNtCsilPUL3AyWrc_8cuenv_ci8executor6remoteNtB5_18RemoteCacheBackend12upload_blobs
FNDA:0,_RNvMs0_NtNtCsilPUL3AyWrc_8cuenv_ci8executor6remoteNtB5_18RemoteCacheBackend14download_blobs
FNDA:0,_RNvMs0_NtNtCsilPUL3AyWrc_8cuenv_ci8executor6remoteNtB5_18RemoteCacheBackend14retry_cas_read
FNDA:0,_RNvMs0_NtNtCsilPUL3AyWrc_8cuenv_ci8executor6remoteNtB5_18RemoteCacheBackend19action_cache_client
FNDA:0,_RNvMs0_NtNtCsilPUL3AyWrc_8cuenv_ci8executor6remoteNtB5_18RemoteCacheBackend22retry_action_cache_get
FNDA:0,_RNvMs0_NtNtCsilPUL3AyWrc_8cuenv_ci8executor6remoteNtB5_18RemoteCacheBackend7connect
FNDA:0,_RNvXs4_NtNtCsilPUL3AyWrc_8cuenv_ci8executor6remoteNtB5_18RemoteCacheBackendNtNtB7_7backend12CacheBackend12health_check
FNDA:0,_RNvXs4_NtNtCsilPUL3AyWrc_8cuenv_ci8executor6remoteNtB5_18RemoteCacheBackendNtNtB7_7backend12CacheBackend15restore_outputs
FNDA:0,_RNvXs4_NtNtCsilPUL3AyWrc_8cuenv_ci8executor6remoteNtB5_18RemoteCacheBackendNtNtB7_7backend12CacheBackend5check
FNDA:0,_RNvXs4_NtNtCsilPUL3AyWrc_8cuenv_ci8executor6remoteNtB5_18RemoteCacheBackendNtNtB7_7backend12CacheBackend5store
FNDA:0,_RNvXs4_NtNtCsilPUL3AyWrc_8cuenv_ci8executor6remoteNtB5_18RemoteCacheBackendNtNtB7_7backend12CacheBackend8get_logs
FNDA:1,_RNvNtNtNtCsilPUL3AyWrc_8cuenv_ci8executor6remote5testss_17test_is_retryable
FNDA:1,_RNvNtNtNtCsilPUL3AyWrc_8cuenv_ci8executor6remote5testss_19test_compute_digest
FNDA:1,_RNvNtNtNtCsilPUL3AyWrc_8cuenv_ci8executor6remote5testss_19test_config_default
FNDA:1,_RNvNtNtNtCsilPUL3AyWrc_8cuenv_ci8executor6remote5testss_19test_create_backoff
FNDA:1,_RNvNtNtNtCsilPUL3AyWrc_8cuenv_ci8executor6remote5testss_20test_to_bazel_digest
FNDA:1,_RNvNtNtNtCsilPUL3AyWrc_8cuenv_ci8executor6remote5testss_25test_compute_digest_empty
FNDA:1,_RNvNtNtNtCsilPUL3AyWrc_8cuenv_ci8executor6remote5testss_26test_config_from_env_empty
FNDA:1,_RNvNtNtNtCsilPUL3AyWrc_8cuenv_ci8executor6remote5testss_29test_config_from_env_with_url
FNDA:1,_RNvNtNtNtCsilPUL3AyWrc_8cuenv_ci8executor6remote5testss_29test_remote_cache_backend_new
FNDA:1,_RNvNtNtNtCsilPUL3AyWrc_8cuenv_ci8executor6remote5testss_30test_config_from_env_empty_url
FNDA:1,_RNvNtNtNtCsilPUL3AyWrc_8cuenv_ci8executor6remote5testss_31test_config_from_env_tls_values
FNDA:1,_RNvNtNtNtCsilPUL3AyWrc_8cuenv_ci8executor6remote5testss_31test_remote_cache_backend_debug
FNDA:1,_RNvNtNtNtCsilPUL3AyWrc_8cuenv_ci8executor6remote5testss_33test_compute_digest_deterministic
FNDA:1,_RNvNtNtNtCsilPUL3AyWrc_8cuenv_ci8executor6remote5testss_39test_remote_cache_backend_from_env_none
FNDA:4,_RNvMs0_NtNtCsilPUL3AyWrc_8cuenv_ci8executor6remoteNtB5_18RemoteCacheBackend14compute_digest
FNDA:1,_RNvMs0_NtNtCsilPUL3AyWrc_8cuenv_ci8executor6remoteNtB5_18RemoteCacheBackend14create_backoff
FNDA:2,_RNvMs0_NtNtCsilPUL3AyWrc_8cuenv_ci8executor6remoteNtB5_18RemoteCacheBackend15to_bazel_digest
FNDA:2,_RNvMs0_NtNtCsilPUL3AyWrc_8cuenv_ci8executor6remoteNtB5_18RemoteCacheBackend3new
FNDA:1,_RNvMs0_NtNtCsilPUL3AyWrc_8cuenv_ci8executor6remoteNtB5_18RemoteCacheBackend8from_env
FNDA:6,_RNvMs_NtNtCsilPUL3AyWrc_8cuenv_ci8executor6remoteNtB4_17RemoteCacheConfig8from_env
FNDA:9,_RNvNtNtCsilPUL3AyWrc_8cuenv_ci8executor6remote12is_retryable
FNDA:6,_RNvXNtNtCsilPUL3AyWrc_8cuenv_ci8executor6remoteNtB2_17RemoteCacheConfigNtNtCskzPJi2J8k3N_4core7default7Default7default
FNDA:1,_RNvXs1_NtNtCsilPUL3AyWrc_8cuenv_ci8executor6remoteNtB5_18RemoteCacheBackendNtNtCskzPJi2J8k3N_4core3fmt5Debug3fmt
FNDA:1,_RNvXs4_NtNtCsilPUL3AyWrc_8cuenv_ci8executor6remoteNtB5_18RemoteCacheBackendNtNtB7_7backend12CacheBackend4name
FNDA:1,_RNCNvNtNtNtCsilPUL3AyWrc_8cuenv_ci8executor6remote5testss_26test_config_from_env_empty0B9_
FNDA:1,_RNCNvNtNtNtCsilPUL3AyWrc_8cuenv_ci8executor6remote5testss_29test_config_from_env_with_url0B9_
FNDA:1,_RNCNvNtNtNtCsilPUL3AyWrc_8cuenv_ci8executor6remote5testss_30test_config_from_env_empty_url0B9_
FNDA:1,_RNCNvNtNtNtCsilPUL3AyWrc_8cuenv_ci8executor6remote5testss_31test_config_from_env_tls_values0B9_
FNDA:1,_RNCNvNtNtNtCsilPUL3AyWrc_8cuenv_ci8executor6remote5testss_31test_config_from_env_tls_valuess_0B9_
FNDA:1,_RNCNvNtNtNtCsilPUL3AyWrc_8cuenv_ci8executor6remote5testss_39test_remote_cache_backend_from_env_none0B9_
FNF:76
FNH:31
DA:51,6
DA:52,6
DA:53,6
DA:54,6
DA:55,6
DA:56,6
DA:57,6
DA:58,6
DA:59,6
DA:60,6
DA:61,6
DA:73,6
DA:74,6
DA:75,4
DA:76,1
DA:77,3
DA:80,3
DA:81,3
DA:82,3
DA:83,3
DA:84,3
DA:85,3
DA:86,3
DA:88,6
DA:100,2
DA:101,2
DA:102,2
DA:103,2
DA:104,2
DA:105,2
DA:111,1
DA:112,1
DA:113,1
DA:116,0
DA:119,0
DA:120,0
DA:121,0
DA:122,0
DA:126,0
DA:130,0
DA:131,0
DA:134,0
DA:135,0
DA:138,0
DA:139,0
DA:141,0
DA:142,0
DA:143,0
DA:144,0
DA:146,0
DA:147,0
DA:148,0
DA:149,0
DA:150,0
DA:151,0
DA:152,0
DA:153,0
DA:154,0
DA:155,0
DA:156,0
DA:157,0
DA:158,0
DA:160,0
DA:161,0
DA:162,0
DA:163,0
DA:164,0
DA:167,0
DA:168,0
DA:169,0
DA:170,0
DA:173,0
DA:174,0
DA:175,0
DA:176,0
DA:179,2
DA:180,2
DA:181,2
DA:182,2
DA:183,2
DA:184,2
DA:185,2
DA:188,4
DA:189,4
DA:190,4
DA:191,4
DA:192,4
DA:193,4
DA:194,4
DA:195,4
DA:196,4
DA:197,4
DA:200,0
DA:201,0
DA:202,0
DA:203,0
DA:205,0
DA:206,0
DA:207,0
DA:208,0
DA:209,0
DA:211,0
DA:212,0
DA:214,0
DA:215,0
DA:216,0
DA:217,0
DA:218,0
DA:220,0
DA:221,0
DA:222,0
DA:223,0
DA:224,0
DA:226,0
DA:227,0
DA:230,0
DA:231,0
DA:232,0
DA:233,0
DA:234,0
DA:235,0
DA:236,0
DA:238,0
DA:239,0
DA:240,0
DA:241,0
DA:242,0
DA:243,0
DA:245,0
DA:247,0
DA:248,0
DA:249,0
DA:250,0
DA:251,0
DA:254,0
DA:255,0
DA:258,0
DA:259,0
DA:260,0
DA:261,0
DA:262,0
DA:263,0
DA:264,0
DA:266,0
DA:267,0
DA:269,0
DA:270,0
DA:271,0
DA:272,0
DA:274,0
DA:275,0
DA:276,0
DA:277,0
DA:278,0
DA:279,0
DA:280,0
DA:286,0
DA:287,0
DA:288,0
DA:290,0
DA:293,0
DA:294,0
DA:295,0
DA:296,0
DA:297,0
DA:298,0
DA:300,0
DA:301,0
DA:303,0
DA:304,0
DA:305,0
DA:306,0
DA:308,0
DA:309,0
DA:310,0
DA:311,0
DA:312,0
DA:313,0
DA:314,0
DA:320,0
DA:321,0
DA:322,0
DA:324,0
DA:327,0
DA:328,0
DA:329,0
DA:330,0
DA:331,0
DA:332,0
DA:333,0
DA:335,0
DA:336,0
DA:338,0
DA:339,0
DA:340,0
DA:341,0
DA:342,0
DA:343,0
DA:344,0
DA:345,0
DA:346,0
DA:348,0
DA:349,0
DA:350,0
DA:351,0
DA:352,0
DA:353,0
DA:354,0
DA:360,0
DA:361,0
DA:362,0
DA:364,0
DA:368,1
DA:369,1
DA:370,1
DA:371,1
DA:372,1
DA:373,1
DA:374,1
DA:375,1
DA:376,1
DA:386,0
DA:421,0
DA:422,0
DA:423,0
DA:424,0
DA:425,0
DA:426,0
DA:427,0
DA:428,0
DA:455,0
DA:463,0
DA:490,0
DA:491,0
DA:492,0
DA:493,0
DA:494,0
DA:495,0
DA:497,0
DA:498,0
DA:499,0
DA:500,0
DA:501,0
DA:502,0
DA:562,0
DA:569,0
DA:585,0
DA:593,0
DA:617,0
DA:650,0
DA:656,0
DA:672,0
DA:683,0
DA:694,0
DA:700,0
DA:702,1
DA:703,1
DA:704,1
DA:706,0
DA:710,0
DA:714,9
DA:715,4
DA:716,9
DA:723,9
DA:728,1
DA:729,1
DA:730,1
DA:731,1
DA:732,1
DA:740,1
DA:741,1
DA:742,1
DA:743,1
DA:744,1
DA:745,1
DA:748,1
DA:749,1
DA:750,1
DA:751,1
DA:752,1
DA:753,1
DA:754,1
DA:755,1
DA:756,1
DA:757,1
DA:758,1
DA:759,1
DA:760,1
DA:761,1
DA:762,1
DA:764,1
DA:767,1
DA:769,1
DA:770,1
DA:771,1
DA:772,1
DA:773,1
DA:774,1
DA:775,1
DA:776,1
DA:777,1
DA:781,1
DA:782,1
DA:783,1
DA:784,1
DA:785,1
DA:786,1
DA:787,1
DA:788,1
DA:789,1
DA:791,1
DA:794,1
DA:795,1
DA:796,1
DA:797,1
DA:798,1
DA:799,1
DA:802,1
DA:803,1
DA:804,1
DA:805,1
DA:806,1
DA:807,1
DA:808,1
DA:809,1
DA:810,1
DA:811,1
DA:814,1
DA:815,1
DA:816,1
DA:818,1
DA:819,1
DA:820,1
DA:823,1
DA:824,1
DA:825,1
DA:826,1
DA:827,1
DA:828,1
DA:831,1
DA:832,1
DA:833,1
DA:834,1
DA:835,1
DA:836,1
DA:839,1
DA:840,1
DA:841,1
DA:842,1
DA:843,1
DA:844,1
DA:845,1
DA:848,1
DA:849,1
DA:850,1
DA:851,1
DA:852,1
DA:853,1
DA:854,1
DA:855,1
DA:856,1
DA:857,1
DA:858,1
DA:861,1
DA:862,1
DA:863,1
DA:864,1
DA:865,1
DA:866,1
DA:867,1
DA:868,1
DA:869,1
DA:872,1
DA:873,1
DA:874,1
DA:875,1
DA:876,1
DA:877,1
DA:880,1
DA:881,1
DA:882,1
DA:883,1
DA:884,1
DA:885,1
DA:886,1
DA:887,1
DA:888,1
DA:889,1
DA:890,1
DA:893,1
DA:894,1
DA:895,1
DA:896,1
DA:897,1
DA:898,1
DA:899,1
BRF:0
BRH:0
LF:414
LH:202
end_of_record
SF:/Users/rawkode/Code/src/github.com/cuenv/cuenv/crates/ci/src/executor/runner.rs
FN:115,_RINvMs_NtNtCskfEctF1MPvy_8cuenv_ci8executor6runnerNtB5_12IRTaskRunner10with_shellpEB9_
FN:207,_RNCNCNCNvMs_NtNtCskfEctF1MPvy_8cuenv_ci8executor6runnerNtBa_12IRTaskRunner7execute000Be_
FN:144,_RNCNvMs_NtNtCskfEctF1MPvy_8cuenv_ci8executor6runnerNtB6_12IRTaskRunner7execute0Ba_
FN:62,_RNvMNtNtCskfEctF1MPvy_8cuenv_ci8executor6runnerNtB2_10TaskOutput10from_cache
FN:76,_RNvMNtNtCskfEctF1MPvy_8cuenv_ci8executor6runnerNtB2_10TaskOutput7dry_run
FN:105,_RNvMs_NtNtCskfEctF1MPvy_8cuenv_ci8executor6runnerNtB4_12IRTaskRunner3new
FN:140,_RNvMs_NtNtCskfEctF1MPvy_8cuenv_ci8executor6runnerNtB4_12IRTaskRunner7execute
FN:62,_RNvMNtNtCsilPUL3AyWrc_8cuenv_ci8executor6runnerNtB2_10TaskOutput10from_cache
FN:76,_RNvMNtNtCsilPUL3AyWrc_8cuenv_ci8executor6runnerNtB2_10TaskOutput7dry_run
FN:105,_RNvMs_NtNtCsilPUL3AyWrc_8cuenv_ci8executor6runnerNtB4_12IRTaskRunner3new
FN:140,_RNvMs_NtNtCsilPUL3AyWrc_8cuenv_ci8executor6runnerNtB4_12IRTaskRunner7execute
FN:243,_RNvNtNtNtCsilPUL3AyWrc_8cuenv_ci8executor6runner5tests9make_task
FN:280,_RNvNtNtNtCsilPUL3AyWrc_8cuenv_ci8executor6runner5testss_15test_shell_mode
FN:345,_RNvNtNtNtCsilPUL3AyWrc_8cuenv_ci8executor6runner5testss_17test_custom_shell
FN:328,_RNvNtNtNtCsilPUL3AyWrc_8cuenv_ci8executor6runner5testss_18test_cached_output
FN:293,_RNvNtNtNtCsilPUL3AyWrc_8cuenv_ci8executor6runner5testss_18test_env_injection
FN:336,_RNvNtNtNtCsilPUL3AyWrc_8cuenv_ci8executor6runner5testss_19test_dry_run_output
FN:266,_RNvNtNtNtCsilPUL3AyWrc_8cuenv_ci8executor6runner5testss_19test_simple_command
FN:306,_RNvNtNtNtCsilPUL3AyWrc_8cuenv_ci8executor6runner5testss_20test_failing_command
FN:318,_RNvNtNtNtCsilPUL3AyWrc_8cuenv_ci8executor6runner5testss_24test_empty_command_error
FN:358,_RNvNtNtNtCsilPUL3AyWrc_8cuenv_ci8executor6runner5testss_25test_runner_default_shell
FN:247,_RNCNvNtNtNtCsilPUL3AyWrc_8cuenv_ci8executor6runner5tests9make_task0B9_
FN:280,_RNCNvNtNtNtCsilPUL3AyWrc_8cuenv_ci8executor6runner5testss_15test_shell_mode0B9_
FN:345,_RNCNvNtNtNtCsilPUL3AyWrc_8cuenv_ci8executor6runner5testss_17test_custom_shell0B9_
FN:293,_RNCNvNtNtNtCsilPUL3AyWrc_8cuenv_ci8executor6runner5testss_18test_env_injection0B9_
FN:266,_RNCNvNtNtNtCsilPUL3AyWrc_8cuenv_ci8executor6runner5testss_19test_simple_command0B9_
FN:306,_RNCNvNtNtNtCsilPUL3AyWrc_8cuenv_ci8executor6runner5testss_20test_failing_command0B9_
FN:318,_RNCNvNtNtNtCsilPUL3AyWrc_8cuenv_ci8executor6runner5testss_24test_empty_command_error0B9_
FN:115,_RINvMs_NtNtCsilPUL3AyWrc_8cuenv_ci8executor6runnerNtB5_12IRTaskRunner10with_shellReEB9_
FN:207,_RNCNCNCNvMs_NtNtCsilPUL3AyWrc_8cuenv_ci8executor6runnerNtBa_12IRTaskRunner7execute000Be_
FN:144,_RNCNvMs_NtNtCsilPUL3AyWrc_8cuenv_ci8executor6runnerNtB6_12IRTaskRunner7execute0Ba_
FNDA:0,_RINvMs_NtNtCskfEctF1MPvy_8cuenv_ci8executor6runnerNtB5_12IRTaskRunner10with_shellpEB9_
FNDA:0,_RNCNCNCNvMs_NtNtCskfEctF1MPvy_8cuenv_ci8executor6runnerNtBa_12IRTaskRunner7execute000Be_
FNDA:0,_RNCNvMs_NtNtCskfEctF1MPvy_8cuenv_ci8executor6runnerNtB6_12IRTaskRunner7execute0Ba_
FNDA:0,_RNvMNtNtCskfEctF1MPvy_8cuenv_ci8executor6runnerNtB2_10TaskOutput10from_cache
FNDA:0,_RNvMNtNtCskfEctF1MPvy_8cuenv_ci8executor6runnerNtB2_10TaskOutput7dry_run
FNDA:0,_RNvMs_NtNtCskfEctF1MPvy_8cuenv_ci8executor6runnerNtB4_12IRTaskRunner3new
FNDA:0,_RNvMs_NtNtCskfEctF1MPvy_8cuenv_ci8executor6runnerNtB4_12IRTaskRunner7execute
FNDA:2,_RNvMNtNtCsilPUL3AyWrc_8cuenv_ci8executor6runnerNtB2_10TaskOutput10from_cache
FNDA:3,_RNvMNtNtCsilPUL3AyWrc_8cuenv_ci8executor6runnerNtB2_10TaskOutput7dry_run
FNDA:6,_RNvMs_NtNtCsilPUL3AyWrc_8cuenv_ci8executor6runnerNtB4_12IRTaskRunner3new
FNDA:5,_RNvMs_NtNtCsilPUL3AyWrc_8cuenv_ci8executor6runnerNtB4_12IRTaskRunner7execute
FNDA:5,_RNvNtNtNtCsilPUL3AyWrc_8cuenv_ci8executor6runner5tests9make_task
FNDA:1,_RNvNtNtNtCsilPUL3AyWrc_8cuenv_ci8executor6runner5testss_15test_shell_mode
FNDA:0,_RNvNtNtNtCsilPUL3AyWrc_8cuenv_ci8executor6runner5testss_17test_custom_shell
FNDA:1,_RNvNtNtNtCsilPUL3AyWrc_8cuenv_ci8executor6runner5testss_18test_cached_output
FNDA:1,_RNvNtNtNtCsilPUL3AyWrc_8cuenv_ci8executor6runner5testss_18test_env_injection
FNDA:1,_RNvNtNtNtCsilPUL3AyWrc_8cuenv_ci8executor6runner5testss_19test_dry_run_output
FNDA:1,_RNvNtNtNtCsilPUL3AyWrc_8cuenv_ci8executor6runner5testss_19test_simple_command
FNDA:1,_RNvNtNtNtCsilPUL3AyWrc_8cuenv_ci8executor6runner5testss_20test_failing_command
FNDA:1,_RNvNtNtNtCsilPUL3AyWrc_8cuenv_ci8executor6runner5testss_24test_empty_command_error
FNDA:1,_RNvNtNtNtCsilPUL3AyWrc_8cuenv_ci8executor6runner5testss_25test_runner_default_shell
FNDA:10,_RNCNvNtNtNtCsilPUL3AyWrc_8cuenv_ci8executor6runner5tests9make_task0B9_
FNDA:1,_RNCNvNtNtNtCsilPUL3AyWrc_8cuenv_ci8executor6runner5testss_15test_shell_mode0B9_
FNDA:0,_RNCNvNtNtNtCsilPUL3AyWrc_8cuenv_ci8executor6runner5testss_17test_custom_shell0B9_
FNDA:1,_RNCNvNtNtNtCsilPUL3AyWrc_8cuenv_ci8executor6runner5testss_18test_env_injection0B9_
FNDA:1,_RNCNvNtNtNtCsilPUL3AyWrc_8cuenv_ci8executor6runner5testss_19test_simple_command0B9_
FNDA:1,_RNCNvNtNtNtCsilPUL3AyWrc_8cuenv_ci8executor6runner5testss_20test_failing_command0B9_
FNDA:1,_RNCNvNtNtNtCsilPUL3AyWrc_8cuenv_ci8executor6runner5testss_24test_empty_command_error0B9_
FNDA:0,_RINvMs_NtNtCsilPUL3AyWrc_8cuenv_ci8executor6runnerNtB5_12IRTaskRunner10with_shellReEB9_
FNDA:0,_RNCNCNCNvMs_NtNtCsilPUL3AyWrc_8cuenv_ci8executor6runnerNtBa_12IRTaskRunner7execute000Be_
FNDA:5,_RNCNvMs_NtNtCsilPUL3AyWrc_8cuenv_ci8executor6runnerNtB6_12IRTaskRunner7execute0Ba_
FNF:24
FNH:20
DA:62,2
DA:63,2
DA:64,2
DA:65,2
DA:66,2
DA:67,2
DA:68,2
DA:69,2
DA:70,2
DA:71,2
DA:72,2
DA:76,3
DA:77,3
DA:78,3
DA:79,3
DA:80,3
DA:81,3
DA:82,3
DA:83,3
DA:84,3
DA:85,3
DA:86,3
DA:105,6
DA:106,6
DA:107,6
DA:108,6
DA:109,6
DA:110,6
DA:111,6
DA:115,0
DA:116,0
DA:117,0
DA:118,0
DA:119,0
DA:120,0
DA:121,0
DA:122,0
DA:123,0
DA:124,0
DA:125,0
DA:140,5
DA:141,5
DA:142,5
DA:143,5
DA:144,5
DA:207,0
DA:208,0
DA:209,0
DA:233,5
DA:243,5
DA:245,5
DA:246,5
DA:247,10
DA:248,5
DA:249,5
DA:250,5
DA:251,5
DA:252,5
DA:253,5
DA:254,5
DA:255,5
DA:256,5
DA:259,5
DA:260,5
DA:261,5
DA:263,5
DA:266,1
DA:267,1
DA:268,1
DA:269,1
DA:271,1
DA:273,1
DA:274,1
DA:275,1
DA:276,1
DA:277,1
DA:280,1
DA:281,1
DA:282,1
DA:283,1
DA:285,1
DA:287,1
DA:288,1
DA:289,1
DA:290,1
DA:293,1
DA:294,1
DA:295,1
DA:296,1
DA:298,1
DA:299,1
DA:301,1
DA:302,1
DA:303,1
DA:306,1
DA:307,1
DA:308,1
DA:309,1
DA:311,1
DA:313,1
DA:314,1
DA:315,1
DA:318,1
DA:319,1
DA:320,1
DA:321,1
DA:323,1
DA:324,1
DA:325,1
DA:328,1
DA:329,1
DA:330,1
DA:331,1
DA:332,1
DA:333,1
DA:336,1
DA:337,1
DA:338,1
DA:339,1
DA:340,1
DA:341,1
DA:345,0
DA:346,0
DA:348,0
DA:349,0
DA:351,0
DA:354,0
DA:355,0
DA:358,1
DA:359,1
DA:360,1
DA:361,1
DA:362,1
BRF:0
BRH:0
LF:147
LH:124
end_of_record
SF:/Users/rawkode/Code/src/github.com/cuenv/cuenv/crates/ci/src/executor/secrets.rs
FN:122,_RINvMs1_NtNtCskfEctF1MPvy_8cuenv_ci8executor7secretsNtB6_17CIResolvedSecrets21resolve_with_resolverNtB6_17EnvSecretResolverEBa_
FN:38,_RNCNvXNtNtCskfEctF1MPvy_8cuenv_ci8executor7secretsNtB4_17EnvSecretResolverNtB4_14SecretResolver7resolve0B8_
FN:71,_RNCNvXs0_NtNtCskfEctF1MPvy_8cuenv_ci8executor7secretsNtB7_18MockSecretResolverNtB7_14SecretResolver7resolve0Bb_
FN:59,_RINvMs_NtNtCskfEctF1MPvy_8cuenv_ci8executor7secretsNtB5_18MockSecretResolver11with_secretppEB9_
FN:190,_RNvMs1_NtNtCskfEctF1MPvy_8cuenv_ci8executor7secretsNtB5_17CIResolvedSecrets12fingerprints
FN:196,_RNvMs1_NtNtCskfEctF1MPvy_8cuenv_ci8executor7secretsNtB5_17CIResolvedSecrets19fingerprint_matches
FN:106,_RNvMs1_NtNtCskfEctF1MPvy_8cuenv_ci8executor7secretsNtB5_17CIResolvedSecrets25from_env_with_salt_config
FN:208,_RNvMs1_NtNtCskfEctF1MPvy_8cuenv_ci8executor7secretsNtB5_17CIResolvedSecrets35compute_fingerprints_for_validation
FN:178,_RNvMs1_NtNtCskfEctF1MPvy_8cuenv_ci8executor7secretsNtB5_17CIResolvedSecrets3get
FN:184,_RNvMs1_NtNtCskfEctF1MPvy_8cuenv_ci8executor7secretsNtB5_17CIResolvedSecrets6values
FN:93,_RNvMs1_NtNtCskfEctF1MPvy_8cuenv_ci8executor7secretsNtB5_17CIResolvedSecrets8from_env
FN:172,_RNvMs1_NtNtCskfEctF1MPvy_8cuenv_ci8executor7secretsNtB5_17CIResolvedSecrets8is_empty
FN:53,_RNvMs_NtNtCskfEctF1MPvy_8cuenv_ci8executor7secretsNtB4_18MockSecretResolver3new
FN:233,_RNvNtNtCskfEctF1MPvy_8cuenv_ci8executor7secrets24resolve_all_task_secrets
FN:36,_RNvXNtNtCskfEctF1MPvy_8cuenv_ci8executor7secretsNtB2_17EnvSecretResolverNtB2_14SecretResolver7resolve
FN:66,_RNvXs0_NtNtCskfEctF1MPvy_8cuenv_ci8executor7secretsNtB5_18MockSecretResolverNtB5_14SecretResolver7resolve
FN:221,_RNvXs2_NtNtCskfEctF1MPvy_8cuenv_ci8executor7secretsNtB5_17CIResolvedSecretsNtNtNtCskzPJi2J8k3N_4core3ops5deref5Deref5deref
FN:208,_RNvMs1_NtNtCsilPUL3AyWrc_8cuenv_ci8executor7secretsNtB5_17CIResolvedSecrets35compute_fingerprints_for_validation
FN:178,_RNvMs1_NtNtCsilPUL3AyWrc_8cuenv_ci8executor7secretsNtB5_17CIResolvedSecrets3get
FN:172,_RNvMs1_NtNtCsilPUL3AyWrc_8cuenv_ci8executor7secretsNtB5_17CIResolvedSecrets8is_empty
FN:233,_RNvNtNtCsilPUL3AyWrc_8cuenv_ci8executor7secrets24resolve_all_task_secrets
FN:221,_RNvXs2_NtNtCsilPUL3AyWrc_8cuenv_ci8executor7secretsNtB5_17CIResolvedSecretsNtNtNtCskzPJi2J8k3N_4core3ops5deref5Deref5deref
FN:190,_RNvMs1_NtNtCsilPUL3AyWrc_8cuenv_ci8executor7secretsNtB5_17CIResolvedSecrets12fingerprints
FN:196,_RNvMs1_NtNtCsilPUL3AyWrc_8cuenv_ci8executor7secretsNtB5_17CIResolvedSecrets19fingerprint_matches
FN:106,_RNvMs1_NtNtCsilPUL3AyWrc_8cuenv_ci8executor7secretsNtB5_17CIResolvedSecrets25from_env_with_salt_config
FN:184,_RNvMs1_NtNtCsilPUL3AyWrc_8cuenv_ci8executor7secretsNtB5_17CIResolvedSecrets6values
FN:93,_RNvMs1_NtNtCsilPUL3AyWrc_8cuenv_ci8executor7secretsNtB5_17CIResolvedSecrets8from_env
FN:53,_RNvMs_NtNtCsilPUL3AyWrc_8cuenv_ci8executor7secretsNtB4_18MockSecretResolver3new
FN:36,_RNvXNtNtCsilPUL3AyWrc_8cuenv_ci8executor7secretsNtB2_17EnvSecretResolverNtB2_14SecretResolver7resolve
FN:66,_RNvXs0_NtNtCsilPUL3AyWrc_8cuenv_ci8executor7secretsNtB5_18MockSecretResolverNtB5_14SecretResolver7resolve
FN:253,_RNvNtNtNtCsilPUL3AyWrc_8cuenv_ci8executor7secrets5tests18make_secret_config
FN:409,_RNvNtNtNtCsilPUL3AyWrc_8cuenv_ci8executor7secrets5testss_18test_mock_resolver
FN:324,_RNvNtNtNtCsilPUL3AyWrc_8cuenv_ci8executor7secrets5testss_19test_missing_secret
FN:348,_RNvNtNtNtCsilPUL3AyWrc_8cuenv_ci8executor7secrets5testss_20test_salt_config_new
FN:289,_RNvNtNtNtCsilPUL3AyWrc_8cuenv_ci8executor7secrets5testss_21test_resolve_from_env
FN:261,_RNvNtNtNtCsilPUL3AyWrc_8cuenv_ci8executor7secrets5testss_30test_fingerprint_deterministic
FN:357,_RNvNtNtNtCsilPUL3AyWrc_8cuenv_ci8executor7secrets5testss_30test_salt_config_with_rotation
FN:335,_RNvNtNtNtCsilPUL3AyWrc_8cuenv_ci8executor7secrets5testss_32test_missing_salt_with_cache_key
FN:443,_RNvNtNtNtCsilPUL3AyWrc_8cuenv_ci8executor7secrets5testss_33test_mock_resolver_missing_secret
FN:282,_RNvNtNtNtCsilPUL3AyWrc_8cuenv_ci8executor7secrets5testss_34test_fingerprint_changes_with_name
FN:275,_RNvNtNtNtCsilPUL3AyWrc_8cuenv_ci8executor7secrets5testss_34test_fingerprint_changes_with_salt
FN:268,_RNvNtNtNtCsilPUL3AyWrc_8cuenv_ci8executor7secrets5testss_35test_fingerprint_changes_with_value
FN:367,_RNvNtNtNtCsilPUL3AyWrc_8cuenv_ci8executor7secrets5testss_37test_fingerprint_matches_current_salt
FN:388,_RNvNtNtNtCsilPUL3AyWrc_8cuenv_ci8executor7secrets5testss_38test_fingerprint_matches_previous_salt
FN:295,_RNCNvNtNtNtCsilPUL3AyWrc_8cuenv_ci8executor7secrets5testss_21test_resolve_from_env0B9_
FN:336,_RNCNvNtNtNtCsilPUL3AyWrc_8cuenv_ci8executor7secrets5testss_32test_missing_salt_with_cache_key0B9_
FN:368,_RNCNvNtNtNtCsilPUL3AyWrc_8cuenv_ci8executor7secrets5testss_37test_fingerprint_matches_current_salt0B9_
FN:389,_RNCNvNtNtNtCsilPUL3AyWrc_8cuenv_ci8executor7secrets5testss_38test_fingerprint_matches_previous_salt0B9_
FN:122,_RINvMs1_NtNtCsilPUL3AyWrc_8cuenv_ci8executor7secretsNtB6_17CIResolvedSecrets21resolve_with_resolverNtB6_17EnvSecretResolverEBa_
FN:122,_RINvMs1_NtNtCsilPUL3AyWrc_8cuenv_ci8executor7secretsNtB6_17CIResolvedSecrets21resolve_with_resolverNtB6_18MockSecretResolverEBa_
FN:59,_RINvMs_NtNtCsilPUL3AyWrc_8cuenv_ci8executor7secretsNtB5_18MockSecretResolver11with_secretReB1p_EB9_
FN:38,_RNCNvXNtNtCsilPUL3AyWrc_8cuenv_ci8executor7secretsNtB4_17EnvSecretResolverNtB4_14SecretResolver7resolve0B8_
FN:71,_RNCNvXs0_NtNtCsilPUL3AyWrc_8cuenv_ci8executor7secretsNtB7_18MockSecretResolverNtB7_14SecretResolver7resolve0Bb_
FNDA:0,_RINvMs1_NtNtCskfEctF1MPvy_8cuenv_ci8executor7secretsNtB6_17CIResolvedSecrets21resolve_with_resolverNtB6_17EnvSecretResolverEBa_
FNDA:0,_RNCNvXNtNtCskfEctF1MPvy_8cuenv_ci8executor7secretsNtB4_17EnvSecretResolverNtB4_14SecretResolver7resolve0B8_
FNDA:0,_RNCNvXs0_NtNtCskfEctF1MPvy_8cuenv_ci8executor7secretsNtB7_18MockSecretResolverNtB7_14SecretResolver7resolve0Bb_
FNDA:0,_RINvMs_NtNtCskfEctF1MPvy_8cuenv_ci8executor7secretsNtB5_18MockSecretResolver11with_secretppEB9_
FNDA:0,_RNvMs1_NtNtCskfEctF1MPvy_8cuenv_ci8executor7secretsNtB5_17CIResolvedSecrets12fingerprints
FNDA:0,_RNvMs1_NtNtCskfEctF1MPvy_8cuenv_ci8executor7secretsNtB5_17CIResolvedSecrets19fingerprint_matches
FNDA:0,_RNvMs1_NtNtCskfEctF1MPvy_8cuenv_ci8executor7secretsNtB5_17CIResolvedSecrets25from_env_with_salt_config
FNDA:0,_RNvMs1_NtNtCskfEctF1MPvy_8cuenv_ci8executor7secretsNtB5_17CIResolvedSecrets35compute_fingerprints_for_validation
FNDA:0,_RNvMs1_NtNtCskfEctF1MPvy_8cuenv_ci8executor7secretsNtB5_17CIResolvedSecrets3get
FNDA:0,_RNvMs1_NtNtCskfEctF1MPvy_8cuenv_ci8executor7secretsNtB5_17CIResolvedSecrets6values
FNDA:0,_RNvMs1_NtNtCskfEctF1MPvy_8cuenv_ci8executor7secretsNtB5_17CIResolvedSecrets8from_env
FNDA:0,_RNvMs1_NtNtCskfEctF1MPvy_8cuenv_ci8executor7secretsNtB5_17CIResolvedSecrets8is_empty
FNDA:0,_RNvMs_NtNtCskfEctF1MPvy_8cuenv_ci8executor7secretsNtB4_18MockSecretResolver3new
FNDA:0,_RNvNtNtCskfEctF1MPvy_8cuenv_ci8executor7secrets24resolve_all_task_secrets
FNDA:0,_RNvXNtNtCskfEctF1MPvy_8cuenv_ci8executor7secretsNtB2_17EnvSecretResolverNtB2_14SecretResolver7resolve
FNDA:0,_RNvXs0_NtNtCskfEctF1MPvy_8cuenv_ci8executor7secretsNtB5_18MockSecretResolverNtB5_14SecretResolver7resolve
FNDA:0,_RNvXs2_NtNtCskfEctF1MPvy_8cuenv_ci8executor7secretsNtB5_17CIResolvedSecretsNtNtNtCskzPJi2J8k3N_4core3ops5deref5Deref5deref
FNDA:0,_RNvMs1_NtNtCsilPUL3AyWrc_8cuenv_ci8executor7secretsNtB5_17CIResolvedSecrets35compute_fingerprints_for_validation
FNDA:0,_RNvMs1_NtNtCsilPUL3AyWrc_8cuenv_ci8executor7secretsNtB5_17CIResolvedSecrets3get
FNDA:0,_RNvMs1_NtNtCsilPUL3AyWrc_8cuenv_ci8executor7secretsNtB5_17CIResolvedSecrets8is_empty
FNDA:0,_RNvNtNtCsilPUL3AyWrc_8cuenv_ci8executor7secrets24resolve_all_task_secrets
FNDA:0,_RNvXs2_NtNtCsilPUL3AyWrc_8cuenv_ci8executor7secretsNtB5_17CIResolvedSecretsNtNtNtCskzPJi2J8k3N_4core3ops5deref5Deref5deref
FNDA:7,_RNvMs1_NtNtCsilPUL3AyWrc_8cuenv_ci8executor7secretsNtB5_17CIResolvedSecrets12fingerprints
FNDA:2,_RNvMs1_NtNtCsilPUL3AyWrc_8cuenv_ci8executor7secretsNtB5_17CIResolvedSecrets19fingerprint_matches
FNDA:8,_RNvMs1_NtNtCsilPUL3AyWrc_8cuenv_ci8executor7secretsNtB5_17CIResolvedSecrets25from_env_with_salt_config
FNDA:4,_RNvMs1_NtNtCsilPUL3AyWrc_8cuenv_ci8executor7secretsNtB5_17CIResolvedSecrets6values
FNDA:6,_RNvMs1_NtNtCsilPUL3AyWrc_8cuenv_ci8executor7secretsNtB5_17CIResolvedSecrets8from_env
FNDA:2,_RNvMs_NtNtCsilPUL3AyWrc_8cuenv_ci8executor7secretsNtB4_18MockSecretResolver3new
FNDA:8,_RNvXNtNtCsilPUL3AyWrc_8cuenv_ci8executor7secretsNtB2_17EnvSecretResolverNtB2_14SecretResolver7resolve
FNDA:3,_RNvXs0_NtNtCsilPUL3AyWrc_8cuenv_ci8executor7secretsNtB5_18MockSecretResolverNtB5_14SecretResolver7resolve
FNDA:9,_RNvNtNtNtCsilPUL3AyWrc_8cuenv_ci8executor7secrets5tests18make_secret_config
FNDA:1,_RNvNtNtNtCsilPUL3AyWrc_8cuenv_ci8executor7secrets5testss_18test_mock_resolver
FNDA:1,_RNvNtNtNtCsilPUL3AyWrc_8cuenv_ci8executor7secrets5testss_19test_missing_secret
FNDA:1,_RNvNtNtNtCsilPUL3AyWrc_8cuenv_ci8executor7secrets5testss_20test_salt_config_new
FNDA:1,_RNvNtNtNtCsilPUL3AyWrc_8cuenv_ci8executor7secrets5testss_21test_resolve_from_env
FNDA:1,_RNvNtNtNtCsilPUL3AyWrc_8cuenv_ci8executor7secrets5testss_30test_fingerprint_deterministic
FNDA:1,_RNvNtNtNtCsilPUL3AyWrc_8cuenv_ci8executor7secrets5testss_30test_salt_config_with_rotation
FNDA:1,_RNvNtNtNtCsilPUL3AyWrc_8cuenv_ci8executor7secrets5testss_32test_missing_salt_with_cache_key
FNDA:1,_RNvNtNtNtCsilPUL3AyWrc_8cuenv_ci8executor7secrets5testss_33test_mock_resolver_missing_secret
FNDA:1,_RNvNtNtNtCsilPUL3AyWrc_8cuenv_ci8executor7secrets5testss_34test_fingerprint_changes_with_name
FNDA:1,_RNvNtNtNtCsilPUL3AyWrc_8cuenv_ci8executor7secrets5testss_34test_fingerprint_changes_with_salt
FNDA:1,_RNvNtNtNtCsilPUL3AyWrc_8cuenv_ci8executor7secrets5testss_35test_fingerprint_changes_with_value
FNDA:1,_RNvNtNtNtCsilPUL3AyWrc_8cuenv_ci8executor7secrets5testss_37test_fingerprint_matches_current_salt
FNDA:1,_RNvNtNtNtCsilPUL3AyWrc_8cuenv_ci8executor7secrets5testss_38test_fingerprint_matches_previous_salt
FNDA:1,_RNCNvNtNtNtCsilPUL3AyWrc_8cuenv_ci8executor7secrets5testss_21test_resolve_from_env0B9_
FNDA:1,_RNCNvNtNtNtCsilPUL3AyWrc_8cuenv_ci8executor7secrets5testss_32test_missing_salt_with_cache_key0B9_
FNDA:1,_RNCNvNtNtNtCsilPUL3AyWrc_8cuenv_ci8executor7secrets5testss_37test_fingerprint_matches_current_salt0B9_
FNDA:1,_RNCNvNtNtNtCsilPUL3AyWrc_8cuenv_ci8executor7secrets5testss_38test_fingerprint_matches_previous_salt0B9_
FNDA:8,_RINvMs1_NtNtCsilPUL3AyWrc_8cuenv_ci8executor7secretsNtB6_17CIResolvedSecrets21resolve_with_resolverNtB6_17EnvSecretResolverEBa_
FNDA:2,_RINvMs1_NtNtCsilPUL3AyWrc_8cuenv_ci8executor7secretsNtB6_17CIResolvedSecrets21resolve_with_resolverNtB6_18MockSecretResolverEBa_
FNDA:2,_RINvMs_NtNtCsilPUL3AyWrc_8cuenv_ci8executor7secretsNtB5_18MockSecretResolver11with_secretReB1p_EB9_
FNDA:1,_RNCNvXNtNtCsilPUL3AyWrc_8cuenv_ci8executor7secretsNtB4_17EnvSecretResolverNtB4_14SecretResolver7resolve0B8_
FNDA:1,_RNCNvXs0_NtNtCsilPUL3AyWrc_8cuenv_ci8executor7secretsNtB7_18MockSecretResolverNtB7_14SecretResolver7resolve0Bb_
FNF:35
FNH:30
DA:36,8
DA:37,8
DA:38,1
DA:39,1
DA:40,1
DA:41,8
DA:53,2
DA:54,2
DA:55,2
DA:59,2
DA:60,2
DA:61,2
DA:62,2
DA:66,3
DA:67,3
DA:68,3
DA:69,3
DA:70,3
DA:71,1
DA:72,1
DA:73,1
DA:74,3
DA:93,6
DA:94,6
DA:95,6
DA:96,6
DA:97,6
DA:98,6
DA:99,6
DA:106,8
DA:107,8
DA:108,8
DA:109,8
DA:110,8
DA:111,8
DA:122,10
DA:123,10
DA:124,10
DA:125,10
DA:126,10
DA:127,10
DA:128,10
DA:131,10
DA:132,10
DA:133,1
DA:134,9
DA:136,18
DA:137,11
DA:140,9
DA:142,7
DA:143,0
DA:145,0
DA:146,0
DA:148,7
DA:151,7
DA:152,7
DA:153,7
DA:154,7
DA:156,7
DA:157,2
DA:159,9
DA:162,7
DA:163,7
DA:164,7
DA:165,7
DA:166,7
DA:167,7
DA:168,10
DA:172,0
DA:173,0
DA:174,0
DA:178,0
DA:179,0
DA:180,0
DA:184,4
DA:185,4
DA:186,4
DA:190,7
DA:191,7
DA:192,7
DA:196,2
DA:197,2
DA:198,2
DA:199,2
DA:200,2
DA:201,2
DA:202,2
DA:203,2
DA:204,2
DA:208,0
DA:209,0
DA:210,0
DA:211,0
DA:212,0
DA:213,0
DA:214,0
DA:215,0
DA:221,0
DA:222,0
DA:223,0
DA:233,0
DA:234,0
DA:235,0
DA:236,0
DA:237,0
DA:239,0
DA:240,0
DA:241,0
DA:242,0
DA:243,0
DA:246,0
DA:247,0
DA:253,9
DA:254,9
DA:255,9
DA:256,9
DA:257,9
DA:258,9
DA:261,1
DA:262,1
DA:263,1
DA:264,1
DA:265,1
DA:268,1
DA:269,1
DA:270,1
DA:271,1
DA:272,1
DA:275,1
DA:276,1
DA:277,1
DA:278,1
DA:279,1
DA:282,1
DA:283,1
DA:284,1
DA:285,1
DA:286,1
DA:289,1
DA:290,1
DA:291,1
DA:292,1
DA:293,1
DA:294,1
DA:295,1
DA:296,1
DA:297,1
DA:298,1
DA:299,1
DA:300,1
DA:301,1
DA:302,1
DA:303,1
DA:304,1
DA:305,1
DA:307,1
DA:309,1
DA:310,1
DA:311,1
DA:313,1
DA:314,1
DA:315,1
DA:317,1
DA:318,1
DA:319,1
DA:321,1
DA:324,1
DA:325,1
DA:326,1
DA:327,1
DA:328,1
DA:330,1
DA:331,1
DA:332,1
DA:335,1
DA:336,1
DA:337,1
DA:338,1
DA:339,1
DA:340,1
DA:342,1
DA:343,1
DA:344,1
DA:345,1
DA:348,1
DA:349,1
DA:350,1
DA:351,1
DA:352,1
DA:353,1
DA:354,1
DA:357,1
DA:358,1
DA:359,1
DA:360,1
DA:361,1
DA:362,1
DA:363,1
DA:364,1
DA:367,1
DA:368,1
DA:369,1
DA:370,1
DA:371,1
DA:372,1
DA:374,1
DA:375,1
DA:376,1
DA:379,1
DA:380,1
DA:382,1
DA:383,1
DA:384,1
DA:385,1
DA:388,1
DA:389,1
DA:390,1
DA:391,1
DA:392,1
DA:393,1
DA:395,1
DA:396,1
DA:397,1
DA:400,1
DA:401,1
DA:403,1
DA:404,1
DA:405,1
DA:406,1
DA:409,1
DA:410,1
DA:411,1
DA:412,1
DA:414,1
DA:415,1
DA:416,1
DA:417,1
DA:418,1
DA:419,1
DA:420,1
DA:421,1
DA:422,1
DA:423,1
DA:425,1
DA:426,1
DA:427,1
DA:428,1
DA:430,1
DA:431,1
DA:432,1
DA:434,1
DA:435,1
DA:436,1
DA:438,1
DA:439,1
DA:440,1
DA:443,1
DA:444,1
DA:446,1
DA:447,1
DA:448,1
DA:449,1
DA:451,1
DA:452,1
DA:453,1
DA:454,1
BRF:0
BRH:0
LF:269
LH:237
end_of_record
SF:/Users/rawkode/Code/src/github.com/cuenv/cuenv/crates/ci/src/flake/analyzer.rs
FN:142,_RNvMs_NtNtCskfEctF1MPvy_8cuenv_ci5flake8analyzerNtB4_17FlakeLockAnalyzer11check_input
FN:186,_RNvMs_NtNtCskfEctF1MPvy_8cuenv_ci5flake8analyzerNtB4_17FlakeLockAnalyzer16check_input_node
FN:234,_RNvMs_NtNtCskfEctF1MPvy_8cuenv_ci5flake8analyzerNtB4_17FlakeLockAnalyzer21compute_locked_digest
FN:79,_RNvMs_NtNtCskfEctF1MPvy_8cuenv_ci5flake8analyzerNtB4_17FlakeLockAnalyzer3new
FN:251,_RNvMs_NtNtCskfEctF1MPvy_8cuenv_ci5flake8analyzerNtB4_17FlakeLockAnalyzer4lock
FN:113,_RNvMs_NtNtCskfEctF1MPvy_8cuenv_ci5flake8analyzerNtB4_17FlakeLockAnalyzer7analyze
FN:87,_RNvMs_NtNtCskfEctF1MPvy_8cuenv_ci5flake8analyzerNtB4_17FlakeLockAnalyzer9from_json
FN:96,_RNvMs_NtNtCskfEctF1MPvy_8cuenv_ci5flake8analyzerNtB4_17FlakeLockAnalyzer9from_path
FN:59,_RNvXNtNtCskfEctF1MPvy_8cuenv_ci5flake8analyzerNtB2_12UnlockReasonNtNtCskzPJi2J8k3N_4core3fmt7Display3fmt
FN:88,_RNCNvMs_NtNtCskfEctF1MPvy_8cuenv_ci5flake8analyzerNtB6_17FlakeLockAnalyzer9from_json0Ba_
FN:102,_RNCNvMs_NtNtCskfEctF1MPvy_8cuenv_ci5flake8analyzerNtB6_17FlakeLockAnalyzer9from_path0Ba_
FN:393,_RNCNvNtNtNtCsilPUL3AyWrc_8cuenv_ci5flake8analyzer5testss_28test_follows_unlocked_target0B9_
FN:251,_RNvMs_NtNtCsilPUL3AyWrc_8cuenv_ci5flake8analyzerNtB4_17FlakeLockAnalyzer4lock
FN:397,_RNvNtNtNtCsilPUL3AyWrc_8cuenv_ci5flake8analyzer5testss_23test_digest_determinism
FN:261,_RNvNtNtNtCsilPUL3AyWrc_8cuenv_ci5flake8analyzer5testss_25test_analyze_minimal_pure
FN:333,_RNvNtNtNtCsilPUL3AyWrc_8cuenv_ci5flake8analyzer5testss_25test_fully_locked_is_pure
FN:454,_RNvNtNtNtCsilPUL3AyWrc_8cuenv_ci5flake8analyzer5testss_25test_malformed_json_error
FN:303,_RNvNtNtNtCsilPUL3AyWrc_8cuenv_ci5flake8analyzer5testss_28test_detect_missing_nar_hash
FN:361,_RNvNtNtNtCsilPUL3AyWrc_8cuenv_ci5flake8analyzer5testss_28test_follows_unlocked_target
FN:492,_RNvNtNtNtCsilPUL3AyWrc_8cuenv_ci5flake8analyzer5testss_28test_real_project_flake_lock
FN:460,_RNvNtNtNtCsilPUL3AyWrc_8cuenv_ci5flake8analyzer5testss_31test_multiple_inputs_all_locked
FN:278,_RNvNtNtNtCsilPUL3AyWrc_8cuenv_ci5flake8analyzer5testss_34test_detect_missing_locked_section
FN:424,_RNvNtNtNtCsilPUL3AyWrc_8cuenv_ci5flake8analyzer5testss_41test_digest_changes_with_different_hashes
FN:88,_RNCNvMs_NtNtCsilPUL3AyWrc_8cuenv_ci5flake8analyzerNtB6_17FlakeLockAnalyzer9from_json0Ba_
FN:102,_RNCNvMs_NtNtCsilPUL3AyWrc_8cuenv_ci5flake8analyzerNtB6_17FlakeLockAnalyzer9from_path0Ba_
FN:142,_RNvMs_NtNtCsilPUL3AyWrc_8cuenv_ci5flake8analyzerNtB4_17FlakeLockAnalyzer11check_input
FN:186,_RNvMs_NtNtCsilPUL3AyWrc_8cuenv_ci5flake8analyzerNtB4_17FlakeLockAnalyzer16check_input_node
FN:234,_RNvMs_NtNtCsilPUL3AyWrc_8cuenv_ci5flake8analyzerNtB4_17FlakeLockAnalyzer21compute_locked_digest
FN:79,_RNvMs_NtNtCsilPUL3AyWrc_8cuenv_ci5flake8analyzerNtB4_17FlakeLockAnalyzer3new
FN:113,_RNvMs_NtNtCsilPUL3AyWrc_8cuenv_ci5flake8analyzerNtB4_17FlakeLockAnalyzer7analyze
FN:87,_RNvMs_NtNtCsilPUL3AyWrc_8cuenv_ci5flake8analyzerNtB4_17FlakeLockAnalyzer9from_json
FN:96,_RNvMs_NtNtCsilPUL3AyWrc_8cuenv_ci5flake8analyzerNtB4_17FlakeLockAnalyzer9from_path
FN:59,_RNvXNtNtCsilPUL3AyWrc_8cuenv_ci5flake8analyzerNtB2_12UnlockReasonNtNtCskzPJi2J8k3N_4core3fmt7Display3fmt
FNDA:0,_RNvMs_NtNtCskfEctF1MPvy_8cuenv_ci5flake8analyzerNtB4_17FlakeLockAnalyzer11check_input
FNDA:0,_RNvMs_NtNtCskfEctF1MPvy_8cuenv_ci5flake8analyzerNtB4_17FlakeLockAnalyzer16check_input_node
FNDA:0,_RNvMs_NtNtCskfEctF1MPvy_8cuenv_ci5flake8analyzerNtB4_17FlakeLockAnalyzer21compute_locked_digest
FNDA:0,_RNvMs_NtNtCskfEctF1MPvy_8cuenv_ci5flake8analyzerNtB4_17FlakeLockAnalyzer3new
FNDA:0,_RNvMs_NtNtCskfEctF1MPvy_8cuenv_ci5flake8analyzerNtB4_17FlakeLockAnalyzer4lock
FNDA:0,_RNvMs_NtNtCskfEctF1MPvy_8cuenv_ci5flake8analyzerNtB4_17FlakeLockAnalyzer7analyze
FNDA:0,_RNvMs_NtNtCskfEctF1MPvy_8cuenv_ci5flake8analyzerNtB4_17FlakeLockAnalyzer9from_json
FNDA:0,_RNvMs_NtNtCskfEctF1MPvy_8cuenv_ci5flake8analyzerNtB4_17FlakeLockAnalyzer9from_path
FNDA:0,_RNvXNtNtCskfEctF1MPvy_8cuenv_ci5flake8analyzerNtB2_12UnlockReasonNtNtCskzPJi2J8k3N_4core3fmt7Display3fmt
FNDA:0,_RNCNvMs_NtNtCskfEctF1MPvy_8cuenv_ci5flake8analyzerNtB6_17FlakeLockAnalyzer9from_json0Ba_
FNDA:0,_RNCNvMs_NtNtCskfEctF1MPvy_8cuenv_ci5flake8analyzerNtB6_17FlakeLockAnalyzer9from_path0Ba_
FNDA:2,_RNCNvNtNtNtCsilPUL3AyWrc_8cuenv_ci5flake8analyzer5testss_28test_follows_unlocked_target0B9_
FNDA:0,_RNvMs_NtNtCsilPUL3AyWrc_8cuenv_ci5flake8analyzerNtB4_17FlakeLockAnalyzer4lock
FNDA:1,_RNvNtNtNtCsilPUL3AyWrc_8cuenv_ci5flake8analyzer5testss_23test_digest_determinism
FNDA:1,_RNvNtNtNtCsilPUL3AyWrc_8cuenv_ci5flake8analyzer5testss_25test_analyze_minimal_pure
FNDA:1,_RNvNtNtNtCsilPUL3AyWrc_8cuenv_ci5flake8analyzer5testss_25test_fully_locked_is_pure
FNDA:1,_RNvNtNtNtCsilPUL3AyWrc_8cuenv_ci5flake8analyzer5testss_25test_malformed_json_error
FNDA:1,_RNvNtNtNtCsilPUL3AyWrc_8cuenv_ci5flake8analyzer5testss_28test_detect_missing_nar_hash
FNDA:1,_RNvNtNtNtCsilPUL3AyWrc_8cuenv_ci5flake8analyzer5testss_28test_follows_unlocked_target
FNDA:1,_RNvNtNtNtCsilPUL3AyWrc_8cuenv_ci5flake8analyzer5testss_28test_real_project_flake_lock
FNDA:1,_RNvNtNtNtCsilPUL3AyWrc_8cuenv_ci5flake8analyzer5testss_31test_multiple_inputs_all_locked
FNDA:1,_RNvNtNtNtCsilPUL3AyWrc_8cuenv_ci5flake8analyzer5testss_34test_detect_missing_locked_section
FNDA:1,_RNvNtNtNtCsilPUL3AyWrc_8cuenv_ci5flake8analyzer5testss_41test_digest_changes_with_different_hashes
FNDA:1,_RNCNvMs_NtNtCsilPUL3AyWrc_8cuenv_ci5flake8analyzerNtB6_17FlakeLockAnalyzer9from_json0Ba_
FNDA:0,_RNCNvMs_NtNtCsilPUL3AyWrc_8cuenv_ci5flake8analyzerNtB6_17FlakeLockAnalyzer9from_path0Ba_
FNDA:34,_RNvMs_NtNtCsilPUL3AyWrc_8cuenv_ci5flake8analyzerNtB4_17FlakeLockAnalyzer11check_input
FNDA:31,_RNvMs_NtNtCsilPUL3AyWrc_8cuenv_ci5flake8analyzerNtB4_17FlakeLockAnalyzer16check_input_node
FNDA:19,_RNvMs_NtNtCsilPUL3AyWrc_8cuenv_ci5flake8analyzerNtB4_17FlakeLockAnalyzer21compute_locked_digest
FNDA:19,_RNvMs_NtNtCsilPUL3AyWrc_8cuenv_ci5flake8analyzerNtB4_17FlakeLockAnalyzer3new
FNDA:19,_RNvMs_NtNtCsilPUL3AyWrc_8cuenv_ci5flake8analyzerNtB4_17FlakeLockAnalyzer7analyze
FNDA:20,_RNvMs_NtNtCsilPUL3AyWrc_8cuenv_ci5flake8analyzerNtB4_17FlakeLockAnalyzer9from_json
FNDA:9,_RNvMs_NtNtCsilPUL3AyWrc_8cuenv_ci5flake8analyzerNtB4_17FlakeLockAnalyzer9from_path
FNDA:1,_RNvXNtNtCsilPUL3AyWrc_8cuenv_ci5flake8analyzerNtB2_12UnlockReasonNtNtCskzPJi2J8k3N_4core3fmt7Display3fmt
FNF:22
FNH:20
DA:59,1
DA:60,1
DA:61,1
DA:62,0
DA:63,0
DA:64,0
DA:65,0
DA:68,1
DA:79,19
DA:80,19
DA:81,19
DA:87,20
DA:88,20
DA:89,19
DA:90,20
DA:96,9
DA:97,9
DA:98,0
DA:99,9
DA:101,9
DA:102,9
DA:103,9
DA:104,9
DA:113,19
DA:114,19
DA:115,19
DA:116,19
DA:119,19
DA:120,50
DA:121,31
DA:122,31
DA:123,31
DA:124,31
DA:125,31
DA:126,31
DA:127,31
DA:128,31
DA:129,0
DA:132,19
DA:134,19
DA:135,19
DA:136,19
DA:137,19
DA:138,19
DA:139,19
DA:142,34
DA:143,34
DA:144,34
DA:145,34
DA:146,34
DA:147,34
DA:148,34
DA:149,34
DA:150,34
DA:151,31
DA:153,31
DA:154,0
DA:155,31
DA:156,31
DA:158,31
DA:160,31
DA:161,31
DA:162,31
DA:163,0
DA:165,3
DA:168,3
DA:169,3
DA:172,3
DA:173,1
DA:174,1
DA:175,1
DA:176,1
DA:177,1
DA:178,1
DA:179,2
DA:180,0
DA:183,34
DA:186,31
DA:187,31
DA:188,31
DA:189,31
DA:190,31
DA:191,31
DA:192,31
DA:193,31
DA:195,31
DA:196,5
DA:197,5
DA:198,5
DA:199,5
DA:200,5
DA:204,26
DA:205,1
DA:206,1
DA:207,1
DA:208,1
DA:209,1
DA:215,25
DA:216,11
DA:217,6
DA:218,0
DA:219,0
DA:220,0
DA:221,25
DA:224,25
DA:227,28
DA:228,3
DA:229,3
DA:230,3
DA:231,31
DA:234,19
DA:235,19
DA:238,19
DA:239,19
DA:241,44
DA:242,25
DA:243,25
DA:244,25
DA:246,19
DA:247,19
DA:251,0
DA:252,0
DA:253,0
DA:261,1
DA:262,1
DA:263,1
DA:264,1
DA:265,1
DA:266,1
DA:267,1
DA:268,1
DA:270,1
DA:271,1
DA:273,1
DA:274,1
DA:275,1
DA:278,1
DA:279,1
DA:280,1
DA:281,1
DA:282,1
DA:283,1
DA:284,1
DA:285,1
DA:286,1
DA:287,1
DA:288,1
DA:290,1
DA:291,1
DA:293,1
DA:294,1
DA:295,1
DA:296,1
DA:297,1
DA:300,1
DA:303,1
DA:304,1
DA:305,1
DA:306,1
DA:307,1
DA:308,1
DA:309,1
DA:310,1
DA:311,1
DA:312,1
DA:313,1
DA:314,1
DA:315,1
DA:316,1
DA:317,1
DA:318,1
DA:319,1
DA:321,1
DA:322,1
DA:324,1
DA:325,1
DA:326,1
DA:327,1
DA:330,1
DA:333,1
DA:334,1
DA:335,1
DA:336,1
DA:337,1
DA:338,1
DA:339,1
DA:340,1
DA:341,1
DA:342,1
DA:343,1
DA:344,1
DA:345,1
DA:346,1
DA:347,1
DA:348,1
DA:349,1
DA:350,1
DA:352,1
DA:353,1
DA:355,1
DA:356,1
DA:357,1
DA:358,1
DA:361,1
DA:362,1
DA:363,1
DA:364,1
DA:365,1
DA:366,1
DA:367,1
DA:368,1
DA:369,1
DA:370,1
DA:371,1
DA:372,1
DA:373,1
DA:374,1
DA:375,1
DA:376,1
DA:377,1
DA:378,1
DA:379,1
DA:380,1
DA:381,1
DA:382,1
DA:383,1
DA:384,1
DA:385,1
DA:386,1
DA:388,1
DA:389,1
DA:391,1
DA:393,2
DA:394,1
DA:397,1
DA:398,1
DA:399,1
DA:400,1
DA:401,1
DA:402,1
DA:403,1
DA:404,1
DA:405,1
DA:406,1
DA:407,1
DA:408,1
DA:409,1
DA:410,1
DA:411,1
DA:412,1
DA:414,1
DA:415,1
DA:417,1
DA:418,1
DA:420,1
DA:421,1
DA:424,1
DA:425,1
DA:426,1
DA:427,1
DA:428,1
DA:429,1
DA:430,1
DA:431,1
DA:432,1
DA:433,1
DA:434,1
DA:436,1
DA:437,1
DA:438,1
DA:439,1
DA:440,1
DA:441,1
DA:442,1
DA:443,1
DA:444,1
DA:445,1
DA:447,1
DA:448,1
DA:450,1
DA:451,1
DA:454,1
DA:455,1
DA:456,1
DA:457,1
DA:460,1
DA:461,1
DA:462,1
DA:463,1
DA:464,1
DA:465,1
DA:466,1
DA:467,1
DA:468,1
DA:469,1
DA:470,1
DA:471,1
DA:472,1
DA:473,1
DA:474,1
DA:475,1
DA:476,1
DA:477,1
DA:478,1
DA:479,1
DA:480,1
DA:481,1
DA:482,1
DA:484,1
DA:485,1
DA:487,1
DA:488,1
DA:489,1
DA:492,1
DA:494,1
DA:495,1
DA:496,1
DA:497,1
DA:498,1
DA:499,1
DA:501,1
DA:502,1
DA:503,1
DA:506,1
DA:507,1
DA:508,0
DA:511,1
DA:514,1
DA:515,1
DA:516,0
DA:517,1
BRF:0
BRH:0
LF:334
LH:316
end_of_record
SF:/Users/rawkode/Code/src/github.com/cuenv/cuenv/crates/ci/src/flake/error.rs
FN:67,_RINvMNtNtCskfEctF1MPvy_8cuenv_ci5flake5errorNtB3_14FlakeLockError2ioRNtNtCsiThrkg7suPy_3std4path4PathNtNtCsganj50Cd8Gx_5alloc6string6StringEB7_
FN:61,_RINvMNtNtCskfEctF1MPvy_8cuenv_ci5flake5errorNtB3_14FlakeLockError5parseNtNtCsganj50Cd8Gx_5alloc6string6StringEB7_
FN:85,_RINvMNtNtCskfEctF1MPvy_8cuenv_ci5flake5errorNtB3_14FlakeLockError7missingRNtNtCsiThrkg7suPy_3std4path4PathEB7_
FN:76,_RNvMNtNtCskfEctF1MPvy_8cuenv_ci5flake5errorNtB2_14FlakeLockError16strict_violation
FN:67,_RINvMNtNtCsilPUL3AyWrc_8cuenv_ci5flake5errorNtB3_14FlakeLockError2ioRNtNtCsiThrkg7suPy_3std4path4PathNtNtCsganj50Cd8Gx_5alloc6string6StringEB7_
FN:67,_RINvMNtNtCsilPUL3AyWrc_8cuenv_ci5flake5errorNtB3_14FlakeLockError2ioReB14_EB7_
FN:61,_RINvMNtNtCsilPUL3AyWrc_8cuenv_ci5flake5errorNtB3_14FlakeLockError5parseNtNtCsganj50Cd8Gx_5alloc6string6StringEB7_
FN:61,_RINvMNtNtCsilPUL3AyWrc_8cuenv_ci5flake5errorNtB3_14FlakeLockError5parseReEB7_
FN:85,_RINvMNtNtCsilPUL3AyWrc_8cuenv_ci5flake5errorNtB3_14FlakeLockError7missingRNtNtCsiThrkg7suPy_3std4path4PathEB7_
FN:85,_RINvMNtNtCsilPUL3AyWrc_8cuenv_ci5flake5errorNtB3_14FlakeLockError7missingReEB7_
FN:165,_RNvNtNtNtCsilPUL3AyWrc_8cuenv_ci5flake5error5testss_16test_error_debug
FN:115,_RNvNtNtNtCsilPUL3AyWrc_8cuenv_ci5flake5error5testss_21test_io_error_display
FN:104,_RNvNtNtNtCsilPUL3AyWrc_8cuenv_ci5flake5error5testss_25test_io_error_constructor
FN:95,_RNvNtNtNtCsilPUL3AyWrc_8cuenv_ci5flake5error5testss_28test_parse_error_constructor
FN:137,_RNvNtNtNtCsilPUL3AyWrc_8cuenv_ci5flake5error5testss_29test_strict_violation_display
FN:157,_RNvNtNtNtCsilPUL3AyWrc_8cuenv_ci5flake5error5testss_30test_missing_lock_file_display
FN:123,_RNvNtNtNtCsilPUL3AyWrc_8cuenv_ci5flake5error5testss_33test_strict_violation_constructor
FN:147,_RNvNtNtNtCsilPUL3AyWrc_8cuenv_ci5flake5error5testss_34test_missing_lock_file_constructor
FN:172,_RNvNtNtNtCsilPUL3AyWrc_8cuenv_ci5flake5error5testss_34test_strict_violation_empty_inputs
FN:76,_RNvMNtNtCsilPUL3AyWrc_8cuenv_ci5flake5errorNtB2_14FlakeLockError16strict_violation
FNDA:0,_RINvMNtNtCskfEctF1MPvy_8cuenv_ci5flake5errorNtB3_14FlakeLockError2ioRNtNtCsiThrkg7suPy_3std4path4PathNtNtCsganj50Cd8Gx_5alloc6string6StringEB7_
FNDA:0,_RINvMNtNtCskfEctF1MPvy_8cuenv_ci5flake5errorNtB3_14FlakeLockError5parseNtNtCsganj50Cd8Gx_5alloc6string6StringEB7_
FNDA:0,_RINvMNtNtCskfEctF1MPvy_8cuenv_ci5flake5errorNtB3_14FlakeLockError7missingRNtNtCsiThrkg7suPy_3std4path4PathEB7_
FNDA:0,_RNvMNtNtCskfEctF1MPvy_8cuenv_ci5flake5errorNtB2_14FlakeLockError16strict_violation
FNDA:0,_RINvMNtNtCsilPUL3AyWrc_8cuenv_ci5flake5errorNtB3_14FlakeLockError2ioRNtNtCsiThrkg7suPy_3std4path4PathNtNtCsganj50Cd8Gx_5alloc6string6StringEB7_
FNDA:2,_RINvMNtNtCsilPUL3AyWrc_8cuenv_ci5flake5errorNtB3_14FlakeLockError2ioReB14_EB7_
FNDA:1,_RINvMNtNtCsilPUL3AyWrc_8cuenv_ci5flake5errorNtB3_14FlakeLockError5parseNtNtCsganj50Cd8Gx_5alloc6string6StringEB7_
FNDA:2,_RINvMNtNtCsilPUL3AyWrc_8cuenv_ci5flake5errorNtB3_14FlakeLockError5parseReEB7_
FNDA:0,_RINvMNtNtCsilPUL3AyWrc_8cuenv_ci5flake5errorNtB3_14FlakeLockError7missingRNtNtCsiThrkg7suPy_3std4path4PathEB7_
FNDA:2,_RINvMNtNtCsilPUL3AyWrc_8cuenv_ci5flake5errorNtB3_14FlakeLockError7missingReEB7_
FNDA:1,_RNvNtNtNtCsilPUL3AyWrc_8cuenv_ci5flake5error5testss_16test_error_debug
FNDA:1,_RNvNtNtNtCsilPUL3AyWrc_8cuenv_ci5flake5error5testss_21test_io_error_display
FNDA:1,_RNvNtNtNtCsilPUL3AyWrc_8cuenv_ci5flake5error5testss_25test_io_error_constructor
FNDA:1,_RNvNtNtNtCsilPUL3AyWrc_8cuenv_ci5flake5error5testss_28test_parse_error_constructor
FNDA:1,_RNvNtNtNtCsilPUL3AyWrc_8cuenv_ci5flake5error5testss_29test_strict_violation_display
FNDA:1,_RNvNtNtNtCsilPUL3AyWrc_8cuenv_ci5flake5error5testss_30test_missing_lock_file_display
FNDA:1,_RNvNtNtNtCsilPUL3AyWrc_8cuenv_ci5flake5error5testss_33test_strict_violation_constructor
FNDA:1,_RNvNtNtNtCsilPUL3AyWrc_8cuenv_ci5flake5error5testss_34test_missing_lock_file_constructor
FNDA:1,_RNvNtNtNtCsilPUL3AyWrc_8cuenv_ci5flake5error5testss_34test_strict_violation_empty_inputs
FNDA:4,_RNvMNtNtCsilPUL3AyWrc_8cuenv_ci5flake5errorNtB2_14FlakeLockError16strict_violation
FNF:13
FNH:13
DA:61,3
DA:62,3
DA:63,3
DA:67,2
DA:68,2
DA:69,2
DA:70,2
DA:71,2
DA:72,2
DA:76,4
DA:77,4
DA:78,4
DA:79,4
DA:80,4
DA:81,4
DA:85,2
DA:86,2
DA:87,2
DA:95,1
DA:96,1
DA:97,1
DA:98,1
DA:99,1
DA:100,1
DA:101,1
DA:104,1
DA:105,1
DA:106,1
DA:107,1
DA:108,1
DA:110,0
DA:112,1
DA:115,1
DA:116,1
DA:117,1
DA:118,1
DA:119,1
DA:120,1
DA:123,1
DA:124,1
DA:125,1
DA:127,1
DA:128,1
DA:129,1
DA:130,1
DA:132,0
DA:134,1
DA:137,1
DA:138,1
DA:139,1
DA:140,1
DA:141,1
DA:142,1
DA:143,1
DA:144,1
DA:147,1
DA:148,1
DA:149,1
DA:150,1
DA:152,0
DA:154,1
DA:157,1
DA:158,1
DA:159,1
DA:160,1
DA:161,1
DA:162,1
DA:165,1
DA:166,1
DA:167,1
DA:168,1
DA:169,1
DA:172,1
DA:173,1
DA:174,1
DA:175,1
DA:176,1
DA:178,0
DA:180,1
BRF:0
BRH:0
LF:79
LH:75
end_of_record
SF:/Users/rawkode/Code/src/github.com/cuenv/cuenv/crates/ci/src/flake/lock.rs
FN:57,_RNvMNtNtCskfEctF1MPvy_8cuenv_ci5flake4lockNtB2_9FlakeNode7is_root
FN:63,_RNvMNtNtCskfEctF1MPvy_8cuenv_ci5flake4lockNtB2_9FlakeNode8is_input
FN:167,_RNvMs_NtNtCskfEctF1MPvy_8cuenv_ci5flake4lockNtB4_9FlakeLock8get_node
FN:149,_RNvMs_NtNtCskfEctF1MPvy_8cuenv_ci5flake4lockNtB4_9FlakeLock9from_json
FN:161,_RNvMs_NtNtCskfEctF1MPvy_8cuenv_ci5flake4lockNtB4_9FlakeLock9get_input
FN:155,_RNvMs_NtNtCskfEctF1MPvy_8cuenv_ci5flake4lockNtB4_9FlakeLock9root_node
FN:162,_RNCNvMs_NtNtCskfEctF1MPvy_8cuenv_ci5flake4lockNtB6_9FlakeLock9get_input0Ba_
FN:156,_RNCNvMs_NtNtCskfEctF1MPvy_8cuenv_ci5flake4lockNtB6_9FlakeLock9root_node0Ba_
FN:167,_RNvMs_NtNtCsilPUL3AyWrc_8cuenv_ci5flake4lockNtB4_9FlakeLock8get_node
FN:162,_RNCNvMs_NtNtCsilPUL3AyWrc_8cuenv_ci5flake4lockNtB6_9FlakeLock9get_input0Ba_
FN:156,_RNCNvMs_NtNtCsilPUL3AyWrc_8cuenv_ci5flake4lockNtB6_9FlakeLock9root_node0Ba_
FN:265,_RNvNtNtNtCsilPUL3AyWrc_8cuenv_ci5flake4lock5testss_26test_parse_non_flake_input
FN:227,_RNvNtNtNtCsilPUL3AyWrc_8cuenv_ci5flake4lock5testss_28test_parse_follows_reference
FN:193,_RNvNtNtNtCsilPUL3AyWrc_8cuenv_ci5flake4lock5testss_28test_parse_with_locked_input
FN:177,_RNvNtNtNtCsilPUL3AyWrc_8cuenv_ci5flake4lock5testss_29test_parse_minimal_flake_lock
FN:57,_RNvMNtNtCsilPUL3AyWrc_8cuenv_ci5flake4lockNtB2_9FlakeNode7is_root
FN:63,_RNvMNtNtCsilPUL3AyWrc_8cuenv_ci5flake4lockNtB2_9FlakeNode8is_input
FN:149,_RNvMs_NtNtCsilPUL3AyWrc_8cuenv_ci5flake4lockNtB4_9FlakeLock9from_json
FN:161,_RNvMs_NtNtCsilPUL3AyWrc_8cuenv_ci5flake4lockNtB4_9FlakeLock9get_input
FN:155,_RNvMs_NtNtCsilPUL3AyWrc_8cuenv_ci5flake4lockNtB4_9FlakeLock9root_node
FNDA:0,_RNvMNtNtCskfEctF1MPvy_8cuenv_ci5flake4lockNtB2_9FlakeNode7is_root
FNDA:0,_RNvMNtNtCskfEctF1MPvy_8cuenv_ci5flake4lockNtB2_9FlakeNode8is_input
FNDA:0,_RNvMs_NtNtCskfEctF1MPvy_8cuenv_ci5flake4lockNtB4_9FlakeLock8get_node
FNDA:0,_RNvMs_NtNtCskfEctF1MPvy_8cuenv_ci5flake4lockNtB4_9FlakeLock9from_json
FNDA:0,_RNvMs_NtNtCskfEctF1MPvy_8cuenv_ci5flake4lockNtB4_9FlakeLock9get_input
FNDA:0,_RNvMs_NtNtCskfEctF1MPvy_8cuenv_ci5flake4lockNtB4_9FlakeLock9root_node
FNDA:0,_RNCNvMs_NtNtCskfEctF1MPvy_8cuenv_ci5flake4lockNtB6_9FlakeLock9get_input0Ba_
FNDA:0,_RNCNvMs_NtNtCskfEctF1MPvy_8cuenv_ci5flake4lockNtB6_9FlakeLock9root_node0Ba_
FNDA:0,_RNvMs_NtNtCsilPUL3AyWrc_8cuenv_ci5flake4lockNtB4_9FlakeLock8get_node
FNDA:3,_RNCNvMs_NtNtCsilPUL3AyWrc_8cuenv_ci5flake4lockNtB6_9FlakeLock9get_input0Ba_
FNDA:1,_RNCNvMs_NtNtCsilPUL3AyWrc_8cuenv_ci5flake4lockNtB6_9FlakeLock9root_node0Ba_
FNDA:1,_RNvNtNtNtCsilPUL3AyWrc_8cuenv_ci5flake4lock5testss_26test_parse_non_flake_input
FNDA:1,_RNvNtNtNtCsilPUL3AyWrc_8cuenv_ci5flake4lock5testss_28test_parse_follows_reference
FNDA:1,_RNvNtNtNtCsilPUL3AyWrc_8cuenv_ci5flake4lock5testss_28test_parse_with_locked_input
FNDA:1,_RNvNtNtNtCsilPUL3AyWrc_8cuenv_ci5flake4lock5testss_29test_parse_minimal_flake_lock
FNDA:1,_RNvMNtNtCsilPUL3AyWrc_8cuenv_ci5flake4lockNtB2_9FlakeNode7is_root
FNDA:37,_RNvMNtNtCsilPUL3AyWrc_8cuenv_ci5flake4lockNtB2_9FlakeNode8is_input
FNDA:24,_RNvMs_NtNtCsilPUL3AyWrc_8cuenv_ci5flake4lockNtB4_9FlakeLock9from_json
FNDA:3,_RNvMs_NtNtCsilPUL3AyWrc_8cuenv_ci5flake4lockNtB4_9FlakeLock9get_input
FNDA:1,_RNvMs_NtNtCsilPUL3AyWrc_8cuenv_ci5flake4lockNtB4_9FlakeLock9root_node
FNF:12
FNH:11
DA:57,1
DA:58,1
DA:59,1
DA:63,37
DA:64,37
DA:65,37
DA:149,24
DA:150,24
DA:151,24
DA:155,1
DA:156,1
DA:157,1
DA:161,3
DA:162,3
DA:163,3
DA:167,0
DA:168,0
DA:169,0
DA:177,1
DA:178,1
DA:179,1
DA:180,1
DA:181,1
DA:182,1
DA:183,1
DA:184,1
DA:186,1
DA:187,1
DA:188,1
DA:189,1
DA:190,1
DA:193,1
DA:194,1
DA:195,1
DA:196,1
DA:197,1
DA:198,1
DA:199,1
DA:200,1
DA:201,1
DA:202,1
DA:203,1
DA:204,1
DA:205,1
DA:206,1
DA:207,1
DA:208,1
DA:209,1
DA:210,1
DA:211,1
DA:212,1
DA:213,1
DA:214,1
DA:215,1
DA:216,1
DA:218,1
DA:219,1
DA:220,1
DA:221,1
DA:222,1
DA:223,1
DA:224,1
DA:227,1
DA:228,1
DA:229,1
DA:230,1
DA:231,1
DA:232,1
DA:233,1
DA:234,1
DA:235,1
DA:236,1
DA:237,1
DA:238,1
DA:239,1
DA:240,1
DA:241,1
DA:242,1
DA:243,1
DA:244,1
DA:245,1
DA:246,1
DA:247,1
DA:248,1
DA:249,1
DA:250,1
DA:251,1
DA:252,1
DA:253,1
DA:254,1
DA:256,1
DA:257,1
DA:260,1
DA:261,1
DA:262,1
DA:265,1
DA:266,1
DA:267,1
DA:268,1
DA:269,1
DA:270,1
DA:271,1
DA:272,1
DA:273,1
DA:274,1
DA:275,1
DA:276,1
DA:277,1
DA:278,1
DA:279,1
DA:280,1
DA:281,1
DA:283,1
DA:284,1
DA:285,1
DA:286,1
BRF:0
BRH:0
LF:118
LH:115
end_of_record
SF:/Users/rawkode/Code/src/github.com/cuenv/cuenv/crates/ci/src/gc.rs
FN:107,_RINvMs_NtCskfEctF1MPvy_8cuenv_ci2gcNtB5_16GarbageCollector9cache_dirRNtNtCsiThrkg7suPy_3std4path4PathEB7_
FN:299,_RNCNvMs_NtCskfEctF1MPvy_8cuenv_ci2gcNtB6_16GarbageCollector10run_nix_gc0B8_
FN:274,_RNCNvMs_NtCskfEctF1MPvy_8cuenv_ci2gcNtB6_16GarbageCollector12create_entry0B8_
FN:170,_RNCNvMs_NtCskfEctF1MPvy_8cuenv_ci2gcNtB6_16GarbageCollector3runs_0B8_
FN:293,_RNvMs_NtCskfEctF1MPvy_8cuenv_ci2gcNtB4_16GarbageCollector10run_nix_gc
FN:245,_RNvMs_NtCskfEctF1MPvy_8cuenv_ci2gcNtB4_16GarbageCollector10scan_cache
FN:101,_RNvMs_NtCskfEctF1MPvy_8cuenv_ci2gcNtB4_16GarbageCollector11with_config
FN:128,_RNvMs_NtCskfEctF1MPvy_8cuenv_ci2gcNtB4_16GarbageCollector11with_nix_gc
FN:272,_RNvMs_NtCskfEctF1MPvy_8cuenv_ci2gcNtB4_16GarbageCollector12create_entry
FN:121,_RNvMs_NtCskfEctF1MPvy_8cuenv_ci2gcNtB4_16GarbageCollector12max_age_days
FN:284,_RNvMs_NtCskfEctF1MPvy_8cuenv_ci2gcNtB4_16GarbageCollector12remove_entry
FN:252,_RNvMs_NtCskfEctF1MPvy_8cuenv_ci2gcNtB4_16GarbageCollector18scan_dir_recursive
FN:93,_RNvMs_NtCskfEctF1MPvy_8cuenv_ci2gcNtB4_16GarbageCollector3new
FN:145,_RNvMs_NtCskfEctF1MPvy_8cuenv_ci2gcNtB4_16GarbageCollector3run
FN:135,_RNvMs_NtCskfEctF1MPvy_8cuenv_ci2gcNtB4_16GarbageCollector7dry_run
FN:114,_RNvMs_NtCskfEctF1MPvy_8cuenv_ci2gcNtB4_16GarbageCollector8max_size
FN:333,_RNvNtCskfEctF1MPvy_8cuenv_ci2gc10preview_gc
FN:324,_RNvNtCskfEctF1MPvy_8cuenv_ci2gc6run_gc
FN:74,_RNvXNtCskfEctF1MPvy_8cuenv_ci2gcNtB2_8GCConfigNtNtCskzPJi2J8k3N_4core7default7Default7default
FN:314,_RNvXs0_NtCskfEctF1MPvy_8cuenv_ci2gcNtB5_16GarbageCollectorNtNtCskzPJi2J8k3N_4core7default7Default7default
FN:293,_RNvMs_NtCsilPUL3AyWrc_8cuenv_ci2gcNtB4_16GarbageCollector10run_nix_gc
FN:245,_RNvMs_NtCsilPUL3AyWrc_8cuenv_ci2gcNtB4_16GarbageCollector10scan_cache
FN:101,_RNvMs_NtCsilPUL3AyWrc_8cuenv_ci2gcNtB4_16GarbageCollector11with_config
FN:128,_RNvMs_NtCsilPUL3AyWrc_8cuenv_ci2gcNtB4_16GarbageCollector11with_nix_gc
FN:272,_RNvMs_NtCsilPUL3AyWrc_8cuenv_ci2gcNtB4_16GarbageCollector12create_entry
FN:121,_RNvMs_NtCsilPUL3AyWrc_8cuenv_ci2gcNtB4_16GarbageCollector12max_age_days
FN:284,_RNvMs_NtCsilPUL3AyWrc_8cuenv_ci2gcNtB4_16GarbageCollector12remove_entry
FN:252,_RNvMs_NtCsilPUL3AyWrc_8cuenv_ci2gcNtB4_16GarbageCollector18scan_dir_recursive
FN:93,_RNvMs_NtCsilPUL3AyWrc_8cuenv_ci2gcNtB4_16GarbageCollector3new
FN:145,_RNvMs_NtCsilPUL3AyWrc_8cuenv_ci2gcNtB4_16GarbageCollector3run
FN:135,_RNvMs_NtCsilPUL3AyWrc_8cuenv_ci2gcNtB4_16GarbageCollector7dry_run
FN:114,_RNvMs_NtCsilPUL3AyWrc_8cuenv_ci2gcNtB4_16GarbageCollector8max_size
FN:333,_RNvNtCsilPUL3AyWrc_8cuenv_ci2gc10preview_gc
FN:324,_RNvNtCsilPUL3AyWrc_8cuenv_ci2gc6run_gc
FN:74,_RNvXNtCsilPUL3AyWrc_8cuenv_ci2gcNtB2_8GCConfigNtNtCskzPJi2J8k3N_4core7default7Default7default
FN:314,_RNvXs0_NtCsilPUL3AyWrc_8cuenv_ci2gcNtB5_16GarbageCollectorNtNtCskzPJi2J8k3N_4core7default7Default7default
FN:107,_RINvMs_NtCsilPUL3AyWrc_8cuenv_ci2gcNtB5_16GarbageCollector9cache_dirRNtNtCsiThrkg7suPy_3std4path4PathEB7_
FN:107,_RINvMs_NtCsilPUL3AyWrc_8cuenv_ci2gcNtB5_16GarbageCollector9cache_dirReEB7_
FN:299,_RNCNvMs_NtCsilPUL3AyWrc_8cuenv_ci2gcNtB6_16GarbageCollector10run_nix_gc0B8_
FN:274,_RNCNvMs_NtCsilPUL3AyWrc_8cuenv_ci2gcNtB6_16GarbageCollector12create_entry0B8_
FN:170,_RNCNvMs_NtCsilPUL3AyWrc_8cuenv_ci2gcNtB6_16GarbageCollector3runs_0B8_
FN:344,_RNvNtNtCsilPUL3AyWrc_8cuenv_ci2gc5tests16create_test_file
FN:390,_RNvNtNtCsilPUL3AyWrc_8cuenv_ci2gc5testss_12test_dry_run
FN:607,_RNvNtNtCsilPUL3AyWrc_8cuenv_ci2gc5testss_14test_constants
FN:352,_RNvNtNtCsilPUL3AyWrc_8cuenv_ci2gc5testss_16test_empty_cache
FN:579,_RNvNtNtCsilPUL3AyWrc_8cuenv_ci2gc5testss_16test_gc_error_io
FN:600,_RNvNtNtCsilPUL3AyWrc_8cuenv_ci2gc5testss_19test_gc_error_debug
FN:436,_RNvNtNtCsilPUL3AyWrc_8cuenv_ci2gc5testss_19test_gc_stats_clone
FN:451,_RNvNtNtCsilPUL3AyWrc_8cuenv_ci2gc5testss_19test_gc_stats_debug
FN:467,_RNvNtNtCsilPUL3AyWrc_8cuenv_ci2gc5testss_20test_gc_config_clone
FN:481,_RNvNtNtCsilPUL3AyWrc_8cuenv_ci2gc5testss_20test_gc_config_debug
FN:376,_RNvNtNtCsilPUL3AyWrc_8cuenv_ci2gc5testss_21test_cache_over_limit
FN:361,_RNvNtNtCsilPUL3AyWrc_8cuenv_ci2gc5testss_22test_cache_under_limit
FN:458,_RNvNtNtCsilPUL3AyWrc_8cuenv_ci2gc5testss_22test_gc_config_default
FN:428,_RNvNtNtCsilPUL3AyWrc_8cuenv_ci2gc5testss_22test_gc_stats_defaults
FN:406,_RNvNtNtCsilPUL3AyWrc_8cuenv_ci2gc5testss_23test_nested_directories
FN:561,_RNvNtNtCsilPUL3AyWrc_8cuenv_ci2gc5testss_23test_run_gc_convenience
FN:488,_RNvNtNtCsilPUL3AyWrc_8cuenv_ci2gc5testss_26test_garbage_collector_new
FN:631,_RNvNtNtCsilPUL3AyWrc_8cuenv_ci2gc5testss_26test_gc_with_mixed_content
FN:421,_RNvNtNtCsilPUL3AyWrc_8cuenv_ci2gc5testss_26test_nonexistent_cache_dir
FN:593,_RNvNtNtCsilPUL3AyWrc_8cuenv_ci2gc5testss_27test_gc_error_nix_gc_failed
FN:568,_RNvNtNtCsilPUL3AyWrc_8cuenv_ci2gc5testss_27test_preview_gc_convenience
FN:615,_RNvNtNtCsilPUL3AyWrc_8cuenv_ci2gc5testss_30test_deeply_nested_directories
FN:495,_RNvNtNtCsilPUL3AyWrc_8cuenv_ci2gc5testss_30test_garbage_collector_default
FN:586,_RNvNtNtCsilPUL3AyWrc_8cuenv_ci2gc5testss_33test_gc_error_cache_dir_not_found
FN:501,_RNvNtNtCsilPUL3AyWrc_8cuenv_ci2gc5testss_34test_garbage_collector_with_config
FN:545,_RNvNtNtCsilPUL3AyWrc_8cuenv_ci2gc5testss_38test_garbage_collector_builder_chained
FN:539,_RNvNtNtCsilPUL3AyWrc_8cuenv_ci2gc5testss_38test_garbage_collector_builder_dry_run
FN:521,_RNvNtNtCsilPUL3AyWrc_8cuenv_ci2gc5testss_39test_garbage_collector_builder_max_size
FN:515,_RNvNtNtCsilPUL3AyWrc_8cuenv_ci2gc5testss_40test_garbage_collector_builder_cache_dir
FN:533,_RNvNtNtCsilPUL3AyWrc_8cuenv_ci2gc5testss_42test_garbage_collector_builder_with_nix_gc
FN:527,_RNvNtNtCsilPUL3AyWrc_8cuenv_ci2gc5testss_43test_garbage_collector_builder_max_age_days
FNDA:0,_RINvMs_NtCskfEctF1MPvy_8cuenv_ci2gcNtB5_16GarbageCollector9cache_dirRNtNtCsiThrkg7suPy_3std4path4PathEB7_
FNDA:0,_RNCNvMs_NtCskfEctF1MPvy_8cuenv_ci2gcNtB6_16GarbageCollector10run_nix_gc0B8_
FNDA:0,_RNCNvMs_NtCskfEctF1MPvy_8cuenv_ci2gcNtB6_16GarbageCollector12create_entry0B8_
FNDA:0,_RNCNvMs_NtCskfEctF1MPvy_8cuenv_ci2gcNtB6_16GarbageCollector3runs_0B8_
FNDA:0,_RNvMs_NtCskfEctF1MPvy_8cuenv_ci2gcNtB4_16GarbageCollector10run_nix_gc
FNDA:0,_RNvMs_NtCskfEctF1MPvy_8cuenv_ci2gcNtB4_16GarbageCollector10scan_cache
FNDA:0,_RNvMs_NtCskfEctF1MPvy_8cuenv_ci2gcNtB4_16GarbageCollector11with_config
FNDA:0,_RNvMs_NtCskfEctF1MPvy_8cuenv_ci2gcNtB4_16GarbageCollector11with_nix_gc
FNDA:0,_RNvMs_NtCskfEctF1MPvy_8cuenv_ci2gcNtB4_16GarbageCollector12create_entry
FNDA:0,_RNvMs_NtCskfEctF1MPvy_8cuenv_ci2gcNtB4_16GarbageCollector12max_age_days
FNDA:0,_RNvMs_NtCskfEctF1MPvy_8cuenv_ci2gcNtB4_16GarbageCollector12remove_entry
FNDA:0,_RNvMs_NtCskfEctF1MPvy_8cuenv_ci2gcNtB4_16GarbageCollector18scan_dir_recursive
FNDA:0,_RNvMs_NtCskfEctF1MPvy_8cuenv_ci2gcNtB4_16GarbageCollector3new
FNDA:0,_RNvMs_NtCskfEctF1MPvy_8cuenv_ci2gcNtB4_16GarbageCollector3run
FNDA:0,_RNvMs_NtCskfEctF1MPvy_8cuenv_ci2gcNtB4_16GarbageCollector7dry_run
FNDA:0,_RNvMs_NtCskfEctF1MPvy_8cuenv_ci2gcNtB4_16GarbageCollector8max_size
FNDA:0,_RNvNtCskfEctF1MPvy_8cuenv_ci2gc10preview_gc
FNDA:0,_RNvNtCskfEctF1MPvy_8cuenv_ci2gc6run_gc
FNDA:0,_RNvXNtCskfEctF1MPvy_8cuenv_ci2gcNtB2_8GCConfigNtNtCskzPJi2J8k3N_4core7default7Default7default
FNDA:0,_RNvXs0_NtCskfEctF1MPvy_8cuenv_ci2gcNtB5_16GarbageCollectorNtNtCskzPJi2J8k3N_4core7default7Default7default
FNDA:0,_RNvMs_NtCsilPUL3AyWrc_8cuenv_ci2gcNtB4_16GarbageCollector10run_nix_gc
FNDA:9,_RNvMs_NtCsilPUL3AyWrc_8cuenv_ci2gcNtB4_16GarbageCollector10scan_cache
FNDA:1,_RNvMs_NtCsilPUL3AyWrc_8cuenv_ci2gcNtB4_16GarbageCollector11with_config
FNDA:2,_RNvMs_NtCsilPUL3AyWrc_8cuenv_ci2gcNtB4_16GarbageCollector11with_nix_gc
FNDA:13,_RNvMs_NtCsilPUL3AyWrc_8cuenv_ci2gcNtB4_16GarbageCollector12create_entry
FNDA:2,_RNvMs_NtCsilPUL3AyWrc_8cuenv_ci2gcNtB4_16GarbageCollector12max_age_days
FNDA:4,_RNvMs_NtCsilPUL3AyWrc_8cuenv_ci2gcNtB4_16GarbageCollector12remove_entry
FNDA:13,_RNvMs_NtCsilPUL3AyWrc_8cuenv_ci2gcNtB4_16GarbageCollector18scan_dir_recursive
FNDA:18,_RNvMs_NtCsilPUL3AyWrc_8cuenv_ci2gcNtB4_16GarbageCollector3new
FNDA:10,_RNvMs_NtCsilPUL3AyWrc_8cuenv_ci2gcNtB4_16GarbageCollector3run
FNDA:4,_RNvMs_NtCsilPUL3AyWrc_8cuenv_ci2gcNtB4_16GarbageCollector7dry_run
FNDA:6,_RNvMs_NtCsilPUL3AyWrc_8cuenv_ci2gcNtB4_16GarbageCollector8max_size
FNDA:1,_RNvNtCsilPUL3AyWrc_8cuenv_ci2gc10preview_gc
FNDA:1,_RNvNtCsilPUL3AyWrc_8cuenv_ci2gc6run_gc
FNDA:20,_RNvXNtCsilPUL3AyWrc_8cuenv_ci2gcNtB2_8GCConfigNtNtCskzPJi2J8k3N_4core7default7Default7default
FNDA:1,_RNvXs0_NtCsilPUL3AyWrc_8cuenv_ci2gcNtB5_16GarbageCollectorNtNtCskzPJi2J8k3N_4core7default7Default7default
FNDA:9,_RINvMs_NtCsilPUL3AyWrc_8cuenv_ci2gcNtB5_16GarbageCollector9cache_dirRNtNtCsiThrkg7suPy_3std4path4PathEB7_
FNDA:3,_RINvMs_NtCsilPUL3AyWrc_8cuenv_ci2gcNtB5_16GarbageCollector9cache_dirReEB7_
FNDA:0,_RNCNvMs_NtCsilPUL3AyWrc_8cuenv_ci2gcNtB6_16GarbageCollector10run_nix_gc0B8_
FNDA:0,_RNCNvMs_NtCsilPUL3AyWrc_8cuenv_ci2gcNtB6_16GarbageCollector12create_entry0B8_
FNDA:6,_RNCNvMs_NtCsilPUL3AyWrc_8cuenv_ci2gcNtB6_16GarbageCollector3runs_0B8_
FNDA:13,_RNvNtNtCsilPUL3AyWrc_8cuenv_ci2gc5tests16create_test_file
FNDA:1,_RNvNtNtCsilPUL3AyWrc_8cuenv_ci2gc5testss_12test_dry_run
FNDA:1,_RNvNtNtCsilPUL3AyWrc_8cuenv_ci2gc5testss_14test_constants
FNDA:1,_RNvNtNtCsilPUL3AyWrc_8cuenv_ci2gc5testss_16test_empty_cache
FNDA:1,_RNvNtNtCsilPUL3AyWrc_8cuenv_ci2gc5testss_16test_gc_error_io
FNDA:1,_RNvNtNtCsilPUL3AyWrc_8cuenv_ci2gc5testss_19test_gc_error_debug
FNDA:1,_RNvNtNtCsilPUL3AyWrc_8cuenv_ci2gc5testss_19test_gc_stats_clone
FNDA:1,_RNvNtNtCsilPUL3AyWrc_8cuenv_ci2gc5testss_19test_gc_stats_debug
FNDA:1,_RNvNtNtCsilPUL3AyWrc_8cuenv_ci2gc5testss_20test_gc_config_clone
FNDA:1,_RNvNtNtCsilPUL3AyWrc_8cuenv_ci2gc5testss_20test_gc_config_debug
FNDA:1,_RNvNtNtCsilPUL3AyWrc_8cuenv_ci2gc5testss_21test_cache_over_limit
FNDA:1,_RNvNtNtCsilPUL3AyWrc_8cuenv_ci2gc5testss_22test_cache_under_limit
FNDA:1,_RNvNtNtCsilPUL3AyWrc_8cuenv_ci2gc5testss_22test_gc_config_default
FNDA:1,_RNvNtNtCsilPUL3AyWrc_8cuenv_ci2gc5testss_22test_gc_stats_defaults
FNDA:1,_RNvNtNtCsilPUL3AyWrc_8cuenv_ci2gc5testss_23test_nested_directories
FNDA:1,_RNvNtNtCsilPUL3AyWrc_8cuenv_ci2gc5testss_23test_run_gc_convenience
FNDA:1,_RNvNtNtCsilPUL3AyWrc_8cuenv_ci2gc5testss_26test_garbage_collector_new
FNDA:1,_RNvNtNtCsilPUL3AyWrc_8cuenv_ci2gc5testss_26test_gc_with_mixed_content
FNDA:1,_RNvNtNtCsilPUL3AyWrc_8cuenv_ci2gc5testss_26test_nonexistent_cache_dir
FNDA:1,_RNvNtNtCsilPUL3AyWrc_8cuenv_ci2gc5testss_27test_gc_error_nix_gc_failed
FNDA:1,_RNvNtNtCsilPUL3AyWrc_8cuenv_ci2gc5testss_27test_preview_gc_convenience
FNDA:1,_RNvNtNtCsilPUL3AyWrc_8cuenv_ci2gc5testss_30test_deeply_nested_directories
FNDA:1,_RNvNtNtCsilPUL3AyWrc_8cuenv_ci2gc5testss_30test_garbage_collector_default
FNDA:1,_RNvNtNtCsilPUL3AyWrc_8cuenv_ci2gc5testss_33test_gc_error_cache_dir_not_found
FNDA:1,_RNvNtNtCsilPUL3AyWrc_8cuenv_ci2gc5testss_34test_garbage_collector_with_config
FNDA:1,_RNvNtNtCsilPUL3AyWrc_8cuenv_ci2gc5testss_38test_garbage_collector_builder_chained
FNDA:1,_RNvNtNtCsilPUL3AyWrc_8cuenv_ci2gc5testss_38test_garbage_collector_builder_dry_run
FNDA:1,_RNvNtNtCsilPUL3AyWrc_8cuenv_ci2gc5testss_39test_garbage_collector_builder_max_size
FNDA:1,_RNvNtNtCsilPUL3AyWrc_8cuenv_ci2gc5testss_40test_garbage_collector_builder_cache_dir
FNDA:1,_RNvNtNtCsilPUL3AyWrc_8cuenv_ci2gc5testss_42test_garbage_collector_builder_with_nix_gc
FNDA:1,_RNvNtNtCsilPUL3AyWrc_8cuenv_ci2gc5testss_43test_garbage_collector_builder_max_age_days
FNF:51
FNH:48
DA:74,20
DA:75,20
DA:76,20
DA:77,20
DA:78,20
DA:79,20
DA:80,20
DA:81,20
DA:82,20
DA:93,18
DA:94,18
DA:95,18
DA:96,18
DA:97,18
DA:101,1
DA:102,1
DA:103,1
DA:107,12
DA:108,12
DA:109,12
DA:110,12
DA:114,6
DA:115,6
DA:116,6
DA:117,6
DA:121,2
DA:122,2
DA:123,2
DA:124,2
DA:128,2
DA:129,2
DA:130,2
DA:131,2
DA:135,4
DA:136,4
DA:137,4
DA:138,4
DA:145,10
DA:146,10
DA:147,10
DA:149,10
DA:150,1
DA:151,0
DA:152,0
DA:154,1
DA:155,9
DA:158,9
DA:159,9
DA:162,9
DA:163,9
DA:164,0
DA:165,0
DA:166,0
DA:170,9
DA:172,9
DA:173,9
DA:174,9
DA:177,12
DA:178,9
DA:179,9
DA:180,9
DA:182,9
DA:184,9
DA:185,5
DA:186,1
DA:187,0
DA:189,0
DA:190,0
DA:193,4
DA:195,4
DA:196,0
DA:198,0
DA:200,4
DA:201,4
DA:202,4
DA:204,0
DA:205,0
DA:206,0
DA:208,0
DA:213,4
DA:216,9
DA:217,6
DA:218,3
DA:221,9
DA:224,9
DA:225,0
DA:226,0
DA:228,0
DA:229,9
DA:231,9
DA:233,9
DA:235,0
DA:236,0
DA:238,0
DA:241,9
DA:242,10
DA:245,9
DA:246,9
DA:247,9
DA:248,9
DA:249,9
DA:252,13
DA:253,17
DA:254,17
DA:255,17
DA:256,17
DA:258,17
DA:259,4
DA:260,13
DA:261,13
DA:262,13
DA:263,13
DA:264,13
DA:266,13
DA:267,13
DA:272,13
DA:273,13
DA:274,13
DA:276,13
DA:277,13
DA:278,13
DA:279,13
DA:280,13
DA:281,13
DA:284,4
DA:285,4
DA:286,0
DA:288,4
DA:290,4
DA:291,4
DA:293,0
DA:294,0
DA:296,0
DA:297,0
DA:298,0
DA:299,0
DA:301,0
DA:302,0
DA:303,0
DA:304,0
DA:306,0
DA:307,0
DA:309,0
DA:310,0
DA:314,1
DA:315,1
DA:316,1
DA:324,1
DA:325,1
DA:326,1
DA:333,1
DA:334,1
DA:335,1
DA:344,13
DA:345,13
DA:346,13
DA:347,13
DA:348,13
DA:349,13
DA:352,1
DA:353,1
DA:354,1
DA:355,1
DA:356,1
DA:357,1
DA:358,1
DA:361,1
DA:362,1
DA:363,1
DA:364,1
DA:366,1
DA:367,1
DA:368,1
DA:370,1
DA:371,1
DA:372,1
DA:373,1
DA:376,1
DA:377,1
DA:378,1
DA:379,1
DA:380,1
DA:382,1
DA:384,1
DA:385,1
DA:386,1
DA:387,1
DA:390,1
DA:391,1
DA:392,1
DA:394,1
DA:395,1
DA:396,1
DA:397,1
DA:399,1
DA:401,1
DA:402,1
DA:403,1
DA:406,1
DA:407,1
DA:408,1
DA:409,1
DA:411,1
DA:412,1
DA:414,1
DA:415,1
DA:417,1
DA:418,1
DA:421,1
DA:422,1
DA:423,1
DA:424,1
DA:425,1
DA:428,1
DA:429,1
DA:430,1
DA:431,1
DA:432,1
DA:433,1
DA:436,1
DA:437,1
DA:438,1
DA:439,1
DA:440,1
DA:441,1
DA:442,1
DA:443,1
DA:444,1
DA:445,1
DA:446,1
DA:447,1
DA:448,1
DA:451,1
DA:452,1
DA:453,1
DA:454,1
DA:455,1
DA:458,1
DA:459,1
DA:460,1
DA:461,1
DA:462,1
DA:463,1
DA:464,1
DA:467,1
DA:468,1
DA:469,1
DA:470,1
DA:471,1
DA:472,1
DA:473,1
DA:474,1
DA:475,1
DA:476,1
DA:477,1
DA:478,1
DA:481,1
DA:482,1
DA:483,1
DA:484,1
DA:485,1
DA:488,1
DA:489,1
DA:491,1
DA:492,1
DA:495,1
DA:496,1
DA:497,1
DA:498,1
DA:501,1
DA:502,1
DA:503,1
DA:504,1
DA:505,1
DA:506,1
DA:507,1
DA:508,1
DA:509,1
DA:510,1
DA:511,1
DA:512,1
DA:515,1
DA:516,1
DA:517,1
DA:518,1
DA:521,1
DA:522,1
DA:523,1
DA:524,1
DA:527,1
DA:528,1
DA:529,1
DA:530,1
DA:533,1
DA:534,1
DA:535,1
DA:536,1
DA:539,1
DA:540,1
DA:541,1
DA:542,1
DA:545,1
DA:546,1
DA:547,1
DA:548,1
DA:549,1
DA:550,1
DA:551,1
DA:553,1
DA:554,1
DA:555,1
DA:556,1
DA:557,1
DA:558,1
DA:561,1
DA:562,1
DA:563,1
DA:564,1
DA:565,1
DA:568,1
DA:569,1
DA:570,1
DA:572,1
DA:573,1
DA:575,1
DA:576,1
DA:579,1
DA:580,1
DA:581,1
DA:582,1
DA:583,1
DA:586,1
DA:587,1
DA:588,1
DA:589,1
DA:590,1
DA:593,1
DA:594,1
DA:595,1
DA:596,1
DA:597,1
DA:600,1
DA:601,1
DA:602,1
DA:603,1
DA:604,1
DA:607,1
DA:609,1
DA:610,1
DA:611,1
DA:612,1
DA:615,1
DA:616,1
DA:617,1
DA:618,1
DA:619,1
DA:620,1
DA:622,1
DA:624,1
DA:625,1
DA:627,1
DA:628,1
DA:631,1
DA:632,1
DA:635,1
DA:636,1
DA:637,1
DA:639,1
DA:641,1
DA:642,1
DA:644,1
DA:645,1
BRF:0
BRH:0
LF:375
LH:338
end_of_record
SF:/Users/rawkode/Code/src/github.com/cuenv/cuenv/crates/ci/src/ir/schema.rs
FN:296,_RINvMs_NtNtCskfEctF1MPvy_8cuenv_ci2ir6schemaNtB5_4Task16synthetic_matrixpEB9_
FN:265,_RINvMs_NtNtCskfEctF1MPvy_8cuenv_ci2ir6schemaNtB5_4Task21synthetic_aggregationpEB9_
FN:667,_RNvMs0_NtNtCskfEctF1MPvy_8cuenv_ci2ir6schemaNtB5_18StageConfiguration14setup_task_ids
FN:548,_RNvMs0_NtNtCskfEctF1MPvy_8cuenv_ci2ir6schemaNtB5_18StageConfiguration16sort_by_priority
FN:562,_RNvMs0_NtNtCskfEctF1MPvy_8cuenv_ci2ir6schemaNtB5_18StageConfiguration20sort_by_dependencies
FN:573,_RNvMs0_NtNtCskfEctF1MPvy_8cuenv_ci2ir6schemaNtB5_18StageConfiguration30topological_sort_with_priority
FN:535,_RNvMs0_NtNtCskfEctF1MPvy_8cuenv_ci2ir6schemaNtB5_18StageConfiguration3add
FN:527,_RNvMs0_NtNtCskfEctF1MPvy_8cuenv_ci2ir6schemaNtB5_18StageConfiguration8is_empty
FN:343,_RNvNtNtCskfEctF1MPvy_8cuenv_ci2ir6schema17default_fail_fast
FN:500,_RNvNtNtCskfEctF1MPvy_8cuenv_ci2ir6schema7is_zero
FN:38,_RINvMNtNtCskfEctF1MPvy_8cuenv_ci2ir6schemaNtB3_26IntermediateRepresentation3newRNtNtCsganj50Cd8Gx_5alloc6string6StringEB7_
FN:671,_RNCNvMs0_NtNtCskfEctF1MPvy_8cuenv_ci2ir6schemaNtB7_18StageConfiguration14setup_task_ids0Bb_
FN:581,_RNCNvMs0_NtNtCskfEctF1MPvy_8cuenv_ci2ir6schemaNtB7_18StageConfiguration30topological_sort_with_priority0Bb_
FN:661,_RNCNvMs0_NtNtCskfEctF1MPvy_8cuenv_ci2ir6schemaNtB7_18StageConfiguration30topological_sort_with_prioritys1_0Bb_
FN:607,_RNCNvMs0_NtNtCskfEctF1MPvy_8cuenv_ci2ir6schemaNtB7_18StageConfiguration30topological_sort_with_prioritys_0Bb_
FN:296,_RINvMs_NtNtCsilPUL3AyWrc_8cuenv_ci2ir6schemaNtB5_4Task16synthetic_matrixpEB9_
FN:265,_RINvMs_NtNtCsilPUL3AyWrc_8cuenv_ci2ir6schemaNtB5_4Task21synthetic_aggregationpEB9_
FN:548,_RNvMs0_NtNtCsilPUL3AyWrc_8cuenv_ci2ir6schemaNtB5_18StageConfiguration16sort_by_priority
FN:343,_RNvNtNtCsilPUL3AyWrc_8cuenv_ci2ir6schema17default_fail_fast
FN:667,_RNvMs0_NtNtCsilPUL3AyWrc_8cuenv_ci2ir6schemaNtB5_18StageConfiguration14setup_task_ids
FN:562,_RNvMs0_NtNtCsilPUL3AyWrc_8cuenv_ci2ir6schemaNtB5_18StageConfiguration20sort_by_dependencies
FN:573,_RNvMs0_NtNtCsilPUL3AyWrc_8cuenv_ci2ir6schemaNtB5_18StageConfiguration30topological_sort_with_priority
FN:535,_RNvMs0_NtNtCsilPUL3AyWrc_8cuenv_ci2ir6schemaNtB5_18StageConfiguration3add
FN:527,_RNvMs0_NtNtCsilPUL3AyWrc_8cuenv_ci2ir6schemaNtB5_18StageConfiguration8is_empty
FN:500,_RNvNtNtCsilPUL3AyWrc_8cuenv_ci2ir6schema7is_zero
FN:853,_RNvNtNtNtCsilPUL3AyWrc_8cuenv_ci2ir6schema5testss_12test_runtime
FN:681,_RNvNtNtNtCsilPUL3AyWrc_8cuenv_ci2ir6schema5testss_15test_ir_version
FN:733,_RNvNtNtNtCsilPUL3AyWrc_8cuenv_ci2ir6schema5testss_17test_task_minimal
FN:841,_RNvNtNtNtCsilPUL3AyWrc_8cuenv_ci2ir6schema5testss_18test_secret_config
FN:1093,_RNvNtNtNtCsilPUL3AyWrc_8cuenv_ci2ir6schema5testss_19test_ir_with_stages
FN:790,_RNvNtNtNtCsilPUL3AyWrc_8cuenv_ci2ir6schema5testss_21test_task_with_matrix
FN:827,_RNvNtNtNtCsilPUL3AyWrc_8cuenv_ci2ir6schema5testss_22test_artifact_download
FN:970,_RNvNtNtNtCsilPUL3AyWrc_8cuenv_ci2ir6schema5testss_23test_stage_task_default
FN:761,_RNvNtNtNtCsilPUL3AyWrc_8cuenv_ci2ir6schema5testss_25test_task_with_deployment
FN:869,_RNvNtNtNtCsilPUL3AyWrc_8cuenv_ci2ir6schema5testss_26test_full_ir_serialization
FN:994,_RNvNtNtNtCsilPUL3AyWrc_8cuenv_ci2ir6schema5testss_28test_stage_configuration_add
FN:943,_RNvNtNtNtCsilPUL3AyWrc_8cuenv_ci2ir6schema5testss_29test_stage_task_serialization
FN:923,_RNvNtNtNtCsilPUL3AyWrc_8cuenv_ci2ir6schema5testss_30test_build_stage_serialization
FN:721,_RNvNtNtNtCsilPUL3AyWrc_8cuenv_ci2ir6schema5testss_30test_output_type_serialization
FN:691,_RNvNtNtNtCsilPUL3AyWrc_8cuenv_ci2ir6schema5testss_30test_purity_mode_serialization
FN:984,_RNvNtNtNtCsilPUL3AyWrc_8cuenv_ci2ir6schema5testss_30test_stage_configuration_empty
FN:706,_RNvNtNtNtCsilPUL3AyWrc_8cuenv_ci2ir6schema5testss_31test_cache_policy_serialization
FN:1239,_RNvNtNtNtCsilPUL3AyWrc_8cuenv_ci2ir6schema5testss_31test_sort_by_dependencies_chain
FN:1281,_RNvNtNtNtCsilPUL3AyWrc_8cuenv_ci2ir6schema5testss_31test_sort_by_dependencies_empty
FN:1059,_RNvNtNtNtCsilPUL3AyWrc_8cuenv_ci2ir6schema5testss_39test_stage_configuration_setup_task_ids
FN:1023,_RNvNtNtNtCsilPUL3AyWrc_8cuenv_ci2ir6schema5testss_41test_stage_configuration_sort_by_priority
FN:1130,_RNvNtNtNtCsilPUL3AyWrc_8cuenv_ci2ir6schema5testss_45test_sort_by_dependencies_respects_depends_on
FN:1172,_RNvNtNtNtCsilPUL3AyWrc_8cuenv_ci2ir6schema5testss_53test_sort_by_dependencies_uses_priority_as_tiebreaker
FN:1209,_RNvNtNtNtCsilPUL3AyWrc_8cuenv_ci2ir6schema5testss_55test_sort_by_dependencies_ignores_external_dependencies
FN:38,_RINvMNtNtCsilPUL3AyWrc_8cuenv_ci2ir6schemaNtB3_26IntermediateRepresentation3newRNtNtCsganj50Cd8Gx_5alloc6string6StringEB7_
FN:38,_RINvMNtNtCsilPUL3AyWrc_8cuenv_ci2ir6schemaNtB3_26IntermediateRepresentation3newReEB7_
FN:671,_RNCNvMs0_NtNtCsilPUL3AyWrc_8cuenv_ci2ir6schemaNtB7_18StageConfiguration14setup_task_ids0Bb_
FN:581,_RNCNvMs0_NtNtCsilPUL3AyWrc_8cuenv_ci2ir6schemaNtB7_18StageConfiguration30topological_sort_with_priority0Bb_
FN:661,_RNCNvMs0_NtNtCsilPUL3AyWrc_8cuenv_ci2ir6schemaNtB7_18StageConfiguration30topological_sort_with_prioritys1_0Bb_
FN:607,_RNCNvMs0_NtNtCsilPUL3AyWrc_8cuenv_ci2ir6schemaNtB7_18StageConfiguration30topological_sort_with_prioritys_0Bb_
FNDA:0,_RINvMs_NtNtCskfEctF1MPvy_8cuenv_ci2ir6schemaNtB5_4Task16synthetic_matrixpEB9_
FNDA:0,_RINvMs_NtNtCskfEctF1MPvy_8cuenv_ci2ir6schemaNtB5_4Task21synthetic_aggregationpEB9_
FNDA:11,_RNvMs0_NtNtCskfEctF1MPvy_8cuenv_ci2ir6schemaNtB5_18StageConfiguration14setup_task_ids
FNDA:0,_RNvMs0_NtNtCskfEctF1MPvy_8cuenv_ci2ir6schemaNtB5_18StageConfiguration16sort_by_priority
FNDA:7,_RNvMs0_NtNtCskfEctF1MPvy_8cuenv_ci2ir6schemaNtB5_18StageConfiguration20sort_by_dependencies
FNDA:28,_RNvMs0_NtNtCskfEctF1MPvy_8cuenv_ci2ir6schemaNtB5_18StageConfiguration30topological_sort_with_priority
FNDA:10,_RNvMs0_NtNtCskfEctF1MPvy_8cuenv_ci2ir6schemaNtB5_18StageConfiguration3add
FNDA:0,_RNvMs0_NtNtCskfEctF1MPvy_8cuenv_ci2ir6schemaNtB5_18StageConfiguration8is_empty
FNDA:0,_RNvNtNtCskfEctF1MPvy_8cuenv_ci2ir6schema17default_fail_fast
FNDA:0,_RNvNtNtCskfEctF1MPvy_8cuenv_ci2ir6schema7is_zero
FNDA:7,_RINvMNtNtCskfEctF1MPvy_8cuenv_ci2ir6schemaNtB3_26IntermediateRepresentation3newRNtNtCsganj50Cd8Gx_5alloc6string6StringEB7_
FNDA:2,_RNCNvMs0_NtNtCskfEctF1MPvy_8cuenv_ci2ir6schemaNtB7_18StageConfiguration14setup_task_ids0Bb_
FNDA:10,_RNCNvMs0_NtNtCskfEctF1MPvy_8cuenv_ci2ir6schemaNtB7_18StageConfiguration30topological_sort_with_priority0Bb_
FNDA:10,_RNCNvMs0_NtNtCskfEctF1MPvy_8cuenv_ci2ir6schemaNtB7_18StageConfiguration30topological_sort_with_prioritys1_0Bb_
FNDA:10,_RNCNvMs0_NtNtCskfEctF1MPvy_8cuenv_ci2ir6schemaNtB7_18StageConfiguration30topological_sort_with_prioritys_0Bb_
FNDA:0,_RINvMs_NtNtCsilPUL3AyWrc_8cuenv_ci2ir6schemaNtB5_4Task16synthetic_matrixpEB9_
FNDA:0,_RINvMs_NtNtCsilPUL3AyWrc_8cuenv_ci2ir6schemaNtB5_4Task21synthetic_aggregationpEB9_
FNDA:0,_RNvMs0_NtNtCsilPUL3AyWrc_8cuenv_ci2ir6schemaNtB5_18StageConfiguration16sort_by_priority
FNDA:0,_RNvNtNtCsilPUL3AyWrc_8cuenv_ci2ir6schema17default_fail_fast
FNDA:1,_RNvMs0_NtNtCsilPUL3AyWrc_8cuenv_ci2ir6schemaNtB5_18StageConfiguration14setup_task_ids
FNDA:14,_RNvMs0_NtNtCsilPUL3AyWrc_8cuenv_ci2ir6schemaNtB5_18StageConfiguration20sort_by_dependencies
FNDA:56,_RNvMs0_NtNtCsilPUL3AyWrc_8cuenv_ci2ir6schemaNtB5_18StageConfiguration30topological_sort_with_priority
FNDA:21,_RNvMs0_NtNtCsilPUL3AyWrc_8cuenv_ci2ir6schemaNtB5_18StageConfiguration3add
FNDA:7,_RNvMs0_NtNtCsilPUL3AyWrc_8cuenv_ci2ir6schemaNtB5_18StageConfiguration8is_empty
FNDA:6,_RNvNtNtCsilPUL3AyWrc_8cuenv_ci2ir6schema7is_zero
FNDA:1,_RNvNtNtNtCsilPUL3AyWrc_8cuenv_ci2ir6schema5testss_12test_runtime
FNDA:1,_RNvNtNtNtCsilPUL3AyWrc_8cuenv_ci2ir6schema5testss_15test_ir_version
FNDA:1,_RNvNtNtNtCsilPUL3AyWrc_8cuenv_ci2ir6schema5testss_17test_task_minimal
FNDA:1,_RNvNtNtNtCsilPUL3AyWrc_8cuenv_ci2ir6schema5testss_18test_secret_config
FNDA:1,_RNvNtNtNtCsilPUL3AyWrc_8cuenv_ci2ir6schema5testss_19test_ir_with_stages
FNDA:1,_RNvNtNtNtCsilPUL3AyWrc_8cuenv_ci2ir6schema5testss_21test_task_with_matrix
FNDA:1,_RNvNtNtNtCsilPUL3AyWrc_8cuenv_ci2ir6schema5testss_22test_artifact_download
FNDA:1,_RNvNtNtNtCsilPUL3AyWrc_8cuenv_ci2ir6schema5testss_23test_stage_task_default
FNDA:1,_RNvNtNtNtCsilPUL3AyWrc_8cuenv_ci2ir6schema5testss_25test_task_with_deployment
FNDA:1,_RNvNtNtNtCsilPUL3AyWrc_8cuenv_ci2ir6schema5testss_26test_full_ir_serialization
FNDA:1,_RNvNtNtNtCsilPUL3AyWrc_8cuenv_ci2ir6schema5testss_28test_stage_configuration_add
FNDA:1,_RNvNtNtNtCsilPUL3AyWrc_8cuenv_ci2ir6schema5testss_29test_stage_task_serialization
FNDA:1,_RNvNtNtNtCsilPUL3AyWrc_8cuenv_ci2ir6schema5testss_30test_build_stage_serialization
FNDA:1,_RNvNtNtNtCsilPUL3AyWrc_8cuenv_ci2ir6schema5testss_30test_output_type_serialization
FNDA:1,_RNvNtNtNtCsilPUL3AyWrc_8cuenv_ci2ir6schema5testss_30test_purity_mode_serialization
FNDA:1,_RNvNtNtNtCsilPUL3AyWrc_8cuenv_ci2ir6schema5testss_30test_stage_configuration_empty
FNDA:1,_RNvNtNtNtCsilPUL3AyWrc_8cuenv_ci2ir6schema5testss_31test_cache_policy_serialization
FNDA:1,_RNvNtNtNtCsilPUL3AyWrc_8cuenv_ci2ir6schema5testss_31test_sort_by_dependencies_chain
FNDA:1,_RNvNtNtNtCsilPUL3AyWrc_8cuenv_ci2ir6schema5testss_31test_sort_by_dependencies_empty
FNDA:1,_RNvNtNtNtCsilPUL3AyWrc_8cuenv_ci2ir6schema5testss_39test_stage_configuration_setup_task_ids
FNDA:1,_RNvNtNtNtCsilPUL3AyWrc_8cuenv_ci2ir6schema5testss_41test_stage_configuration_sort_by_priority
FNDA:1,_RNvNtNtNtCsilPUL3AyWrc_8cuenv_ci2ir6schema5testss_45test_sort_by_dependencies_respects_depends_on
FNDA:1,_RNvNtNtNtCsilPUL3AyWrc_8cuenv_ci2ir6schema5testss_53test_sort_by_dependencies_uses_priority_as_tiebreaker
FNDA:1,_RNvNtNtNtCsilPUL3AyWrc_8cuenv_ci2ir6schema5testss_55test_sort_by_dependencies_ignores_external_dependencies
FNDA:8,_RINvMNtNtCsilPUL3AyWrc_8cuenv_ci2ir6schemaNtB3_26IntermediateRepresentation3newRNtNtCsganj50Cd8Gx_5alloc6string6StringEB7_
FNDA:13,_RINvMNtNtCsilPUL3AyWrc_8cuenv_ci2ir6schemaNtB3_26IntermediateRepresentation3newReEB7_
FNDA:2,_RNCNvMs0_NtNtCsilPUL3AyWrc_8cuenv_ci2ir6schemaNtB7_18StageConfiguration14setup_task_ids0Bb_
FNDA:14,_RNCNvMs0_NtNtCsilPUL3AyWrc_8cuenv_ci2ir6schemaNtB7_18StageConfiguration30topological_sort_with_priority0Bb_
FNDA:14,_RNCNvMs0_NtNtCsilPUL3AyWrc_8cuenv_ci2ir6schemaNtB7_18StageConfiguration30topological_sort_with_prioritys1_0Bb_
FNDA:14,_RNCNvMs0_NtNtCsilPUL3AyWrc_8cuenv_ci2ir6schemaNtB7_18StageConfiguration30topological_sort_with_prioritys_0Bb_
FNF:39
FNH:35
DA:38,28
DA:39,28
DA:40,28
DA:41,28
DA:42,28
DA:43,28
DA:44,28
DA:45,28
DA:46,28
DA:47,28
DA:48,28
DA:49,28
DA:50,28
DA:51,28
DA:52,28
DA:53,28
DA:265,0
DA:266,0
DA:267,0
DA:268,0
DA:269,0
DA:270,0
DA:271,0
DA:272,0
DA:273,0
DA:274,0
DA:275,0
DA:276,0
DA:277,0
DA:278,0
DA:279,0
DA:280,0
DA:281,0
DA:282,0
DA:283,0
DA:284,0
DA:285,0
DA:286,0
DA:287,0
DA:288,0
DA:289,0
DA:296,0
DA:297,0
DA:298,0
DA:299,0
DA:300,0
DA:301,0
DA:302,0
DA:303,0
DA:304,0
DA:305,0
DA:306,0
DA:307,0
DA:308,0
DA:309,0
DA:310,0
DA:311,0
DA:312,0
DA:313,0
DA:314,0
DA:315,0
DA:316,0
DA:343,0
DA:344,0
DA:345,0
DA:500,6
DA:501,6
DA:502,6
DA:527,7
DA:528,7
DA:529,4
DA:530,4
DA:531,4
DA:532,7
DA:535,31
DA:536,31
DA:537,6
DA:538,24
DA:539,1
DA:540,0
DA:542,31
DA:548,0
DA:549,0
DA:550,0
DA:551,0
DA:552,0
DA:553,0
DA:562,21
DA:563,21
DA:564,21
DA:565,21
DA:566,21
DA:567,21
DA:573,84
DA:576,84
DA:577,73
DA:578,11
DA:581,24
DA:585,11
DA:587,11
DA:589,35
DA:590,24
DA:591,32
DA:593,8
DA:594,4
DA:595,4
DA:596,4
DA:597,4
DA:598,4
DA:599,4
DA:604,11
DA:605,11
DA:606,11
DA:607,24
DA:608,11
DA:612,11
DA:613,35
DA:614,24
DA:615,20
DA:616,20
DA:617,20
DA:618,20
DA:619,20
DA:623,11
DA:624,11
DA:626,35
DA:627,24
DA:628,24
DA:629,24
DA:632,24
DA:633,8
DA:634,4
DA:635,4
DA:636,4
DA:637,4
DA:638,4
DA:639,4
DA:640,0
DA:642,20
DA:647,11
DA:648,0
DA:649,0
DA:651,0
DA:652,0
DA:653,0
DA:654,11
DA:658,11
DA:659,11
DA:660,11
DA:661,24
DA:662,11
DA:663,84
DA:667,12
DA:668,12
DA:669,12
DA:670,12
DA:671,12
DA:672,12
DA:673,12
DA:681,1
DA:682,1
DA:683,1
DA:684,1
DA:685,1
DA:686,1
DA:687,1
DA:688,1
DA:691,1
DA:692,1
DA:693,1
DA:694,1
DA:696,1
DA:697,1
DA:698,1
DA:700,1
DA:701,1
DA:702,1
DA:703,1
DA:706,1
DA:707,1
DA:708,1
DA:710,1
DA:711,1
DA:713,1
DA:714,1
DA:716,1
DA:717,1
DA:718,1
DA:721,1
DA:722,1
DA:723,1
DA:725,1
DA:726,1
DA:727,1
DA:730,1
DA:733,1
DA:734,1
DA:735,1
DA:736,1
DA:737,1
DA:738,1
DA:739,1
DA:740,1
DA:741,1
DA:742,1
DA:743,1
DA:744,1
DA:745,1
DA:746,1
DA:747,1
DA:748,1
DA:749,1
DA:750,1
DA:751,1
DA:752,1
DA:754,1
DA:755,1
DA:756,1
DA:757,1
DA:758,1
DA:761,1
DA:762,1
DA:763,1
DA:764,1
DA:765,1
DA:766,1
DA:767,1
DA:768,1
DA:769,1
DA:770,1
DA:771,1
DA:772,1
DA:773,1
DA:774,1
DA:775,1
DA:776,1
DA:777,1
DA:778,1
DA:779,1
DA:780,1
DA:782,1
DA:783,1
DA:784,1
DA:785,1
DA:786,1
DA:787,1
DA:790,1
DA:791,1
DA:792,1
DA:793,1
DA:794,1
DA:795,1
DA:796,1
DA:797,1
DA:798,1
DA:799,1
DA:800,1
DA:801,1
DA:802,1
DA:803,1
DA:804,1
DA:805,1
DA:806,1
DA:807,1
DA:808,1
DA:809,1
DA:810,1
DA:811,1
DA:812,1
DA:813,1
DA:814,1
DA:815,1
DA:816,1
DA:817,1
DA:819,1
DA:820,1
DA:821,1
DA:822,1
DA:824,1
DA:827,1
DA:828,1
DA:829,1
DA:830,1
DA:831,1
DA:832,1
DA:834,1
DA:835,1
DA:836,1
DA:837,1
DA:838,1
DA:841,1
DA:842,1
DA:843,1
DA:844,1
DA:845,1
DA:847,1
DA:848,1
DA:849,1
DA:850,1
DA:853,1
DA:854,1
DA:855,1
DA:856,1
DA:857,1
DA:858,1
DA:859,1
DA:860,1
DA:861,1
DA:863,1
DA:864,1
DA:865,1
DA:866,1
DA:869,1
DA:870,1
DA:871,1
DA:872,1
DA:873,1
DA:874,1
DA:876,1
DA:877,1
DA:878,1
DA:879,1
DA:880,1
DA:881,1
DA:882,1
DA:883,1
DA:885,1
DA:886,1
DA:887,1
DA:888,1
DA:889,1
DA:890,1
DA:891,1
DA:892,1
DA:893,1
DA:894,1
DA:895,1
DA:896,1
DA:897,1
DA:898,1
DA:899,1
DA:900,1
DA:901,1
DA:902,1
DA:903,1
DA:904,1
DA:905,1
DA:906,1
DA:907,1
DA:908,1
DA:909,1
DA:910,1
DA:912,1
DA:913,1
DA:914,1
DA:915,1
DA:916,1
DA:923,1
DA:924,1
DA:925,1
DA:928,1
DA:929,1
DA:932,1
DA:933,1
DA:936,1
DA:937,1
DA:940,1
DA:943,1
DA:944,1
DA:945,1
DA:946,1
DA:947,1
DA:948,1
DA:949,1
DA:950,1
DA:951,1
DA:952,1
DA:953,1
DA:954,1
DA:955,1
DA:956,1
DA:957,1
DA:958,1
DA:959,1
DA:960,1
DA:962,1
DA:963,1
DA:964,1
DA:965,1
DA:966,1
DA:967,1
DA:970,1
DA:971,1
DA:972,1
DA:973,1
DA:974,1
DA:975,1
DA:976,1
DA:977,1
DA:978,1
DA:979,1
DA:980,1
DA:981,1
DA:984,1
DA:985,1
DA:986,1
DA:987,1
DA:988,1
DA:989,1
DA:990,1
DA:991,1
DA:994,1
DA:995,1
DA:997,1
DA:998,1
DA:999,1
DA:1000,1
DA:1001,1
DA:1002,1
DA:1003,1
DA:1006,1
DA:1007,1
DA:1008,1
DA:1009,1
DA:1010,1
DA:1011,1
DA:1012,1
DA:1015,1
DA:1016,1
DA:1017,1
DA:1018,1
DA:1019,1
DA:1020,1
DA:1023,1
DA:1024,1
DA:1026,1
DA:1027,1
DA:1028,1
DA:1029,1
DA:1030,1
DA:1031,1
DA:1032,1
DA:1034,1
DA:1035,1
DA:1036,1
DA:1037,1
DA:1038,1
DA:1039,1
DA:1040,1
DA:1042,1
DA:1043,1
DA:1044,1
DA:1045,1
DA:1046,1
DA:1047,1
DA:1048,1
DA:1051,1
DA:1053,1
DA:1054,1
DA:1055,1
DA:1056,1
DA:1059,1
DA:1060,1
DA:1062,1
DA:1063,1
DA:1064,1
DA:1065,1
DA:1066,1
DA:1067,1
DA:1069,1
DA:1070,1
DA:1071,1
DA:1072,1
DA:1073,1
DA:1074,1
DA:1076,1
DA:1077,1
DA:1078,1
DA:1079,1
DA:1080,1
DA:1081,1
DA:1084,1
DA:1085,1
DA:1086,1
DA:1087,1
DA:1089,1
DA:1090,1
DA:1093,1
DA:1094,1
DA:1096,1
DA:1097,1
DA:1098,1
DA:1099,1
DA:1100,1
DA:1101,1
DA:1102,1
DA:1103,1
DA:1104,1
DA:1105,1
DA:1106,1
DA:1109,1
DA:1110,1
DA:1111,1
DA:1112,1
DA:1113,1
DA:1114,1
DA:1115,1
DA:1116,1
DA:1117,1
DA:1118,1
DA:1119,1
DA:1122,1
DA:1123,1
DA:1124,1
DA:1125,1
DA:1126,1
DA:1127,1
DA:1130,1
DA:1131,1
DA:1135,1
DA:1136,1
DA:1137,1
DA:1138,1
DA:1139,1
DA:1140,1
DA:1141,1
DA:1142,1
DA:1144,1
DA:1145,1
DA:1146,1
DA:1147,1
DA:1148,1
DA:1149,1
DA:1150,1
DA:1152,1
DA:1153,1
DA:1154,1
DA:1155,1
DA:1156,1
DA:1157,1
DA:1158,1
DA:1161,1
DA:1164,1
DA:1166,1
DA:1168,1
DA:1169,1
DA:1172,1
DA:1173,1
DA:1176,1
DA:1177,1
DA:1178,1
DA:1179,1
DA:1180,1
DA:1181,1
DA:1182,1
DA:1184,1
DA:1185,1
DA:1186,1
DA:1187,1
DA:1188,1
DA:1189,1
DA:1190,1
DA:1192,1
DA:1193,1
DA:1194,1
DA:1195,1
DA:1196,1
DA:1197,1
DA:1198,1
DA:1201,1
DA:1203,1
DA:1204,1
DA:1205,1
DA:1206,1
DA:1209,1
DA:1210,1
DA:1213,1
DA:1214,1
DA:1215,1
DA:1216,1
DA:1217,1
DA:1218,1
DA:1219,1
DA:1220,1
DA:1222,1
DA:1223,1
DA:1224,1
DA:1225,1
DA:1226,1
DA:1227,1
DA:1228,1
DA:1231,1
DA:1234,1
DA:1235,1
DA:1236,1
DA:1239,1
DA:1240,1
DA:1243,1
DA:1244,1
DA:1245,1
DA:1246,1
DA:1247,1
DA:1248,1
DA:1249,1
DA:1250,1
DA:1252,1
DA:1253,1
DA:1254,1
DA:1255,1
DA:1256,1
DA:1257,1
DA:1258,1
DA:1260,1
DA:1261,1
DA:1262,1
DA:1263,1
DA:1264,1
DA:1265,1
DA:1266,1
DA:1267,1
DA:1270,1
DA:1275,1
DA:1276,1
DA:1277,1
DA:1278,1
DA:1281,1
DA:1282,1
DA:1283,1
DA:1284,1
DA:1285,1
BRF:0
BRH:0
LF:634
LH:572
end_of_record
SF:/Users/rawkode/Code/src/github.com/cuenv/cuenv/crates/ci/src/ir/validation.rs
FN:190,_RNCNvMNtNtCskfEctF1MPvy_8cuenv_ci2ir10validationNtB4_11IrValidator32validate_deployment_dependenciess_0B8_
FN:62,_RNCNvMNtNtCskfEctF1MPvy_8cuenv_ci2ir10validationNtB4_11IrValidator8validate0B8_
FN:65,_RNCNvMNtNtCskfEctF1MPvy_8cuenv_ci2ir10validationNtB4_11IrValidator8validates_0B8_
FN:151,_RNvMNtNtCskfEctF1MPvy_8cuenv_ci2ir10validationNtB2_11IrValidator12detect_cycle
FN:120,_RNvMNtNtCskfEctF1MPvy_8cuenv_ci2ir10validationNtB2_11IrValidator16validate_command
FN:134,_RNvMNtNtCskfEctF1MPvy_8cuenv_ci2ir10validationNtB2_11IrValidator18validate_no_cycles
FN:178,_RNvMNtNtCskfEctF1MPvy_8cuenv_ci2ir10validationNtB2_11IrValidator32validate_deployment_dependencies
FN:48,_RNvMNtNtCskfEctF1MPvy_8cuenv_ci2ir10validationNtB2_11IrValidator3new
FN:57,_RNvMNtNtCskfEctF1MPvy_8cuenv_ci2ir10validationNtB2_11IrValidator8validate
FN:221,_RNvNtNtNtCsilPUL3AyWrc_8cuenv_ci2ir10validation5tests16create_test_task
FN:244,_RNvNtNtNtCsilPUL3AyWrc_8cuenv_ci2ir10validation5testss_13test_valid_ir
FN:363,_RNvNtNtNtCsilPUL3AyWrc_8cuenv_ci2ir10validation5testss_18test_empty_command
FN:382,_RNvNtNtNtCsilPUL3AyWrc_8cuenv_ci2ir10validation5testss_20test_missing_runtime
FN:254,_RNvNtNtNtCsilPUL3AyWrc_8cuenv_ci2ir10validation5testss_22test_cyclic_dependency
FN:272,_RNvNtNtNtCsilPUL3AyWrc_8cuenv_ci2ir10validation5testss_23test_missing_dependency
FN:401,_RNvNtNtNtCsilPUL3AyWrc_8cuenv_ci2ir10validation5testss_28test_valid_runtime_reference
FN:345,_RNvNtNtNtCsilPUL3AyWrc_8cuenv_ci2ir10validation5testss_40test_deployment_can_depend_on_deployment
FN:289,_RNvNtNtNtCsilPUL3AyWrc_8cuenv_ci2ir10validation5testss_45test_deployment_task_must_have_disabled_cache
FN:309,_RNvNtNtNtCsilPUL3AyWrc_8cuenv_ci2ir10validation5testss_46test_deployment_task_valid_with_disabled_cache
FN:321,_RNvNtNtNtCsilPUL3AyWrc_8cuenv_ci2ir10validation5testss_47test_non_deployment_cannot_depend_on_deployment
FN:190,_RNCNvMNtNtCsilPUL3AyWrc_8cuenv_ci2ir10validationNtB4_11IrValidator32validate_deployment_dependenciess_0B8_
FN:62,_RNCNvMNtNtCsilPUL3AyWrc_8cuenv_ci2ir10validationNtB4_11IrValidator8validate0B8_
FN:65,_RNCNvMNtNtCsilPUL3AyWrc_8cuenv_ci2ir10validationNtB4_11IrValidator8validates_0B8_
FN:151,_RNvMNtNtCsilPUL3AyWrc_8cuenv_ci2ir10validationNtB2_11IrValidator12detect_cycle
FN:120,_RNvMNtNtCsilPUL3AyWrc_8cuenv_ci2ir10validationNtB2_11IrValidator16validate_command
FN:134,_RNvMNtNtCsilPUL3AyWrc_8cuenv_ci2ir10validationNtB2_11IrValidator18validate_no_cycles
FN:178,_RNvMNtNtCsilPUL3AyWrc_8cuenv_ci2ir10validationNtB2_11IrValidator32validate_deployment_dependencies
FN:48,_RNvMNtNtCsilPUL3AyWrc_8cuenv_ci2ir10validationNtB2_11IrValidator3new
FN:57,_RNvMNtNtCsilPUL3AyWrc_8cuenv_ci2ir10validationNtB2_11IrValidator8validate
FN:233,_RNCNvNtNtNtCsilPUL3AyWrc_8cuenv_ci2ir10validation5tests16create_test_task0B9_
FN:377,_RNCNvNtNtNtCsilPUL3AyWrc_8cuenv_ci2ir10validation5testss_18test_empty_command0B9_
FN:396,_RNCNvNtNtNtCsilPUL3AyWrc_8cuenv_ci2ir10validation5testss_20test_missing_runtime0B9_
FN:267,_RNCNvNtNtNtCsilPUL3AyWrc_8cuenv_ci2ir10validation5testss_22test_cyclic_dependency0B9_
FN:304,_RNCNvNtNtNtCsilPUL3AyWrc_8cuenv_ci2ir10validation5testss_45test_deployment_task_must_have_disabled_cache0B9_
FN:340,_RNCNvNtNtNtCsilPUL3AyWrc_8cuenv_ci2ir10validation5testss_47test_non_deployment_cannot_depend_on_deployment0B9_
FNDA:0,_RNCNvMNtNtCskfEctF1MPvy_8cuenv_ci2ir10validationNtB4_11IrValidator32validate_deployment_dependenciess_0B8_
FNDA:79,_RNCNvMNtNtCskfEctF1MPvy_8cuenv_ci2ir10validationNtB4_11IrValidator8validate0B8_
FNDA:0,_RNCNvMNtNtCskfEctF1MPvy_8cuenv_ci2ir10validationNtB4_11IrValidator8validates_0B8_
FNDA:79,_RNvMNtNtCskfEctF1MPvy_8cuenv_ci2ir10validationNtB2_11IrValidator12detect_cycle
FNDA:79,_RNvMNtNtCskfEctF1MPvy_8cuenv_ci2ir10validationNtB2_11IrValidator16validate_command
FNDA:7,_RNvMNtNtCskfEctF1MPvy_8cuenv_ci2ir10validationNtB2_11IrValidator18validate_no_cycles
FNDA:7,_RNvMNtNtCskfEctF1MPvy_8cuenv_ci2ir10validationNtB2_11IrValidator32validate_deployment_dependencies
FNDA:7,_RNvMNtNtCskfEctF1MPvy_8cuenv_ci2ir10validationNtB2_11IrValidator3new
FNDA:7,_RNvMNtNtCskfEctF1MPvy_8cuenv_ci2ir10validationNtB2_11IrValidator8validate
FNDA:14,_RNvNtNtNtCsilPUL3AyWrc_8cuenv_ci2ir10validation5tests16create_test_task
FNDA:1,_RNvNtNtNtCsilPUL3AyWrc_8cuenv_ci2ir10validation5testss_13test_valid_ir
FNDA:1,_RNvNtNtNtCsilPUL3AyWrc_8cuenv_ci2ir10validation5testss_18test_empty_command
FNDA:1,_RNvNtNtNtCsilPUL3AyWrc_8cuenv_ci2ir10validation5testss_20test_missing_runtime
FNDA:1,_RNvNtNtNtCsilPUL3AyWrc_8cuenv_ci2ir10validation5testss_22test_cyclic_dependency
FNDA:1,_RNvNtNtNtCsilPUL3AyWrc_8cuenv_ci2ir10validation5testss_23test_missing_dependency
FNDA:1,_RNvNtNtNtCsilPUL3AyWrc_8cuenv_ci2ir10validation5testss_28test_valid_runtime_reference
FNDA:1,_RNvNtNtNtCsilPUL3AyWrc_8cuenv_ci2ir10validation5testss_40test_deployment_can_depend_on_deployment
FNDA:1,_RNvNtNtNtCsilPUL3AyWrc_8cuenv_ci2ir10validation5testss_45test_deployment_task_must_have_disabled_cache
FNDA:1,_RNvNtNtNtCsilPUL3AyWrc_8cuenv_ci2ir10validation5testss_46test_deployment_task_valid_with_disabled_cache
FNDA:1,_RNvNtNtNtCsilPUL3AyWrc_8cuenv_ci2ir10validation5testss_47test_non_deployment_cannot_depend_on_deployment
FNDA:6,_RNCNvMNtNtCsilPUL3AyWrc_8cuenv_ci2ir10validationNtB4_11IrValidator32validate_deployment_dependenciess_0B8_
FNDA:23,_RNCNvMNtNtCsilPUL3AyWrc_8cuenv_ci2ir10validationNtB4_11IrValidator8validate0B8_
FNDA:1,_RNCNvMNtNtCsilPUL3AyWrc_8cuenv_ci2ir10validationNtB4_11IrValidator8validates_0B8_
FNDA:24,_RNvMNtNtCsilPUL3AyWrc_8cuenv_ci2ir10validationNtB2_11IrValidator12detect_cycle
FNDA:23,_RNvMNtNtCsilPUL3AyWrc_8cuenv_ci2ir10validationNtB2_11IrValidator16validate_command
FNDA:18,_RNvMNtNtCsilPUL3AyWrc_8cuenv_ci2ir10validationNtB2_11IrValidator18validate_no_cycles
FNDA:18,_RNvMNtNtCsilPUL3AyWrc_8cuenv_ci2ir10validationNtB2_11IrValidator32validate_deployment_dependencies
FNDA:18,_RNvMNtNtCsilPUL3AyWrc_8cuenv_ci2ir10validationNtB2_11IrValidator3new
FNDA:18,_RNvMNtNtCsilPUL3AyWrc_8cuenv_ci2ir10validationNtB2_11IrValidator8validate
FNDA:6,_RNCNvNtNtNtCsilPUL3AyWrc_8cuenv_ci2ir10validation5tests16create_test_task0B9_
FNDA:1,_RNCNvNtNtNtCsilPUL3AyWrc_8cuenv_ci2ir10validation5testss_18test_empty_command0B9_
FNDA:1,_RNCNvNtNtNtCsilPUL3AyWrc_8cuenv_ci2ir10validation5testss_20test_missing_runtime0B9_
FNDA:1,_RNCNvNtNtNtCsilPUL3AyWrc_8cuenv_ci2ir10validation5testss_22test_cyclic_dependency0B9_
FNDA:1,_RNCNvNtNtNtCsilPUL3AyWrc_8cuenv_ci2ir10validation5testss_45test_deployment_task_must_have_disabled_cache0B9_
FNDA:1,_RNCNvNtNtNtCsilPUL3AyWrc_8cuenv_ci2ir10validation5testss_47test_non_deployment_cannot_depend_on_deployment0B9_
FNF:26
FNH:26
DA:48,25
DA:49,25
DA:50,25
DA:57,25
DA:58,25
DA:61,25
DA:62,102
DA:65,25
DA:67,127
DA:69,102
DA:70,1
DA:71,101
DA:74,102
DA:75,2
DA:76,1
DA:77,1
DA:78,1
DA:79,1
DA:80,1
DA:81,101
DA:84,112
DA:85,10
DA:86,1
DA:87,1
DA:88,1
DA:89,1
DA:90,9
DA:94,102
DA:95,1
DA:96,1
DA:97,1
DA:98,1
DA:99,101
DA:103,25
DA:104,1
DA:105,24
DA:108,25
DA:109,1
DA:110,24
DA:112,25
DA:113,19
DA:115,6
DA:117,25
DA:120,102
DA:121,102
DA:122,1
DA:123,1
DA:124,1
DA:125,101
DA:130,101
DA:131,102
DA:134,25
DA:135,25
DA:136,25
DA:138,125
DA:139,101
DA:140,1
DA:141,101
DA:143,1
DA:144,100
DA:147,24
DA:148,25
DA:151,103
DA:152,103
DA:153,103
DA:154,103
DA:155,103
DA:156,103
DA:157,103
DA:158,103
DA:160,103
DA:161,110
DA:162,10
DA:163,2
DA:164,1
DA:165,1
DA:166,8
DA:168,1
DA:169,7
DA:171,1
DA:173,101
DA:174,101
DA:175,103
DA:178,25
DA:179,25
DA:180,25
DA:181,25
DA:182,25
DA:185,25
DA:186,25
DA:187,25
DA:188,25
DA:189,25
DA:190,25
DA:191,25
DA:194,127
DA:195,102
DA:196,105
DA:197,9
DA:198,1
DA:199,1
DA:200,1
DA:201,1
DA:202,8
DA:204,6
DA:207,25
DA:208,24
DA:210,1
DA:212,25
DA:221,14
DA:223,14
DA:224,14
DA:225,14
DA:227,14
DA:228,14
DA:229,14
DA:230,14
DA:231,14
DA:232,14
DA:233,14
DA:234,14
DA:237,14
DA:238,14
DA:239,14
DA:241,14
DA:244,1
DA:245,1
DA:246,1
DA:247,1
DA:249,1
DA:250,1
DA:251,1
DA:254,1
DA:255,1
DA:256,1
DA:257,1
DA:259,1
DA:260,1
DA:261,1
DA:263,1
DA:264,1
DA:265,1
DA:266,1
DA:267,1
DA:269,1
DA:272,1
DA:273,1
DA:274,1
DA:276,1
DA:277,1
DA:278,1
DA:280,1
DA:281,1
DA:282,1
DA:283,1
DA:286,1
DA:289,1
DA:290,1
DA:291,1
DA:292,1
DA:293,1
DA:294,1
DA:296,1
DA:297,1
DA:298,1
DA:300,1
DA:301,1
DA:302,1
DA:303,1
DA:304,1
DA:306,1
DA:309,1
DA:310,1
DA:311,1
DA:312,1
DA:313,1
DA:314,1
DA:316,1
DA:317,1
DA:318,1
DA:321,1
DA:322,1
DA:324,1
DA:325,1
DA:326,1
DA:327,1
DA:329,1
DA:330,1
DA:332,1
DA:333,1
DA:334,1
DA:336,1
DA:337,1
DA:338,1
DA:339,1
DA:340,1
DA:342,1
DA:345,1
DA:346,1
DA:348,1
DA:349,1
DA:350,1
DA:351,1
DA:353,1
DA:354,1
DA:355,1
DA:356,1
DA:358,1
DA:359,1
DA:360,1
DA:363,1
DA:364,1
DA:365,1
DA:366,1
DA:367,1
DA:369,1
DA:370,1
DA:371,1
DA:373,1
DA:374,1
DA:375,1
DA:376,1
DA:377,1
DA:379,1
DA:382,1
DA:383,1
DA:384,1
DA:385,1
DA:386,1
DA:388,1
DA:389,1
DA:390,1
DA:392,1
DA:393,1
DA:394,1
DA:395,1
DA:396,1
DA:398,1
DA:401,1
DA:402,1
DA:403,1
DA:404,1
DA:405,1
DA:406,1
DA:407,1
DA:408,1
DA:409,1
DA:410,1
DA:412,1
DA:413,1
DA:414,1
DA:416,1
DA:417,1
DA:418,1
BRF:0
BRH:0
LF:263
LH:263
end_of_record
SF:/Users/rawkode/Code/src/github.com/cuenv/cuenv/crates/ci/src/pipeline.rs
FN:146,_RNCNCNCNvNtCskfEctF1MPvy_8cuenv_ci8pipeline18expand_task_groups0s2_00B9_
FN:29,_RNCNCNvNtCskfEctF1MPvy_8cuenv_ci8pipeline12filter_tasks00B7_
FN:38,_RNCNCNvNtCskfEctF1MPvy_8cuenv_ci8pipeline12filter_tasks0s0_0B7_
FN:37,_RNCNCNvNtCskfEctF1MPvy_8cuenv_ci8pipeline12filter_tasks0s_0B7_
FN:121,_RNCNCNvNtCskfEctF1MPvy_8cuenv_ci8pipeline18expand_task_groups00B7_
FN:130,_RNCNCNvNtCskfEctF1MPvy_8cuenv_ci8pipeline18expand_task_groups0s0_0B7_
FN:138,_RNCNCNvNtCskfEctF1MPvy_8cuenv_ci8pipeline18expand_task_groups0s1_0B7_
FN:142,_RNCNCNvNtCskfEctF1MPvy_8cuenv_ci8pipeline18expand_task_groups0s2_0B7_
FN:129,_RNCNCNvNtCskfEctF1MPvy_8cuenv_ci8pipeline18expand_task_groups0s_0B7_
FN:28,_RNCNvNtCskfEctF1MPvy_8cuenv_ci8pipeline12filter_tasks0B5_
FN:59,_RNCNvNtCskfEctF1MPvy_8cuenv_ci8pipeline12filter_taskss0_0B5_
FN:52,_RNCNvNtCskfEctF1MPvy_8cuenv_ci8pipeline12filter_taskss_0B5_
FN:117,_RNCNvNtCskfEctF1MPvy_8cuenv_ci8pipeline18expand_task_groups0B5_
FN:24,_RNvNtCskfEctF1MPvy_8cuenv_ci8pipeline12filter_tasks
FN:110,_RNvNtCskfEctF1MPvy_8cuenv_ci8pipeline18expand_task_groups
FN:75,_RNvNtCskfEctF1MPvy_8cuenv_ci8pipeline23resolve_transitive_deps
FN:188,_RNCNvNtNtCsilPUL3AyWrc_8cuenv_ci8pipeline5tests9make_task0B7_
FN:234,_RNCNvNtNtCsilPUL3AyWrc_8cuenv_ci8pipeline5testss_29test_filter_tasks_exact_match0B7_
FN:266,_RNCNvNtNtCsilPUL3AyWrc_8cuenv_ci8pipeline5testss_30test_expand_task_groups_simple0B7_
FN:251,_RNCNvNtNtCsilPUL3AyWrc_8cuenv_ci8pipeline5testss_34test_filter_tasks_prefix_expansion0B7_
FN:200,_RNCNvNtNtCsilPUL3AyWrc_8cuenv_ci8pipeline5testss_35test_resolve_transitive_deps_simple0B7_
FN:146,_RNCNCNCNvNtCsilPUL3AyWrc_8cuenv_ci8pipeline18expand_task_groups0s2_00B9_
FN:29,_RNCNCNvNtCsilPUL3AyWrc_8cuenv_ci8pipeline12filter_tasks00B7_
FN:38,_RNCNCNvNtCsilPUL3AyWrc_8cuenv_ci8pipeline12filter_tasks0s0_0B7_
FN:37,_RNCNCNvNtCsilPUL3AyWrc_8cuenv_ci8pipeline12filter_tasks0s_0B7_
FN:121,_RNCNCNvNtCsilPUL3AyWrc_8cuenv_ci8pipeline18expand_task_groups00B7_
FN:130,_RNCNCNvNtCsilPUL3AyWrc_8cuenv_ci8pipeline18expand_task_groups0s0_0B7_
FN:138,_RNCNCNvNtCsilPUL3AyWrc_8cuenv_ci8pipeline18expand_task_groups0s1_0B7_
FN:142,_RNCNCNvNtCsilPUL3AyWrc_8cuenv_ci8pipeline18expand_task_groups0s2_0B7_
FN:129,_RNCNCNvNtCsilPUL3AyWrc_8cuenv_ci8pipeline18expand_task_groups0s_0B7_
FN:28,_RNCNvNtCsilPUL3AyWrc_8cuenv_ci8pipeline12filter_tasks0B5_
FN:59,_RNCNvNtCsilPUL3AyWrc_8cuenv_ci8pipeline12filter_taskss0_0B5_
FN:52,_RNCNvNtCsilPUL3AyWrc_8cuenv_ci8pipeline12filter_taskss_0B5_
FN:117,_RNCNvNtCsilPUL3AyWrc_8cuenv_ci8pipeline18expand_task_groups0B5_
FN:176,_RNvNtNtCsilPUL3AyWrc_8cuenv_ci8pipeline5tests9make_task
FN:224,_RNvNtNtCsilPUL3AyWrc_8cuenv_ci8pipeline5testss_29test_filter_tasks_exact_match
FN:258,_RNvNtNtCsilPUL3AyWrc_8cuenv_ci8pipeline5testss_30test_expand_task_groups_simple
FN:241,_RNvNtNtCsilPUL3AyWrc_8cuenv_ci8pipeline5testss_34test_filter_tasks_prefix_expansion
FN:199,_RNvNtNtCsilPUL3AyWrc_8cuenv_ci8pipeline5testss_35test_resolve_transitive_deps_simple
FN:272,_RNvNtNtCsilPUL3AyWrc_8cuenv_ci8pipeline5testss_42test_expand_task_groups_matrix_inheritance
FN:24,_RNvNtCsilPUL3AyWrc_8cuenv_ci8pipeline12filter_tasks
FN:110,_RNvNtCsilPUL3AyWrc_8cuenv_ci8pipeline18expand_task_groups
FN:75,_RNvNtCsilPUL3AyWrc_8cuenv_ci8pipeline23resolve_transitive_deps
FNDA:0,_RNCNCNCNvNtCskfEctF1MPvy_8cuenv_ci8pipeline18expand_task_groups0s2_00B9_
FNDA:90,_RNCNCNvNtCskfEctF1MPvy_8cuenv_ci8pipeline12filter_tasks00B7_
FNDA:5,_RNCNCNvNtCskfEctF1MPvy_8cuenv_ci8pipeline12filter_tasks0s0_0B7_
FNDA:50,_RNCNCNvNtCskfEctF1MPvy_8cuenv_ci8pipeline12filter_tasks0s_0B7_
FNDA:10,_RNCNCNvNtCskfEctF1MPvy_8cuenv_ci8pipeline18expand_task_groups00B7_
FNDA:2,_RNCNCNvNtCskfEctF1MPvy_8cuenv_ci8pipeline18expand_task_groups0s0_0B7_
FNDA:2,_RNCNCNvNtCskfEctF1MPvy_8cuenv_ci8pipeline18expand_task_groups0s1_0B7_
FNDA:2,_RNCNCNvNtCskfEctF1MPvy_8cuenv_ci8pipeline18expand_task_groups0s2_0B7_
FNDA:5,_RNCNCNvNtCskfEctF1MPvy_8cuenv_ci8pipeline18expand_task_groups0s_0B7_
FNDA:9,_RNCNvNtCskfEctF1MPvy_8cuenv_ci8pipeline12filter_tasks0B5_
FNDA:79,_RNCNvNtCskfEctF1MPvy_8cuenv_ci8pipeline12filter_taskss0_0B5_
FNDA:79,_RNCNvNtCskfEctF1MPvy_8cuenv_ci8pipeline12filter_taskss_0B5_
FNDA:3,_RNCNvNtCskfEctF1MPvy_8cuenv_ci8pipeline18expand_task_groups0B5_
FNDA:7,_RNvNtCskfEctF1MPvy_8cuenv_ci8pipeline12filter_tasks
FNDA:1,_RNvNtCskfEctF1MPvy_8cuenv_ci8pipeline18expand_task_groups
FNDA:7,_RNvNtCskfEctF1MPvy_8cuenv_ci8pipeline23resolve_transitive_deps
FNDA:5,_RNCNvNtNtCsilPUL3AyWrc_8cuenv_ci8pipeline5tests9make_task0B7_
FNDA:2,_RNCNvNtNtCsilPUL3AyWrc_8cuenv_ci8pipeline5testss_29test_filter_tasks_exact_match0B7_
FNDA:2,_RNCNvNtNtCsilPUL3AyWrc_8cuenv_ci8pipeline5testss_30test_expand_task_groups_simple0B7_
FNDA:2,_RNCNvNtNtCsilPUL3AyWrc_8cuenv_ci8pipeline5testss_34test_filter_tasks_prefix_expansion0B7_
FNDA:1,_RNCNvNtNtCsilPUL3AyWrc_8cuenv_ci8pipeline5testss_35test_resolve_transitive_deps_simple0B7_
FNDA:1,_RNCNCNCNvNtCsilPUL3AyWrc_8cuenv_ci8pipeline18expand_task_groups0s2_00B9_
FNDA:5,_RNCNCNvNtCsilPUL3AyWrc_8cuenv_ci8pipeline12filter_tasks00B7_
FNDA:2,_RNCNCNvNtCsilPUL3AyWrc_8cuenv_ci8pipeline12filter_tasks0s0_0B7_
FNDA:3,_RNCNCNvNtCsilPUL3AyWrc_8cuenv_ci8pipeline12filter_tasks0s_0B7_
FNDA:4,_RNCNCNvNtCsilPUL3AyWrc_8cuenv_ci8pipeline18expand_task_groups00B7_
FNDA:4,_RNCNCNvNtCsilPUL3AyWrc_8cuenv_ci8pipeline18expand_task_groups0s0_0B7_
FNDA:4,_RNCNCNvNtCsilPUL3AyWrc_8cuenv_ci8pipeline18expand_task_groups0s1_0B7_
FNDA:4,_RNCNCNvNtCsilPUL3AyWrc_8cuenv_ci8pipeline18expand_task_groups0s2_0B7_
FNDA:4,_RNCNCNvNtCsilPUL3AyWrc_8cuenv_ci8pipeline18expand_task_groups0s_0B7_
FNDA:2,_RNCNvNtCsilPUL3AyWrc_8cuenv_ci8pipeline12filter_tasks0B5_
FNDA:6,_RNCNvNtCsilPUL3AyWrc_8cuenv_ci8pipeline12filter_taskss0_0B5_
FNDA:6,_RNCNvNtCsilPUL3AyWrc_8cuenv_ci8pipeline12filter_taskss_0B5_
FNDA:2,_RNCNvNtCsilPUL3AyWrc_8cuenv_ci8pipeline18expand_task_groups0B5_
FNDA:10,_RNvNtNtCsilPUL3AyWrc_8cuenv_ci8pipeline5tests9make_task
FNDA:1,_RNvNtNtCsilPUL3AyWrc_8cuenv_ci8pipeline5testss_29test_filter_tasks_exact_match
FNDA:1,_RNvNtNtCsilPUL3AyWrc_8cuenv_ci8pipeline5testss_30test_expand_task_groups_simple
FNDA:1,_RNvNtNtCsilPUL3AyWrc_8cuenv_ci8pipeline5testss_34test_filter_tasks_prefix_expansion
FNDA:1,_RNvNtNtCsilPUL3AyWrc_8cuenv_ci8pipeline5testss_35test_resolve_transitive_deps_simple
FNDA:1,_RNvNtNtCsilPUL3AyWrc_8cuenv_ci8pipeline5testss_42test_expand_task_groups_matrix_inheritance
FNDA:2,_RNvNtCsilPUL3AyWrc_8cuenv_ci8pipeline12filter_tasks
FNDA:2,_RNvNtCsilPUL3AyWrc_8cuenv_ci8pipeline18expand_task_groups
FNDA:3,_RNvNtCsilPUL3AyWrc_8cuenv_ci8pipeline23resolve_transitive_deps
FNF:27
FNH:27
DA:24,9
DA:26,9
DA:27,9
DA:28,11
DA:29,95
DA:30,11
DA:31,8
DA:34,3
DA:35,3
DA:36,3
DA:37,53
DA:38,7
DA:39,3
DA:40,3
DA:41,0
DA:43,3
DA:46,11
DA:47,9
DA:50,9
DA:51,9
DA:52,85
DA:53,9
DA:55,9
DA:57,9
DA:58,9
DA:59,85
DA:60,9
DA:61,9
DA:75,10
DA:76,10
DA:77,10
DA:78,10
DA:79,10
DA:80,10
DA:82,30
DA:83,20
DA:84,24
DA:85,4
DA:86,4
DA:87,4
DA:89,0
DA:91,10
DA:92,10
DA:110,3
DA:111,3
DA:112,3
DA:113,3
DA:114,3
DA:115,3
DA:116,3
DA:117,5
DA:118,5
DA:121,14
DA:122,2
DA:123,3
DA:126,3
DA:127,3
DA:128,3
DA:129,9
DA:130,6
DA:131,3
DA:133,3
DA:134,0
DA:135,3
DA:138,6
DA:140,3
DA:141,3
DA:142,6
DA:143,6
DA:144,6
DA:145,6
DA:146,6
DA:148,6
DA:149,2
DA:150,4
DA:151,4
DA:152,1
DA:155,3
DA:156,3
DA:157,3
DA:158,3
DA:159,3
DA:160,3
DA:164,6
DA:165,3
DA:166,5
DA:167,3
DA:168,3
DA:176,10
DA:178,10
DA:179,10
DA:180,10
DA:182,10
DA:183,10
DA:184,10
DA:185,10
DA:186,10
DA:187,10
DA:188,10
DA:189,10
DA:192,10
DA:193,10
DA:194,10
DA:196,10
DA:199,1
DA:200,1
DA:203,1
DA:204,1
DA:205,1
DA:207,1
DA:208,1
DA:209,1
DA:210,1
DA:211,1
DA:212,1
DA:213,1
DA:215,1
DA:217,1
DA:218,1
DA:219,1
DA:220,1
DA:221,1
DA:224,1
DA:225,1
DA:226,1
DA:227,1
DA:228,1
DA:231,1
DA:234,2
DA:235,1
DA:236,1
DA:237,1
DA:238,1
DA:241,1
DA:242,1
DA:243,1
DA:244,1
DA:245,1
DA:249,1
DA:251,2
DA:252,1
DA:253,1
DA:254,1
DA:255,1
DA:258,1
DA:259,1
DA:260,1
DA:261,1
DA:263,1
DA:265,1
DA:266,2
DA:267,1
DA:268,1
DA:269,1
DA:272,1
DA:273,1
DA:274,1
DA:275,1
DA:277,1
DA:278,1
DA:279,1
DA:280,1
DA:281,1
DA:282,1
DA:283,1
DA:284,1
DA:285,1
DA:287,1
DA:289,1
DA:293,3
DA:294,1
DA:295,1
DA:297,1
DA:299,1
DA:300,1
DA:301,1
DA:302,0
DA:305,1
BRF:0
BRH:0
LF:196
LH:192
end_of_record
SF:/Users/rawkode/Code/src/github.com/cuenv/cuenv/crates/ci/src/provider/local.rs
FN:17,_RNvMNtNtCskfEctF1MPvy_8cuenv_ci8provider5localNtB2_13LocalProvider13with_base_ref
FN:87,_RNvXs_NtNtCskfEctF1MPvy_8cuenv_ci8provider5localNtB4_13LocalProviderNtB6_10CIProvider12create_check
FN:93,_RNvXs_NtNtCskfEctF1MPvy_8cuenv_ci8provider5localNtB4_13LocalProviderNtB6_10CIProvider12update_check
FN:51,_RNvXs_NtNtCskfEctF1MPvy_8cuenv_ci8provider5localNtB4_13LocalProviderNtB6_10CIProvider13changed_files
FN:101,_RNvXs_NtNtCskfEctF1MPvy_8cuenv_ci8provider5localNtB4_13LocalProviderNtB6_10CIProvider13upload_report
FN:97,_RNvXs_NtNtCskfEctF1MPvy_8cuenv_ci8provider5localNtB4_13LocalProviderNtB6_10CIProvider14complete_check
FN:33,_RNvXs_NtNtCskfEctF1MPvy_8cuenv_ci8provider5localNtB4_13LocalProviderNtB6_10CIProvider6detect
FN:47,_RNvXs_NtNtCskfEctF1MPvy_8cuenv_ci8provider5localNtB4_13LocalProviderNtB6_10CIProvider7context
FN:163,_RNCNvNtNtNtCsilPUL3AyWrc_8cuenv_ci8provider5local5testss_32test_local_provider_create_check0B9_
FN:170,_RNCNvNtNtNtCsilPUL3AyWrc_8cuenv_ci8provider5local5testss_32test_local_provider_update_check0B9_
FN:199,_RNCNvNtNtNtCsilPUL3AyWrc_8cuenv_ci8provider5local5testss_33test_local_provider_changed_files0B9_
FN:180,_RNCNvNtNtNtCsilPUL3AyWrc_8cuenv_ci8provider5local5testss_34test_local_provider_complete_check0B9_
FN:191,_RNCNvNtNtNtCsilPUL3AyWrc_8cuenv_ci8provider5local5testss_46test_local_provider_upload_report_returns_none0B9_
FN:208,_RNCNvNtNtNtCsilPUL3AyWrc_8cuenv_ci8provider5local5testss_47test_local_provider_with_base_ref_changed_files0B9_
FN:111,_RNvNtNtNtCsilPUL3AyWrc_8cuenv_ci8provider5local5tests16make_test_report
FN:133,_RNvNtNtNtCsilPUL3AyWrc_8cuenv_ci8provider5local5testss_26test_local_provider_detect
FN:156,_RNvNtNtNtCsilPUL3AyWrc_8cuenv_ci8provider5local5testss_31test_local_provider_context_sha
FN:163,_RNvNtNtNtCsilPUL3AyWrc_8cuenv_ci8provider5local5testss_32test_local_provider_create_check
FN:170,_RNvNtNtNtCsilPUL3AyWrc_8cuenv_ci8provider5local5testss_32test_local_provider_update_check
FN:199,_RNvNtNtNtCsilPUL3AyWrc_8cuenv_ci8provider5local5testss_33test_local_provider_changed_files
FN:146,_RNvNtNtNtCsilPUL3AyWrc_8cuenv_ci8provider5local5testss_33test_local_provider_with_base_ref
FN:180,_RNvNtNtNtCsilPUL3AyWrc_8cuenv_ci8provider5local5testss_34test_local_provider_complete_check
FN:191,_RNvNtNtNtCsilPUL3AyWrc_8cuenv_ci8provider5local5testss_46test_local_provider_upload_report_returns_none
FN:208,_RNvNtNtNtCsilPUL3AyWrc_8cuenv_ci8provider5local5testss_47test_local_provider_with_base_ref_changed_files
FN:17,_RNvMNtNtCsilPUL3AyWrc_8cuenv_ci8provider5localNtB2_13LocalProvider13with_base_ref
FN:87,_RNvXs_NtNtCsilPUL3AyWrc_8cuenv_ci8provider5localNtB4_13LocalProviderNtB6_10CIProvider12create_check
FN:93,_RNvXs_NtNtCsilPUL3AyWrc_8cuenv_ci8provider5localNtB4_13LocalProviderNtB6_10CIProvider12update_check
FN:51,_RNvXs_NtNtCsilPUL3AyWrc_8cuenv_ci8provider5localNtB4_13LocalProviderNtB6_10CIProvider13changed_files
FN:101,_RNvXs_NtNtCsilPUL3AyWrc_8cuenv_ci8provider5localNtB4_13LocalProviderNtB6_10CIProvider13upload_report
FN:97,_RNvXs_NtNtCsilPUL3AyWrc_8cuenv_ci8provider5localNtB4_13LocalProviderNtB6_10CIProvider14complete_check
FN:33,_RNvXs_NtNtCsilPUL3AyWrc_8cuenv_ci8provider5localNtB4_13LocalProviderNtB6_10CIProvider6detect
FN:47,_RNvXs_NtNtCsilPUL3AyWrc_8cuenv_ci8provider5localNtB4_13LocalProviderNtB6_10CIProvider7context
FNDA:0,_RNvMNtNtCskfEctF1MPvy_8cuenv_ci8provider5localNtB2_13LocalProvider13with_base_ref
FNDA:0,_RNvXs_NtNtCskfEctF1MPvy_8cuenv_ci8provider5localNtB4_13LocalProviderNtB6_10CIProvider12create_check
FNDA:0,_RNvXs_NtNtCskfEctF1MPvy_8cuenv_ci8provider5localNtB4_13LocalProviderNtB6_10CIProvider12update_check
FNDA:0,_RNvXs_NtNtCskfEctF1MPvy_8cuenv_ci8provider5localNtB4_13LocalProviderNtB6_10CIProvider13changed_files
FNDA:0,_RNvXs_NtNtCskfEctF1MPvy_8cuenv_ci8provider5localNtB4_13LocalProviderNtB6_10CIProvider13upload_report
FNDA:0,_RNvXs_NtNtCskfEctF1MPvy_8cuenv_ci8provider5localNtB4_13LocalProviderNtB6_10CIProvider14complete_check
FNDA:0,_RNvXs_NtNtCskfEctF1MPvy_8cuenv_ci8provider5localNtB4_13LocalProviderNtB6_10CIProvider6detect
FNDA:0,_RNvXs_NtNtCskfEctF1MPvy_8cuenv_ci8provider5localNtB4_13LocalProviderNtB6_10CIProvider7context
FNDA:1,_RNCNvNtNtNtCsilPUL3AyWrc_8cuenv_ci8provider5local5testss_32test_local_provider_create_check0B9_
FNDA:1,_RNCNvNtNtNtCsilPUL3AyWrc_8cuenv_ci8provider5local5testss_32test_local_provider_update_check0B9_
FNDA:1,_RNCNvNtNtNtCsilPUL3AyWrc_8cuenv_ci8provider5local5testss_33test_local_provider_changed_files0B9_
FNDA:1,_RNCNvNtNtNtCsilPUL3AyWrc_8cuenv_ci8provider5local5testss_34test_local_provider_complete_check0B9_
FNDA:1,_RNCNvNtNtNtCsilPUL3AyWrc_8cuenv_ci8provider5local5testss_46test_local_provider_upload_report_returns_none0B9_
FNDA:1,_RNCNvNtNtNtCsilPUL3AyWrc_8cuenv_ci8provider5local5testss_47test_local_provider_with_base_ref_changed_files0B9_
FNDA:2,_RNvNtNtNtCsilPUL3AyWrc_8cuenv_ci8provider5local5tests16make_test_report
FNDA:1,_RNvNtNtNtCsilPUL3AyWrc_8cuenv_ci8provider5local5testss_26test_local_provider_detect
FNDA:1,_RNvNtNtNtCsilPUL3AyWrc_8cuenv_ci8provider5local5testss_31test_local_provider_context_sha
FNDA:1,_RNvNtNtNtCsilPUL3AyWrc_8cuenv_ci8provider5local5testss_32test_local_provider_create_check
FNDA:1,_RNvNtNtNtCsilPUL3AyWrc_8cuenv_ci8provider5local5testss_32test_local_provider_update_check
FNDA:1,_RNvNtNtNtCsilPUL3AyWrc_8cuenv_ci8provider5local5testss_33test_local_provider_changed_files
FNDA:1,_RNvNtNtNtCsilPUL3AyWrc_8cuenv_ci8provider5local5testss_33test_local_provider_with_base_ref
FNDA:1,_RNvNtNtNtCsilPUL3AyWrc_8cuenv_ci8provider5local5testss_34test_local_provider_complete_check
FNDA:1,_RNvNtNtNtCsilPUL3AyWrc_8cuenv_ci8provider5local5testss_46test_local_provider_upload_report_returns_none
FNDA:1,_RNvNtNtNtCsilPUL3AyWrc_8cuenv_ci8provider5local5testss_47test_local_provider_with_base_ref_changed_files
FNDA:2,_RNvMNtNtCsilPUL3AyWrc_8cuenv_ci8provider5localNtB2_13LocalProvider13with_base_ref
FNDA:1,_RNvXs_NtNtCsilPUL3AyWrc_8cuenv_ci8provider5localNtB4_13LocalProviderNtB6_10CIProvider12create_check
FNDA:1,_RNvXs_NtNtCsilPUL3AyWrc_8cuenv_ci8provider5localNtB4_13LocalProviderNtB6_10CIProvider12update_check
FNDA:2,_RNvXs_NtNtCsilPUL3AyWrc_8cuenv_ci8provider5localNtB4_13LocalProviderNtB6_10CIProvider13changed_files
FNDA:1,_RNvXs_NtNtCsilPUL3AyWrc_8cuenv_ci8provider5localNtB4_13LocalProviderNtB6_10CIProvider13upload_report
FNDA:1,_RNvXs_NtNtCsilPUL3AyWrc_8cuenv_ci8provider5localNtB4_13LocalProviderNtB6_10CIProvider14complete_check
FNDA:7,_RNvXs_NtNtCsilPUL3AyWrc_8cuenv_ci8provider5localNtB4_13LocalProviderNtB6_10CIProvider6detect
FNDA:3,_RNvXs_NtNtCsilPUL3AyWrc_8cuenv_ci8provider5localNtB4_13LocalProviderNtB6_10CIProvider7context
FNF:24
FNH:24
DA:17,2
DA:18,2
DA:19,2
DA:20,2
DA:21,2
DA:22,2
DA:23,2
DA:24,2
DA:25,2
DA:26,2
DA:27,2
DA:28,2
DA:33,7
DA:35,7
DA:36,7
DA:37,7
DA:38,7
DA:39,7
DA:40,7
DA:41,7
DA:42,7
DA:43,7
DA:44,7
DA:45,7
DA:47,3
DA:48,3
DA:49,3
DA:51,2
DA:85,2
DA:87,1
DA:91,1
DA:93,1
DA:95,1
DA:97,1
DA:99,1
DA:101,1
DA:103,1
DA:111,2
DA:112,2
DA:113,2
DA:114,2
DA:115,2
DA:116,2
DA:117,2
DA:118,2
DA:119,2
DA:120,2
DA:121,2
DA:122,2
DA:123,2
DA:124,2
DA:125,2
DA:126,2
DA:127,2
DA:128,2
DA:129,2
DA:130,2
DA:133,1
DA:134,1
DA:135,1
DA:137,1
DA:138,1
DA:139,1
DA:140,1
DA:141,1
DA:142,1
DA:143,1
DA:146,1
DA:147,1
DA:148,1
DA:150,1
DA:151,1
DA:152,1
DA:153,1
DA:156,1
DA:157,1
DA:158,1
DA:159,1
DA:160,1
DA:163,1
DA:164,1
DA:165,1
DA:166,1
DA:167,1
DA:170,1
DA:171,1
DA:172,1
DA:173,1
DA:174,1
DA:175,1
DA:176,1
DA:177,1
DA:180,1
DA:181,1
DA:182,1
DA:183,1
DA:184,1
DA:185,1
DA:186,1
DA:187,1
DA:188,1
DA:191,1
DA:192,1
DA:193,1
DA:194,1
DA:195,1
DA:196,1
DA:199,1
DA:201,1
DA:202,1
DA:204,1
DA:205,1
DA:208,1
DA:210,1
DA:211,1
DA:213,1
DA:214,1
BRF:0
BRH:0
LF:129
LH:129
end_of_record
SF:/Users/rawkode/Code/src/github.com/cuenv/cuenv/crates/ci/src/render.rs
FN:59,_RNvYNtNtNtCs5Ede22ms1ef_12cuenv_github8workflow14stage_renderer19GitHubStageRendererNtNtCskfEctF1MPvy_8cuenv_ci6render13StageRenderer16render_bootstrapB8_
FN:66,_RNCNvYNtNtNtCs5Ede22ms1ef_12cuenv_github8workflow14stage_renderer19GitHubStageRendererNtNtCskfEctF1MPvy_8cuenv_ci6render13StageRenderer16render_bootstrap0Ba_
FN:76,_RNCNvYpNtNtCskfEctF1MPvy_8cuenv_ci6render13StageRenderer12render_setup0B9_
FN:94,_RNCNvYpNtNtCskfEctF1MPvy_8cuenv_ci6render13StageRenderer14render_failure0B9_
FN:85,_RNCNvYpNtNtCskfEctF1MPvy_8cuenv_ci6render13StageRenderer14render_success0B9_
FN:66,_RNCNvYpNtNtCskfEctF1MPvy_8cuenv_ci6render13StageRenderer16render_bootstrap0B9_
FN:75,_RNvYpNtNtCskfEctF1MPvy_8cuenv_ci6render13StageRenderer12render_setupB7_
FN:93,_RNvYpNtNtCskfEctF1MPvy_8cuenv_ci6render13StageRenderer14render_failureB7_
FN:84,_RNvYpNtNtCskfEctF1MPvy_8cuenv_ci6render13StageRenderer14render_successB7_
FN:59,_RNvYpNtNtCskfEctF1MPvy_8cuenv_ci6render13StageRenderer16render_bootstrapB7_
FN:107,_RNvMNtCskfEctF1MPvy_8cuenv_ci6renderNtNtNtB4_2ir6schema9StageTask14command_string
FN:101,_RNvMNtCskfEctF1MPvy_8cuenv_ci6renderNtNtNtB4_2ir6schema9StageTask5label
FN:102,_RNCNvMNtCskfEctF1MPvy_8cuenv_ci6renderNtNtNtB6_2ir6schema9StageTask5label0B6_
FN:102,_RNCNvMNtCsilPUL3AyWrc_8cuenv_ci6renderNtNtNtB6_2ir6schema9StageTask5label0B6_
FN:76,_RNCNvYNtNtNtCsilPUL3AyWrc_8cuenv_ci6render5tests12TestRendererNtB8_13StageRenderer12render_setup0Ba_
FN:94,_RNCNvYpNtNtCsilPUL3AyWrc_8cuenv_ci6render13StageRenderer14render_failure0B9_
FN:85,_RNCNvYpNtNtCsilPUL3AyWrc_8cuenv_ci6render13StageRenderer14render_success0B9_
FN:66,_RNCNvYpNtNtCsilPUL3AyWrc_8cuenv_ci6render13StageRenderer16render_bootstrap0B9_
FN:93,_RNvYpNtNtCsilPUL3AyWrc_8cuenv_ci6render13StageRenderer14render_failureB7_
FN:84,_RNvYpNtNtCsilPUL3AyWrc_8cuenv_ci6render13StageRenderer14render_successB7_
FN:59,_RNvYpNtNtCsilPUL3AyWrc_8cuenv_ci6render13StageRenderer16render_bootstrapB7_
FN:107,_RNvMNtCsilPUL3AyWrc_8cuenv_ci6renderNtNtNtB4_2ir6schema9StageTask14command_string
FN:101,_RNvMNtCsilPUL3AyWrc_8cuenv_ci6renderNtNtNtB4_2ir6schema9StageTask5label
FN:130,_RNvNtNtCsilPUL3AyWrc_8cuenv_ci6render5testss_23test_render_setup_tasks
FN:157,_RNvNtNtCsilPUL3AyWrc_8cuenv_ci6render5testss_30test_stage_task_label_fallback
FN:124,_RNvXNtNtCsilPUL3AyWrc_8cuenv_ci6render5testsNtB2_12TestRendererNtB4_13StageRenderer11render_task
FN:75,_RNvYNtNtNtCsilPUL3AyWrc_8cuenv_ci6render5tests12TestRendererNtB6_13StageRenderer12render_setupB8_
FN:76,_RNCNvYNtNtNtCs6rrL7nIAKeH_12cuenv_github8workflow14stage_renderer19GitHubStageRendererNtNtCskfEctF1MPvy_8cuenv_ci6render13StageRenderer12render_setup0Ba_
FN:66,_RNCNvYNtNtNtCs6rrL7nIAKeH_12cuenv_github8workflow14stage_renderer19GitHubStageRendererNtNtCskfEctF1MPvy_8cuenv_ci6render13StageRenderer16render_bootstrap0Ba_
FN:75,_RNvYNtNtNtCs6rrL7nIAKeH_12cuenv_github8workflow14stage_renderer19GitHubStageRendererNtNtCskfEctF1MPvy_8cuenv_ci6render13StageRenderer12render_setupB8_
FN:59,_RNvYNtNtNtCs6rrL7nIAKeH_12cuenv_github8workflow14stage_renderer19GitHubStageRendererNtNtCskfEctF1MPvy_8cuenv_ci6render13StageRenderer16render_bootstrapB8_
FNDA:14,_RNvYNtNtNtCs5Ede22ms1ef_12cuenv_github8workflow14stage_renderer19GitHubStageRendererNtNtCskfEctF1MPvy_8cuenv_ci6render13StageRenderer16render_bootstrapB8_
FNDA:10,_RNCNvYNtNtNtCs5Ede22ms1ef_12cuenv_github8workflow14stage_renderer19GitHubStageRendererNtNtCskfEctF1MPvy_8cuenv_ci6render13StageRenderer16render_bootstrap0Ba_
FNDA:0,_RNCNvYpNtNtCskfEctF1MPvy_8cuenv_ci6render13StageRenderer12render_setup0B9_
FNDA:0,_RNCNvYpNtNtCskfEctF1MPvy_8cuenv_ci6render13StageRenderer14render_failure0B9_
FNDA:0,_RNCNvYpNtNtCskfEctF1MPvy_8cuenv_ci6render13StageRenderer14render_success0B9_
FNDA:0,_RNCNvYpNtNtCskfEctF1MPvy_8cuenv_ci6render13StageRenderer16render_bootstrap0B9_
FNDA:0,_RNvYpNtNtCskfEctF1MPvy_8cuenv_ci6render13StageRenderer12render_setupB7_
FNDA:0,_RNvYpNtNtCskfEctF1MPvy_8cuenv_ci6render13StageRenderer14render_failureB7_
FNDA:0,_RNvYpNtNtCskfEctF1MPvy_8cuenv_ci6render13StageRenderer14render_successB7_
FNDA:0,_RNvYpNtNtCskfEctF1MPvy_8cuenv_ci6render13StageRenderer16render_bootstrapB7_
FNDA:24,_RNvMNtCskfEctF1MPvy_8cuenv_ci6renderNtNtNtB4_2ir6schema9StageTask14command_string
FNDA:47,_RNvMNtCskfEctF1MPvy_8cuenv_ci6renderNtNtNtB4_2ir6schema9StageTask5label
FNDA:3,_RNCNvMNtCskfEctF1MPvy_8cuenv_ci6renderNtNtNtB6_2ir6schema9StageTask5label0B6_
FNDA:1,_RNCNvMNtCsilPUL3AyWrc_8cuenv_ci6renderNtNtNtB6_2ir6schema9StageTask5label0B6_
FNDA:2,_RNCNvYNtNtNtCsilPUL3AyWrc_8cuenv_ci6render5tests12TestRendererNtB8_13StageRenderer12render_setup0Ba_
FNDA:0,_RNCNvYpNtNtCsilPUL3AyWrc_8cuenv_ci6render13StageRenderer14render_failure0B9_
FNDA:0,_RNCNvYpNtNtCsilPUL3AyWrc_8cuenv_ci6render13StageRenderer14render_success0B9_
FNDA:0,_RNCNvYpNtNtCsilPUL3AyWrc_8cuenv_ci6render13StageRenderer16render_bootstrap0B9_
FNDA:0,_RNvYpNtNtCsilPUL3AyWrc_8cuenv_ci6render13StageRenderer14render_failureB7_
FNDA:0,_RNvYpNtNtCsilPUL3AyWrc_8cuenv_ci6render13StageRenderer14render_successB7_
FNDA:0,_RNvYpNtNtCsilPUL3AyWrc_8cuenv_ci6render13StageRenderer16render_bootstrapB7_
FNDA:2,_RNvMNtCsilPUL3AyWrc_8cuenv_ci6renderNtNtNtB4_2ir6schema9StageTask14command_string
FNDA:2,_RNvMNtCsilPUL3AyWrc_8cuenv_ci6renderNtNtNtB4_2ir6schema9StageTask5label
FNDA:1,_RNvNtNtCsilPUL3AyWrc_8cuenv_ci6render5testss_23test_render_setup_tasks
FNDA:1,_RNvNtNtCsilPUL3AyWrc_8cuenv_ci6render5testss_30test_stage_task_label_fallback
FNDA:2,_RNvXNtNtCsilPUL3AyWrc_8cuenv_ci6render5testsNtB2_12TestRendererNtB4_13StageRenderer11render_task
FNDA:1,_RNvYNtNtNtCsilPUL3AyWrc_8cuenv_ci6render5tests12TestRendererNtB6_13StageRenderer12render_setupB8_
FNDA:2,_RNCNvYNtNtNtCs6rrL7nIAKeH_12cuenv_github8workflow14stage_renderer19GitHubStageRendererNtNtCskfEctF1MPvy_8cuenv_ci6render13StageRenderer12render_setup0Ba_
FNDA:3,_RNCNvYNtNtNtCs6rrL7nIAKeH_12cuenv_github8workflow14stage_renderer19GitHubStageRendererNtNtCskfEctF1MPvy_8cuenv_ci6render13StageRenderer16render_bootstrap0Ba_
FNDA:1,_RNvYNtNtNtCs6rrL7nIAKeH_12cuenv_github8workflow14stage_renderer19GitHubStageRendererNtNtCskfEctF1MPvy_8cuenv_ci6render13StageRenderer12render_setupB8_
FNDA:31,_RNvYNtNtNtCs6rrL7nIAKeH_12cuenv_github8workflow14stage_renderer19GitHubStageRendererNtNtCskfEctF1MPvy_8cuenv_ci6render13StageRenderer16render_bootstrapB8_
FNF:14
FNH:10
DA:59,45
DA:60,45
DA:61,45
DA:62,45
DA:63,45
DA:64,45
DA:65,45
DA:66,45
DA:67,45
DA:68,45
DA:75,2
DA:76,4
DA:77,2
DA:84,0
DA:85,0
DA:86,0
DA:93,0
DA:94,0
DA:95,0
DA:101,49
DA:102,49
DA:103,49
DA:107,26
DA:108,26
DA:109,26
DA:124,2
DA:125,2
DA:126,2
DA:130,1
DA:131,1
DA:132,1
DA:133,1
DA:134,1
DA:135,1
DA:136,1
DA:137,1
DA:138,1
DA:139,1
DA:140,1
DA:141,1
DA:142,1
DA:143,1
DA:144,1
DA:145,1
DA:146,1
DA:148,1
DA:149,1
DA:151,1
DA:152,1
DA:153,1
DA:154,1
DA:157,1
DA:158,1
DA:159,1
DA:160,1
DA:161,1
DA:162,1
DA:163,1
DA:165,1
DA:166,1
DA:167,1
DA:168,1
DA:169,1
DA:170,1
BRF:0
BRH:0
LF:69
LH:61
end_of_record
SF:/Users/rawkode/Code/src/github.com/cuenv/cuenv/crates/ci/src/report/json.rs
FN:8,_RNvNtNtCskfEctF1MPvy_8cuenv_ci6report4json12write_report
FN:11,_RNCNvNtNtCskfEctF1MPvy_8cuenv_ci6report4json12write_report0B7_
FN:11,_RNCNvNtNtCsilPUL3AyWrc_8cuenv_ci6report4json12write_report0B7_
FN:25,_RNvNtNtNtCsilPUL3AyWrc_8cuenv_ci6report4json5tests18create_test_report
FN:147,_RNvNtNtNtCsilPUL3AyWrc_8cuenv_ci6report4json5testss_29test_write_report_cached_task
FN:78,_RNvNtNtNtCsilPUL3AyWrc_8cuenv_ci6report4json5testss_31test_write_report_pretty_prints
FN:110,_RNvNtNtNtCsilPUL3AyWrc_8cuenv_ci6report4json5testss_32test_write_report_includes_tasks
FN:185,_RNvNtNtNtCsilPUL3AyWrc_8cuenv_ci6report4json5testss_32test_write_report_multiple_tasks
FN:128,_RNvNtNtNtCsilPUL3AyWrc_8cuenv_ci6report4json5testss_33test_write_report_failed_pipeline
FN:92,_RNvNtNtNtCsilPUL3AyWrc_8cuenv_ci6report4json5testss_34test_write_report_includes_context
FN:55,_RNvNtNtNtCsilPUL3AyWrc_8cuenv_ci6report4json5testss_36test_write_report_creates_valid_json
FN:175,_RNvNtNtNtCsilPUL3AyWrc_8cuenv_ci6report4json5testss_36test_write_report_invalid_path_fails
FN:162,_RNvNtNtNtCsilPUL3AyWrc_8cuenv_ci6report4json5testss_37test_write_report_to_nested_directory
FN:8,_RNvNtNtCsilPUL3AyWrc_8cuenv_ci6report4json12write_report
FNDA:0,_RNvNtNtCskfEctF1MPvy_8cuenv_ci6report4json12write_report
FNDA:0,_RNCNvNtNtCskfEctF1MPvy_8cuenv_ci6report4json12write_report0B7_
FNDA:0,_RNCNvNtNtCsilPUL3AyWrc_8cuenv_ci6report4json12write_report0B7_
FNDA:9,_RNvNtNtNtCsilPUL3AyWrc_8cuenv_ci6report4json5tests18create_test_report
FNDA:1,_RNvNtNtNtCsilPUL3AyWrc_8cuenv_ci6report4json5testss_29test_write_report_cached_task
FNDA:1,_RNvNtNtNtCsilPUL3AyWrc_8cuenv_ci6report4json5testss_31test_write_report_pretty_prints
FNDA:1,_RNvNtNtNtCsilPUL3AyWrc_8cuenv_ci6report4json5testss_32test_write_report_includes_tasks
FNDA:1,_RNvNtNtNtCsilPUL3AyWrc_8cuenv_ci6report4json5testss_32test_write_report_multiple_tasks
FNDA:1,_RNvNtNtNtCsilPUL3AyWrc_8cuenv_ci6report4json5testss_33test_write_report_failed_pipeline
FNDA:1,_RNvNtNtNtCsilPUL3AyWrc_8cuenv_ci6report4json5testss_34test_write_report_includes_context
FNDA:1,_RNvNtNtNtCsilPUL3AyWrc_8cuenv_ci6report4json5testss_36test_write_report_creates_valid_json
FNDA:1,_RNvNtNtNtCsilPUL3AyWrc_8cuenv_ci6report4json5testss_36test_write_report_invalid_path_fails
FNDA:1,_RNvNtNtNtCsilPUL3AyWrc_8cuenv_ci6report4json5testss_37test_write_report_to_nested_directory
FNDA:9,_RNvNtNtCsilPUL3AyWrc_8cuenv_ci6report4json12write_report
FNF:12
FNH:11
DA:8,9
DA:9,9
DA:10,8
DA:11,0
DA:12,0
DA:13,0
DA:14,0
DA:15,8
DA:16,9
DA:25,9
DA:26,9
DA:27,9
DA:28,9
DA:29,9
DA:30,9
DA:31,9
DA:32,9
DA:33,9
DA:34,9
DA:35,9
DA:36,9
DA:37,9
DA:38,9
DA:39,9
DA:40,9
DA:41,9
DA:42,9
DA:43,9
DA:44,9
DA:45,9
DA:46,9
DA:47,9
DA:48,9
DA:49,9
DA:50,9
DA:51,9
DA:52,9
DA:55,1
DA:56,1
DA:57,1
DA:58,1
DA:60,1
DA:61,1
DA:64,1
DA:67,1
DA:68,1
DA:71,1
DA:72,1
DA:73,1
DA:74,1
DA:75,1
DA:78,1
DA:79,1
DA:80,1
DA:81,1
DA:83,1
DA:86,1
DA:87,1
DA:88,1
DA:89,1
DA:92,1
DA:93,1
DA:94,1
DA:95,1
DA:97,1
DA:99,1
DA:100,1
DA:102,1
DA:103,1
DA:104,1
DA:105,1
DA:106,1
DA:107,1
DA:110,1
DA:111,1
DA:112,1
DA:113,1
DA:115,1
DA:117,1
DA:118,1
DA:120,1
DA:121,1
DA:122,1
DA:123,1
DA:124,1
DA:125,1
DA:128,1
DA:129,1
DA:130,1
DA:131,1
DA:132,1
DA:133,1
DA:134,1
DA:136,1
DA:138,1
DA:139,1
DA:141,1
DA:142,1
DA:143,1
DA:144,1
DA:147,1
DA:148,1
DA:149,1
DA:150,1
DA:151,1
DA:153,1
DA:155,1
DA:156,1
DA:158,1
DA:159,1
DA:162,1
DA:163,1
DA:164,1
DA:165,1
DA:166,1
DA:167,1
DA:169,1
DA:170,1
DA:171,1
DA:172,1
DA:175,1
DA:176,1
DA:178,1
DA:180,1
DA:181,1
DA:182,1
DA:185,1
DA:186,1
DA:187,1
DA:188,1
DA:189,1
DA:190,1
DA:191,1
DA:192,1
DA:193,1
DA:194,1
DA:195,1
DA:196,1
DA:197,1
DA:198,1
DA:199,1
DA:200,1
DA:201,1
DA:202,1
DA:203,1
DA:204,1
DA:205,1
DA:206,1
DA:208,1
DA:210,1
DA:211,1
DA:213,1
DA:214,1
DA:215,1
DA:216,1
DA:217,1
DA:218,1
BRF:0
BRH:0
LF:158
LH:153
end_of_record
SF:/Users/rawkode/Code/src/github.com/cuenv/cuenv/crates/ci/src/report/markdown.rs
FN:131,_RNvNtNtCskfEctF1MPvy_8cuenv_ci6report8markdown15format_duration
FN:8,_RNvNtNtCskfEctF1MPvy_8cuenv_ci6report8markdown16generate_summary
FN:104,_RNvNtNtCskfEctF1MPvy_8cuenv_ci6report8markdown17write_job_summary
FN:24,_RNCNvNtNtCskfEctF1MPvy_8cuenv_ci6report8markdown16generate_summary0B7_
FN:131,_RNvNtNtCsilPUL3AyWrc_8cuenv_ci6report8markdown15format_duration
FN:8,_RNvNtNtCsilPUL3AyWrc_8cuenv_ci6report8markdown16generate_summary
FN:104,_RNvNtNtCsilPUL3AyWrc_8cuenv_ci6report8markdown17write_job_summary
FN:24,_RNCNvNtNtCsilPUL3AyWrc_8cuenv_ci6report8markdown16generate_summary0B7_
FN:221,_RNvNtNtNtCsilPUL3AyWrc_8cuenv_ci6report8markdown5testss_20test_format_duration
FN:187,_RNvNtNtNtCsilPUL3AyWrc_8cuenv_ci6report8markdown5testss_28test_generate_summary_failed
FN:150,_RNvNtNtNtCsilPUL3AyWrc_8cuenv_ci6report8markdown5testss_29test_generate_summary_success
FNDA:0,_RNvNtNtCskfEctF1MPvy_8cuenv_ci6report8markdown15format_duration
FNDA:0,_RNvNtNtCskfEctF1MPvy_8cuenv_ci6report8markdown16generate_summary
FNDA:0,_RNvNtNtCskfEctF1MPvy_8cuenv_ci6report8markdown17write_job_summary
FNDA:0,_RNCNvNtNtCskfEctF1MPvy_8cuenv_ci6report8markdown16generate_summary0B7_
FNDA:7,_RNvNtNtCsilPUL3AyWrc_8cuenv_ci6report8markdown15format_duration
FNDA:2,_RNvNtNtCsilPUL3AyWrc_8cuenv_ci6report8markdown16generate_summary
FNDA:0,_RNvNtNtCsilPUL3AyWrc_8cuenv_ci6report8markdown17write_job_summary
FNDA:0,_RNCNvNtNtCsilPUL3AyWrc_8cuenv_ci6report8markdown16generate_summary0B7_
FNDA:1,_RNvNtNtNtCsilPUL3AyWrc_8cuenv_ci6report8markdown5testss_20test_format_duration
FNDA:1,_RNvNtNtNtCsilPUL3AyWrc_8cuenv_ci6report8markdown5testss_28test_generate_summary_failed
FNDA:1,_RNvNtNtNtCsilPUL3AyWrc_8cuenv_ci6report8markdown5testss_29test_generate_summary_success
FNF:7
FNH:5
DA:8,2
DA:9,2
DA:12,2
DA:13,1
DA:14,1
DA:15,0
DA:16,0
DA:19,2
DA:22,2
DA:23,2
DA:24,2
DA:26,2
DA:27,2
DA:28,2
DA:29,2
DA:30,2
DA:35,2
DA:36,2
DA:37,2
DA:38,2
DA:40,4
DA:41,2
DA:42,1
DA:43,1
DA:44,0
DA:45,0
DA:47,2
DA:48,2
DA:49,2
DA:50,2
DA:54,2
DA:55,0
DA:58,2
DA:59,2
DA:60,2
DA:61,2
DA:62,2
DA:63,2
DA:65,2
DA:66,2
DA:67,2
DA:68,2
DA:69,2
DA:70,2
DA:71,2
DA:72,2
DA:74,2
DA:77,2
DA:79,2
DA:80,2
DA:104,0
DA:108,0
DA:109,0
DA:110,0
DA:111,0
DA:112,0
DA:113,0
DA:114,0
DA:115,0
DA:116,0
DA:117,0
DA:118,0
DA:122,0
DA:123,0
DA:126,0
DA:127,0
DA:131,7
DA:132,7
DA:133,1
DA:134,6
DA:135,5
DA:137,1
DA:138,1
DA:139,1
DA:141,7
DA:150,1
DA:151,1
DA:152,1
DA:153,1
DA:154,1
DA:155,1
DA:156,1
DA:157,1
DA:158,1
DA:159,1
DA:160,1
DA:161,1
DA:162,1
DA:163,1
DA:164,1
DA:165,1
DA:166,1
DA:167,1
DA:168,1
DA:169,1
DA:170,1
DA:171,1
DA:172,1
DA:173,1
DA:174,1
DA:175,1
DA:176,1
DA:178,1
DA:179,1
DA:180,1
DA:181,1
DA:182,1
DA:183,1
DA:184,1
DA:187,1
DA:188,1
DA:189,1
DA:190,1
DA:191,1
DA:192,1
DA:193,1
DA:194,1
DA:195,1
DA:196,1
DA:197,1
DA:198,1
DA:199,1
DA:200,1
DA:201,1
DA:202,1
DA:203,1
DA:204,1
DA:205,1
DA:206,1
DA:207,1
DA:208,1
DA:209,1
DA:210,1
DA:211,1
DA:212,1
DA:213,1
DA:215,1
DA:216,1
DA:217,1
DA:218,1
DA:221,1
DA:222,1
DA:223,1
DA:224,1
DA:225,1
BRF:0
BRH:0
LF:146
LH:124
end_of_record
SF:/Users/rawkode/Code/src/github.com/cuenv/cuenv/crates/codeowners/src/lib.rs
FN:120,_RINvMs_CsdiSaxp1bVCo_16cuenv_codeownersNtB5_4Rule3newRNtNtCsganj50Cd8Gx_5alloc6string6StringBQ_INtNtBU_3vec3VecBQ_EECscNSmcQoqOdW_5cuenv
FN:322,_RINvMs1_CsdiSaxp1bVCo_16cuenv_codeownersNtB6_17CodeOwnersBuilder6headerReEB6_
FN:136,_RINvMs_CsdiSaxp1bVCo_16cuenv_codeownersNtB5_4Rule11descriptionNtNtCsganj50Cd8Gx_5alloc6string6StringEB5_
FN:120,_RINvMs_CsdiSaxp1bVCo_16cuenv_codeownersNtB5_4Rule3newNtNtCsganj50Cd8Gx_5alloc6string6StringBP_INtNtBT_3vec3VecBP_EEB5_
FN:145,_RINvMs_CsdiSaxp1bVCo_16cuenv_codeownersNtB5_4Rule7sectionNtNtCsganj50Cd8Gx_5alloc6string6StringEB5_
FN:198,_RNvMs0_CsdiSaxp1bVCo_16cuenv_codeownersNtB5_10CodeOwners7builder
FN:217,_RNvMs0_CsdiSaxp1bVCo_16cuenv_codeownersNtB5_10CodeOwners8generate
FN:313,_RNvMs1_CsdiSaxp1bVCo_16cuenv_codeownersNtB5_17CodeOwnersBuilder13section_style
FN:329,_RNvMs1_CsdiSaxp1bVCo_16cuenv_codeownersNtB5_17CodeOwnersBuilder4rule
FN:343,_RNvMs1_CsdiSaxp1bVCo_16cuenv_codeownersNtB5_17CodeOwnersBuilder5build
FN:71,_RNvXCsdiSaxp1bVCo_16cuenv_codeownersNtB2_12SectionStyleNtNtCskzPJi2J8k3N_4core3fmt7Display3fmt
FN:336,_RINvMs1_CsdiSaxp1bVCo_16cuenv_codeownersNtB6_17CodeOwnersBuilder5rulesINtNtNtNtCskzPJi2J8k3N_4core4iter8adapters3map3MapINtNtNtCsganj50Cd8Gx_5alloc3vec9into_iter8IntoIterTRNtNtB21_6string6StringRNtNtCsegEA1edg8Vr_10cuenv_core6owners9OwnerRuleEENCNvNtNtNtCs6Jd8UL8GPLM_5cuenv8commands6owners5testss_28test_owners_generate_content0EEB44_
FN:120,_RINvMs_CsdiSaxp1bVCo_16cuenv_codeownersNtB5_4Rule3newRNtNtCsganj50Cd8Gx_5alloc6string6StringBQ_INtNtBU_3vec3VecBQ_EECs6Jd8UL8GPLM_5cuenv
FN:120,_RINvMs_CsdiSaxp1bVCo_16cuenv_codeownersNtB5_4Rule3newReBP_ABP_j1_ECs1sEeovdX4zy_15cuenv_bitbucket
FN:336,_RINvMs1_CshA0XWApfAB4_16cuenv_codeownersNtB6_17CodeOwnersBuilder5rulesANtB6_4Rulej2_EB6_
FN:322,_RINvMs1_CshA0XWApfAB4_16cuenv_codeownersNtB6_17CodeOwnersBuilder6headerReEB6_
FN:136,_RINvMs_CshA0XWApfAB4_16cuenv_codeownersNtB5_4Rule11descriptionNtNtCsganj50Cd8Gx_5alloc6string6StringEB5_
FN:136,_RINvMs_CshA0XWApfAB4_16cuenv_codeownersNtB5_4Rule11descriptionReEB5_
FN:120,_RINvMs_CshA0XWApfAB4_16cuenv_codeownersNtB5_4Rule3newNtNtCsganj50Cd8Gx_5alloc6string6StringBP_INtNtBT_3vec3VecBP_EEB5_
FN:120,_RINvMs_CshA0XWApfAB4_16cuenv_codeownersNtB5_4Rule3newReBP_ABP_j1_EB5_
FN:120,_RINvMs_CshA0XWApfAB4_16cuenv_codeownersNtB5_4Rule3newReBP_ABP_j2_EB5_
FN:145,_RINvMs_CshA0XWApfAB4_16cuenv_codeownersNtB5_4Rule7sectionNtNtCsganj50Cd8Gx_5alloc6string6StringEB5_
FN:145,_RINvMs_CshA0XWApfAB4_16cuenv_codeownersNtB5_4Rule7sectionReEB5_
FN:367,_RNvNtCshA0XWApfAB4_16cuenv_codeowners5testss_17test_rule_builder
FN:379,_RNvNtCshA0XWApfAB4_16cuenv_codeowners5testss_20test_generate_simple
FN:513,_RNvNtCshA0XWApfAB4_16cuenv_codeowners5testss_21test_builder_chaining
FN:360,_RNvNtCshA0XWApfAB4_16cuenv_codeowners5testss_26test_section_style_display
FN:426,_RNvNtCshA0XWApfAB4_16cuenv_codeowners5testss_30test_generate_bracket_sections
FN:415,_RNvNtCshA0XWApfAB4_16cuenv_codeowners5testss_31test_generate_with_descriptions
FN:455,_RNvNtCshA0XWApfAB4_16cuenv_codeowners5testss_32test_generate_no_section_headers
FN:404,_RNvNtCshA0XWApfAB4_16cuenv_codeowners5testss_32test_generate_with_custom_header
FN:478,_RNvNtCshA0XWApfAB4_16cuenv_codeowners5testss_37test_generate_groups_rules_by_section
FN:391,_RNvNtCshA0XWApfAB4_16cuenv_codeowners5testss_41test_generate_with_sections_comment_style
FN:198,_RNvMs0_CshA0XWApfAB4_16cuenv_codeownersNtB5_10CodeOwners7builder
FN:217,_RNvMs0_CshA0XWApfAB4_16cuenv_codeownersNtB5_10CodeOwners8generate
FN:313,_RNvMs1_CshA0XWApfAB4_16cuenv_codeownersNtB5_17CodeOwnersBuilder13section_style
FN:329,_RNvMs1_CshA0XWApfAB4_16cuenv_codeownersNtB5_17CodeOwnersBuilder4rule
FN:343,_RNvMs1_CshA0XWApfAB4_16cuenv_codeownersNtB5_17CodeOwnersBuilder5build
FN:71,_RNvXCshA0XWApfAB4_16cuenv_codeownersNtB2_12SectionStyleNtNtCskzPJi2J8k3N_4core3fmt7Display3fmt
FN:120,_RINvMs_CsdiSaxp1bVCo_16cuenv_codeownersNtB5_4Rule3newReBP_ABP_j1_ECs6rrL7nIAKeH_12cuenv_github
FN:120,_RINvMs_CsdiSaxp1bVCo_16cuenv_codeownersNtB5_4Rule3newReBP_ABP_j1_ECsbWUW4McB43Z_12cuenv_gitlab
FNDA:0,_RINvMs_CsdiSaxp1bVCo_16cuenv_codeownersNtB5_4Rule3newRNtNtCsganj50Cd8Gx_5alloc6string6StringBQ_INtNtBU_3vec3VecBQ_EECscNSmcQoqOdW_5cuenv
FNDA:24,_RINvMs1_CsdiSaxp1bVCo_16cuenv_codeownersNtB6_17CodeOwnersBuilder6headerReEB6_
FNDA:1,_RINvMs_CsdiSaxp1bVCo_16cuenv_codeownersNtB5_4Rule11descriptionNtNtCsganj50Cd8Gx_5alloc6string6StringEB5_
FNDA:28,_RINvMs_CsdiSaxp1bVCo_16cuenv_codeownersNtB5_4Rule3newNtNtCsganj50Cd8Gx_5alloc6string6StringBP_INtNtBT_3vec3VecBP_EEB5_
FNDA:29,_RINvMs_CsdiSaxp1bVCo_16cuenv_codeownersNtB5_4Rule7sectionNtNtCsganj50Cd8Gx_5alloc6string6StringEB5_
FNDA:1,_RNvMs0_CsdiSaxp1bVCo_16cuenv_codeownersNtB5_10CodeOwners7builder
FNDA:24,_RNvMs0_CsdiSaxp1bVCo_16cuenv_codeownersNtB5_10CodeOwners8generate
FNDA:24,_RNvMs1_CsdiSaxp1bVCo_16cuenv_codeownersNtB5_17CodeOwnersBuilder13section_style
FNDA:28,_RNvMs1_CsdiSaxp1bVCo_16cuenv_codeownersNtB5_17CodeOwnersBuilder4rule
FNDA:24,_RNvMs1_CsdiSaxp1bVCo_16cuenv_codeownersNtB5_17CodeOwnersBuilder5build
FNDA:0,_RNvXCsdiSaxp1bVCo_16cuenv_codeownersNtB2_12SectionStyleNtNtCskzPJi2J8k3N_4core3fmt7Display3fmt
FNDA:1,_RINvMs1_CsdiSaxp1bVCo_16cuenv_codeownersNtB6_17CodeOwnersBuilder5rulesINtNtNtNtCskzPJi2J8k3N_4core4iter8adapters3map3MapINtNtNtCsganj50Cd8Gx_5alloc3vec9into_iter8IntoIterTRNtNtB21_6string6StringRNtNtCsegEA1edg8Vr_10cuenv_core6owners9OwnerRuleEENCNvNtNtNtCs6Jd8UL8GPLM_5cuenv8commands6owners5testss_28test_owners_generate_content0EEB44_
FNDA:1,_RINvMs_CsdiSaxp1bVCo_16cuenv_codeownersNtB5_4Rule3newRNtNtCsganj50Cd8Gx_5alloc6string6StringBQ_INtNtBU_3vec3VecBQ_EECs6Jd8UL8GPLM_5cuenv
FNDA:6,_RINvMs_CsdiSaxp1bVCo_16cuenv_codeownersNtB5_4Rule3newReBP_ABP_j1_ECs1sEeovdX4zy_15cuenv_bitbucket
FNDA:1,_RINvMs1_CshA0XWApfAB4_16cuenv_codeownersNtB6_17CodeOwnersBuilder5rulesANtB6_4Rulej2_EB6_
FNDA:4,_RINvMs1_CshA0XWApfAB4_16cuenv_codeownersNtB6_17CodeOwnersBuilder6headerReEB6_
FNDA:0,_RINvMs_CshA0XWApfAB4_16cuenv_codeownersNtB5_4Rule11descriptionNtNtCsganj50Cd8Gx_5alloc6string6StringEB5_
FNDA:2,_RINvMs_CshA0XWApfAB4_16cuenv_codeownersNtB5_4Rule11descriptionReEB5_
FNDA:3,_RINvMs_CshA0XWApfAB4_16cuenv_codeownersNtB5_4Rule3newNtNtCsganj50Cd8Gx_5alloc6string6StringBP_INtNtBT_3vec3VecBP_EEB5_
FNDA:18,_RINvMs_CshA0XWApfAB4_16cuenv_codeownersNtB5_4Rule3newReBP_ABP_j1_EB5_
FNDA:1,_RINvMs_CshA0XWApfAB4_16cuenv_codeownersNtB5_4Rule3newReBP_ABP_j2_EB5_
FNDA:3,_RINvMs_CshA0XWApfAB4_16cuenv_codeownersNtB5_4Rule7sectionNtNtCsganj50Cd8Gx_5alloc6string6StringEB5_
FNDA:10,_RINvMs_CshA0XWApfAB4_16cuenv_codeownersNtB5_4Rule7sectionReEB5_
FNDA:1,_RNvNtCshA0XWApfAB4_16cuenv_codeowners5testss_17test_rule_builder
FNDA:1,_RNvNtCshA0XWApfAB4_16cuenv_codeowners5testss_20test_generate_simple
FNDA:1,_RNvNtCshA0XWApfAB4_16cuenv_codeowners5testss_21test_builder_chaining
FNDA:1,_RNvNtCshA0XWApfAB4_16cuenv_codeowners5testss_26test_section_style_display
FNDA:1,_RNvNtCshA0XWApfAB4_16cuenv_codeowners5testss_30test_generate_bracket_sections
FNDA:1,_RNvNtCshA0XWApfAB4_16cuenv_codeowners5testss_31test_generate_with_descriptions
FNDA:1,_RNvNtCshA0XWApfAB4_16cuenv_codeowners5testss_32test_generate_no_section_headers
FNDA:1,_RNvNtCshA0XWApfAB4_16cuenv_codeowners5testss_32test_generate_with_custom_header
FNDA:1,_RNvNtCshA0XWApfAB4_16cuenv_codeowners5testss_37test_generate_groups_rules_by_section
FNDA:1,_RNvNtCshA0XWApfAB4_16cuenv_codeowners5testss_41test_generate_with_sections_comment_style
FNDA:8,_RNvMs0_CshA0XWApfAB4_16cuenv_codeownersNtB5_10CodeOwners7builder
FNDA:9,_RNvMs0_CshA0XWApfAB4_16cuenv_codeownersNtB5_10CodeOwners8generate
FNDA:7,_RNvMs1_CshA0XWApfAB4_16cuenv_codeownersNtB5_17CodeOwnersBuilder13section_style
FNDA:16,_RNvMs1_CshA0XWApfAB4_16cuenv_codeownersNtB5_17CodeOwnersBuilder4rule
FNDA:10,_RNvMs1_CshA0XWApfAB4_16cuenv_codeownersNtB5_17CodeOwnersBuilder5build
FNDA:3,_RNvXCshA0XWApfAB4_16cuenv_codeownersNtB2_12SectionStyleNtNtCskzPJi2J8k3N_4core3fmt7Display3fmt
FNDA:12,_RINvMs_CsdiSaxp1bVCo_16cuenv_codeownersNtB5_4Rule3newReBP_ABP_j1_ECs6rrL7nIAKeH_12cuenv_github
FNDA:6,_RINvMs_CsdiSaxp1bVCo_16cuenv_codeownersNtB5_4Rule3newReBP_ABP_j1_ECsbWUW4McB43Z_12cuenv_gitlab
FNF:21
FNH:21
DA:71,3
DA:72,3
DA:73,1
DA:74,1
DA:75,1
DA:77,3
DA:120,75
DA:121,75
DA:122,75
DA:123,75
DA:124,75
DA:125,75
DA:126,75
DA:127,75
DA:128,75
DA:129,75
DA:130,75
DA:136,3
DA:137,3
DA:138,3
DA:139,3
DA:145,42
DA:146,42
DA:147,42
DA:148,42
DA:198,9
DA:199,9
DA:200,9
DA:217,33
DA:218,33
DA:219,33
DA:222,33
DA:223,53
DA:224,53
DA:225,53
DA:226,53
DA:227,53
DA:228,27
DA:229,6
DA:232,33
DA:233,77
DA:234,44
DA:235,44
DA:236,44
DA:237,44
DA:238,44
DA:240,33
DA:241,74
DA:242,41
DA:243,9
DA:244,32
DA:245,41
DA:248,41
DA:249,39
DA:250,10
DA:251,10
DA:252,10
DA:253,10
DA:254,10
DA:255,27
DA:256,27
DA:257,27
DA:258,27
DA:259,27
DA:260,2
DA:261,2
DA:262,2
DA:264,2
DA:267,85
DA:268,44
DA:269,2
DA:270,2
DA:271,2
DA:272,42
DA:274,44
DA:275,44
DA:276,44
DA:277,44
DA:281,33
DA:282,33
DA:313,31
DA:314,31
DA:315,31
DA:316,31
DA:322,28
DA:323,28
DA:324,28
DA:325,28
DA:329,44
DA:330,44
DA:331,44
DA:332,44
DA:336,2
DA:337,2
DA:338,2
DA:339,2
DA:343,34
DA:344,34
DA:345,34
DA:346,34
DA:347,34
DA:348,34
DA:349,34
DA:360,1
DA:361,1
DA:362,1
DA:363,1
DA:364,1
DA:367,1
DA:368,1
DA:369,1
DA:370,1
DA:372,1
DA:373,1
DA:374,1
DA:375,1
DA:376,1
DA:379,1
DA:380,1
DA:381,1
DA:382,1
DA:383,1
DA:385,1
DA:386,1
DA:387,1
DA:388,1
DA:391,1
DA:392,1
DA:393,1
DA:394,1
DA:395,1
DA:396,1
DA:398,1
DA:399,1
DA:400,1
DA:401,1
DA:404,1
DA:405,1
DA:406,1
DA:407,1
DA:409,1
DA:410,1
DA:411,1
DA:412,1
DA:415,1
DA:416,1
DA:417,1
DA:418,1
DA:420,1
DA:421,1
DA:422,1
DA:423,1
DA:426,1
DA:427,1
DA:428,1
DA:429,1
DA:430,1
DA:431,1
DA:433,1
DA:435,1
DA:436,1
DA:437,0
DA:439,1
DA:440,1
DA:441,0
DA:444,1
DA:445,1
DA:446,0
DA:448,1
DA:449,1
DA:450,0
DA:452,1
DA:455,1
DA:456,1
DA:457,1
DA:458,1
DA:459,1
DA:460,1
DA:462,1
DA:464,1
DA:465,1
DA:466,0
DA:468,1
DA:469,1
DA:470,0
DA:473,1
DA:474,1
DA:475,1
DA:478,1
DA:480,1
DA:481,1
DA:482,1
DA:483,1
DA:484,1
DA:485,1
DA:487,1
DA:490,1
DA:491,1
DA:493,0
DA:497,1
DA:498,1
DA:499,1
DA:500,1
DA:502,1
DA:503,1
DA:504,0
DA:506,1
DA:507,1
DA:508,0
DA:510,1
DA:513,1
DA:514,1
DA:515,1
DA:516,1
DA:517,1
DA:518,1
DA:519,1
DA:520,1
DA:521,1
DA:522,1
DA:524,1
DA:525,1
DA:526,1
DA:527,1
BRF:0
BRH:0
LF:224
LH:215
end_of_record
SF:/Users/rawkode/Code/src/github.com/cuenv/cuenv/crates/codeowners/src/provider/mod.rs
FN:82,_RINvMs1_NtCsdiSaxp1bVCo_16cuenv_codeowners8providerNtB6_13ProjectOwners3newNtNtCsiThrkg7suPy_3std4path7PathBufNtNtCsganj50Cd8Gx_5alloc6string6StringECscNSmcQoqOdW_5cuenv
FN:205,_RNvNtCsdiSaxp1bVCo_16cuenv_codeowners8provider14prefix_pattern
FN:270,_RNvNtCsdiSaxp1bVCo_16cuenv_codeowners8provider21write_codeowners_file
FN:230,_RNvNtCsdiSaxp1bVCo_16cuenv_codeowners8provider27generate_aggregated_content
FN:40,_RNvXNtCsdiSaxp1bVCo_16cuenv_codeowners8providerNtB2_13ProviderErrorNtNtCskzPJi2J8k3N_4core3fmt7Display3fmt
FN:59,_RNvXs0_NtCsdiSaxp1bVCo_16cuenv_codeowners8providerNtB5_13ProviderErrorINtNtCskzPJi2J8k3N_4core7convert4FromNtNtNtCsiThrkg7suPy_3std2io5error5ErrorE4from
FN:107,_RNvXs2_NtCsdiSaxp1bVCo_16cuenv_codeowners8providerNtB5_10SyncStatusNtNtCskzPJi2J8k3N_4core3fmt7Display3fmt
FN:50,_RNvXs_NtCsdiSaxp1bVCo_16cuenv_codeowners8providerNtB4_13ProviderErrorNtNtCskzPJi2J8k3N_4core5error5Error6source
FN:279,_RNCNvNtCsdiSaxp1bVCo_16cuenv_codeowners8provider21write_codeowners_file0B5_
FN:289,_RNCNvNtCsdiSaxp1bVCo_16cuenv_codeowners8provider21write_codeowners_files_0B5_
FN:82,_RINvMs1_NtCsdiSaxp1bVCo_16cuenv_codeowners8providerNtB6_13ProjectOwners3newNtNtCsiThrkg7suPy_3std4path7PathBufNtNtCsganj50Cd8Gx_5alloc6string6StringECs6Jd8UL8GPLM_5cuenv
FN:82,_RINvMs1_NtCsdiSaxp1bVCo_16cuenv_codeowners8providerNtB6_13ProjectOwners3newReB1b_ECs1sEeovdX4zy_15cuenv_bitbucket
FN:205,_RNvNtCshA0XWApfAB4_16cuenv_codeowners8provider14prefix_pattern
FN:230,_RNvNtCshA0XWApfAB4_16cuenv_codeowners8provider27generate_aggregated_content
FN:82,_RINvMs1_NtCshA0XWApfAB4_16cuenv_codeowners8providerNtB6_13ProjectOwners3newReB1b_EB8_
FN:279,_RNCNvNtCshA0XWApfAB4_16cuenv_codeowners8provider21write_codeowners_file0B5_
FN:289,_RNCNvNtCshA0XWApfAB4_16cuenv_codeowners8provider21write_codeowners_files_0B5_
FN:270,_RNvNtCshA0XWApfAB4_16cuenv_codeowners8provider21write_codeowners_file
FN:40,_RNvXNtCshA0XWApfAB4_16cuenv_codeowners8providerNtB2_13ProviderErrorNtNtCskzPJi2J8k3N_4core3fmt7Display3fmt
FN:59,_RNvXs0_NtCshA0XWApfAB4_16cuenv_codeowners8providerNtB5_13ProviderErrorINtNtCskzPJi2J8k3N_4core7convert4FromNtNtNtCsiThrkg7suPy_3std2io5error5ErrorE4from
FN:107,_RNvXs2_NtCshA0XWApfAB4_16cuenv_codeowners8providerNtB5_10SyncStatusNtNtCskzPJi2J8k3N_4core3fmt7Display3fmt
FN:50,_RNvXs_NtCshA0XWApfAB4_16cuenv_codeowners8providerNtB4_13ProviderErrorNtNtCskzPJi2J8k3N_4core5error5Error6source
FN:350,_RNvNtNtCshA0XWApfAB4_16cuenv_codeowners8provider5testss_32test_generate_aggregated_content
FN:324,_RNvNtNtCshA0XWApfAB4_16cuenv_codeowners8provider5testss_32test_prefix_pattern_root_project
FN:333,_RNvNtNtCshA0XWApfAB4_16cuenv_codeowners8provider5testss_34test_prefix_pattern_nested_project
FN:373,_RNvNtNtCshA0XWApfAB4_16cuenv_codeowners8provider5testss_46test_generate_aggregated_content_bracket_style
FN:82,_RINvMs1_NtCsdiSaxp1bVCo_16cuenv_codeowners8providerNtB6_13ProjectOwners3newReB1b_ECs6rrL7nIAKeH_12cuenv_github
FN:82,_RINvMs1_NtCsdiSaxp1bVCo_16cuenv_codeowners8providerNtB6_13ProjectOwners3newReB1b_ECsbWUW4McB43Z_12cuenv_gitlab
FNDA:0,_RINvMs1_NtCsdiSaxp1bVCo_16cuenv_codeowners8providerNtB6_13ProjectOwners3newNtNtCsiThrkg7suPy_3std4path7PathBufNtNtCsganj50Cd8Gx_5alloc6string6StringECscNSmcQoqOdW_5cuenv
FNDA:28,_RNvNtCsdiSaxp1bVCo_16cuenv_codeowners8provider14prefix_pattern
FNDA:16,_RNvNtCsdiSaxp1bVCo_16cuenv_codeowners8provider21write_codeowners_file
FNDA:23,_RNvNtCsdiSaxp1bVCo_16cuenv_codeowners8provider27generate_aggregated_content
FNDA:0,_RNvXNtCsdiSaxp1bVCo_16cuenv_codeowners8providerNtB2_13ProviderErrorNtNtCskzPJi2J8k3N_4core3fmt7Display3fmt
FNDA:0,_RNvXs0_NtCsdiSaxp1bVCo_16cuenv_codeowners8providerNtB5_13ProviderErrorINtNtCskzPJi2J8k3N_4core7convert4FromNtNtNtCsiThrkg7suPy_3std2io5error5ErrorE4from
FNDA:0,_RNvXs2_NtCsdiSaxp1bVCo_16cuenv_codeowners8providerNtB5_10SyncStatusNtNtCskzPJi2J8k3N_4core3fmt7Display3fmt
FNDA:0,_RNvXs_NtCsdiSaxp1bVCo_16cuenv_codeowners8providerNtB4_13ProviderErrorNtNtCskzPJi2J8k3N_4core5error5Error6source
FNDA:4,_RNCNvNtCsdiSaxp1bVCo_16cuenv_codeowners8provider21write_codeowners_file0B5_
FNDA:2,_RNCNvNtCsdiSaxp1bVCo_16cuenv_codeowners8provider21write_codeowners_files_0B5_
FNDA:0,_RINvMs1_NtCsdiSaxp1bVCo_16cuenv_codeowners8providerNtB6_13ProjectOwners3newNtNtCsiThrkg7suPy_3std4path7PathBufNtNtCsganj50Cd8Gx_5alloc6string6StringECs6Jd8UL8GPLM_5cuenv
FNDA:6,_RINvMs1_NtCsdiSaxp1bVCo_16cuenv_codeowners8providerNtB6_13ProjectOwners3newReB1b_ECs1sEeovdX4zy_15cuenv_bitbucket
FNDA:10,_RNvNtCshA0XWApfAB4_16cuenv_codeowners8provider14prefix_pattern
FNDA:2,_RNvNtCshA0XWApfAB4_16cuenv_codeowners8provider27generate_aggregated_content
FNDA:3,_RINvMs1_NtCshA0XWApfAB4_16cuenv_codeowners8providerNtB6_13ProjectOwners3newReB1b_EB8_
FNDA:0,_RNCNvNtCshA0XWApfAB4_16cuenv_codeowners8provider21write_codeowners_file0B5_
FNDA:0,_RNCNvNtCshA0XWApfAB4_16cuenv_codeowners8provider21write_codeowners_files_0B5_
FNDA:0,_RNvNtCshA0XWApfAB4_16cuenv_codeowners8provider21write_codeowners_file
FNDA:0,_RNvXNtCshA0XWApfAB4_16cuenv_codeowners8providerNtB2_13ProviderErrorNtNtCskzPJi2J8k3N_4core3fmt7Display3fmt
FNDA:0,_RNvXs0_NtCshA0XWApfAB4_16cuenv_codeowners8providerNtB5_13ProviderErrorINtNtCskzPJi2J8k3N_4core7convert4FromNtNtNtCsiThrkg7suPy_3std2io5error5ErrorE4from
FNDA:0,_RNvXs2_NtCshA0XWApfAB4_16cuenv_codeowners8providerNtB5_10SyncStatusNtNtCskzPJi2J8k3N_4core3fmt7Display3fmt
FNDA:0,_RNvXs_NtCshA0XWApfAB4_16cuenv_codeowners8providerNtB4_13ProviderErrorNtNtCskzPJi2J8k3N_4core5error5Error6source
FNDA:1,_RNvNtNtCshA0XWApfAB4_16cuenv_codeowners8provider5testss_32test_generate_aggregated_content
FNDA:1,_RNvNtNtCshA0XWApfAB4_16cuenv_codeowners8provider5testss_32test_prefix_pattern_root_project
FNDA:1,_RNvNtNtCshA0XWApfAB4_16cuenv_codeowners8provider5testss_34test_prefix_pattern_nested_project
FNDA:1,_RNvNtNtCshA0XWApfAB4_16cuenv_codeowners8provider5testss_46test_generate_aggregated_content_bracket_style
FNDA:11,_RINvMs1_NtCsdiSaxp1bVCo_16cuenv_codeowners8providerNtB6_13ProjectOwners3newReB1b_ECs6rrL7nIAKeH_12cuenv_github
FNDA:6,_RINvMs1_NtCsdiSaxp1bVCo_16cuenv_codeowners8providerNtB6_13ProjectOwners3newReB1b_ECsbWUW4McB43Z_12cuenv_gitlab
FNF:14
FNH:10
DA:40,0
DA:41,0
DA:42,0
DA:43,0
DA:44,0
DA:46,0
DA:50,0
DA:51,0
DA:52,0
DA:53,0
DA:55,0
DA:59,0
DA:60,0
DA:61,0
DA:82,26
DA:83,26
DA:84,26
DA:85,26
DA:86,26
DA:87,26
DA:88,26
DA:107,0
DA:108,0
DA:109,0
DA:110,0
DA:111,0
DA:112,0
DA:113,0
DA:115,0
DA:205,38
DA:206,38
DA:209,38
DA:210,6
DA:211,3
DA:213,3
DA:217,32
DA:219,1
DA:222,31
DA:224,38
DA:230,25
DA:231,25
DA:232,25
DA:233,25
DA:234,25
DA:235,25
DA:238,25
DA:239,25
DA:240,25
DA:243,55
DA:245,61
DA:246,31
DA:247,31
DA:250,31
DA:251,0
DA:252,31
DA:253,31
DA:254,31
DA:256,31
DA:257,0
DA:258,31
DA:260,31
DA:264,25
DA:265,25
DA:270,16
DA:271,16
DA:272,16
DA:273,2
DA:275,14
DA:279,16
DA:280,4
DA:281,4
DA:282,4
DA:283,4
DA:284,4
DA:285,4
DA:287,16
DA:288,16
DA:289,16
DA:291,16
DA:292,1
DA:293,15
DA:295,15
DA:296,3
DA:297,0
DA:299,3
DA:301,12
DA:304,12
DA:305,12
DA:307,5
DA:308,7
DA:310,12
DA:312,12
DA:313,1
DA:315,11
DA:317,16
DA:324,1
DA:326,1
DA:327,1
DA:328,1
DA:329,1
DA:330,1
DA:333,1
DA:335,1
DA:336,1
DA:339,1
DA:340,1
DA:343,1
DA:344,1
DA:347,1
DA:350,1
DA:351,1
DA:352,1
DA:355,1
DA:357,1
DA:360,1
DA:364,1
DA:366,1
DA:367,1
DA:368,1
DA:369,1
DA:370,1
DA:373,1
DA:374,1
DA:377,1
DA:380,1
DA:382,1
DA:383,1
DA:384,1
DA:385,1
BRF:0
BRH:0
LF:131
LH:106
end_of_record
SF:/Users/rawkode/Code/src/github.com/cuenv/cuenv/crates/core/src/base/discovery.rs
FN:54,_RNvMNtNtCsegEA1edg8Vr_10cuenv_core4base9discoveryNtB2_13BaseDiscovery12with_eval_fn
FN:45,_RNvMNtNtCsegEA1edg8Vr_10cuenv_core4base9discoveryNtB2_13BaseDiscovery3new
FN:159,_RNvMNtNtCsegEA1edg8Vr_10cuenv_core4base9discoveryNtB2_13BaseDiscovery5bases
FN:66,_RNvMNtNtCsegEA1edg8Vr_10cuenv_core4base9discoveryNtB2_13BaseDiscovery8discover
FN:133,_RNvMNtNtCsegEA1edg8Vr_10cuenv_core4base9discoveryNtB2_13BaseDiscovery9load_base
FN:169,_RNvNtNtCsegEA1edg8Vr_10cuenv_core4base9discovery21derive_synthetic_name
FN:140,_RNCNvMNtNtCsegEA1edg8Vr_10cuenv_core4base9discoveryNtB4_13BaseDiscovery9load_base0B8_
FN:145,_RNCNvMNtNtCsegEA1edg8Vr_10cuenv_core4base9discoveryNtB4_13BaseDiscovery9load_bases_0B8_
FN:140,_RNCNvMNtNtCs5ra7QMvKR3l_10cuenv_core4base9discoveryNtB4_13BaseDiscovery9load_base0B8_
FN:145,_RNCNvMNtNtCs5ra7QMvKR3l_10cuenv_core4base9discoveryNtB4_13BaseDiscovery9load_bases_0B8_
FN:54,_RNvMNtNtCs5ra7QMvKR3l_10cuenv_core4base9discoveryNtB2_13BaseDiscovery12with_eval_fn
FN:45,_RNvMNtNtCs5ra7QMvKR3l_10cuenv_core4base9discoveryNtB2_13BaseDiscovery3new
FN:159,_RNvMNtNtCs5ra7QMvKR3l_10cuenv_core4base9discoveryNtB2_13BaseDiscovery5bases
FN:66,_RNvMNtNtCs5ra7QMvKR3l_10cuenv_core4base9discoveryNtB2_13BaseDiscovery8discover
FN:133,_RNvMNtNtCs5ra7QMvKR3l_10cuenv_core4base9discoveryNtB2_13BaseDiscovery9load_base
FN:169,_RNvNtNtCs5ra7QMvKR3l_10cuenv_core4base9discovery21derive_synthetic_name
FN:289,_RNCNvNtNtNtCs5ra7QMvKR3l_10cuenv_core4base9discovery5testss_27test_discovery_with_env_cue0B9_
FN:305,_RNCNvNtNtNtCs5ra7QMvKR3l_10cuenv_core4base9discovery5testss_29test_discovery_nested_env_cue0B9_
FN:275,_RNCNvNtNtNtCs5ra7QMvKR3l_10cuenv_core4base9discovery5testss_30test_discovery_empty_workspace0B9_
FN:324,_RNCNvNtNtNtCs5ra7QMvKR3l_10cuenv_core4base9discovery5testss_31test_discovery_multiple_env_cue0B9_
FN:259,_RNCNvNtNtNtCs5ra7QMvKR3l_10cuenv_core4base9discovery5testss_32test_base_discovery_with_eval_fn0B9_
FN:377,_RNCNvNtNtNtCs5ra7QMvKR3l_10cuenv_core4base9discovery5testss_33test_discovery_respects_gitignore0B9_
FN:387,_RNCNvNtNtNtCs5ra7QMvKR3l_10cuenv_core4base9discovery5testss_33test_discovery_respects_gitignores_0B9_
FN:340,_RNCNvNtNtNtCs5ra7QMvKR3l_10cuenv_core4base9discovery5testss_33test_discovery_skips_failed_loads0B9_
FN:251,_RNvNtNtNtCs5ra7QMvKR3l_10cuenv_core4base9discovery5testss_23test_base_discovery_new
FN:454,_RNvNtNtNtCs5ra7QMvKR3l_10cuenv_core4base9discovery5testss_23test_discovery_error_io
FN:211,_RNvNtNtNtCs5ra7QMvKR3l_10cuenv_core4base9discovery5testss_26test_derive_synthetic_name
FN:409,_RNvNtNtNtCs5ra7QMvKR3l_10cuenv_core4base9discovery5testss_26test_discovered_base_clone
FN:422,_RNvNtNtNtCs5ra7QMvKR3l_10cuenv_core4base9discovery5testss_26test_discovered_base_debug
FN:395,_RNvNtNtNtCs5ra7QMvKR3l_10cuenv_core4base9discovery5testss_27test_discovered_base_fields
FN:282,_RNvNtNtNtCs5ra7QMvKR3l_10cuenv_core4base9discovery5testss_27test_discovery_with_env_cue
FN:297,_RNvNtNtNtCs5ra7QMvKR3l_10cuenv_core4base9discovery5testss_29test_discovery_nested_env_cue
FN:272,_RNvNtNtNtCs5ra7QMvKR3l_10cuenv_core4base9discovery5testss_30test_discovery_empty_workspace
FN:462,_RNvNtNtNtCs5ra7QMvKR3l_10cuenv_core4base9discovery5testss_31test_discovery_error_eval_error
FN:313,_RNvNtNtNtCs5ra7QMvKR3l_10cuenv_core4base9discovery5testss_31test_discovery_multiple_env_cue
FN:265,_RNvNtNtNtCs5ra7QMvKR3l_10cuenv_core4base9discovery5testss_31test_discovery_requires_eval_fn
FN:257,_RNvNtNtNtCs5ra7QMvKR3l_10cuenv_core4base9discovery5testss_32test_base_discovery_with_eval_fn
FN:439,_RNvNtNtNtCs5ra7QMvKR3l_10cuenv_core4base9discovery5testss_33test_discovery_error_invalid_path
FN:357,_RNvNtNtNtCs5ra7QMvKR3l_10cuenv_core4base9discovery5testss_33test_discovery_respects_gitignore
FN:331,_RNvNtNtNtCs5ra7QMvKR3l_10cuenv_core4base9discovery5testss_33test_discovery_skips_failed_loads
FN:447,_RNvNtNtNtCs5ra7QMvKR3l_10cuenv_core4base9discovery5testss_37test_discovery_error_no_eval_function
FN:230,_RNvNtNtNtCs5ra7QMvKR3l_10cuenv_core4base9discovery5testss_41test_derive_synthetic_name_trailing_slash
FN:238,_RNvNtNtNtCs5ra7QMvKR3l_10cuenv_core4base9discovery5testss_42test_derive_synthetic_name_unrelated_paths
FNDA:0,_RNvMNtNtCsegEA1edg8Vr_10cuenv_core4base9discoveryNtB2_13BaseDiscovery12with_eval_fn
FNDA:0,_RNvMNtNtCsegEA1edg8Vr_10cuenv_core4base9discoveryNtB2_13BaseDiscovery3new
FNDA:0,_RNvMNtNtCsegEA1edg8Vr_10cuenv_core4base9discoveryNtB2_13BaseDiscovery5bases
FNDA:0,_RNvMNtNtCsegEA1edg8Vr_10cuenv_core4base9discoveryNtB2_13BaseDiscovery8discover
FNDA:0,_RNvMNtNtCsegEA1edg8Vr_10cuenv_core4base9discoveryNtB2_13BaseDiscovery9load_base
FNDA:0,_RNvNtNtCsegEA1edg8Vr_10cuenv_core4base9discovery21derive_synthetic_name
FNDA:0,_RNCNvMNtNtCsegEA1edg8Vr_10cuenv_core4base9discoveryNtB4_13BaseDiscovery9load_base0B8_
FNDA:0,_RNCNvMNtNtCsegEA1edg8Vr_10cuenv_core4base9discoveryNtB4_13BaseDiscovery9load_bases_0B8_
FNDA:0,_RNCNvMNtNtCs5ra7QMvKR3l_10cuenv_core4base9discoveryNtB4_13BaseDiscovery9load_base0B8_
FNDA:1,_RNCNvMNtNtCs5ra7QMvKR3l_10cuenv_core4base9discoveryNtB4_13BaseDiscovery9load_bases_0B8_
FNDA:7,_RNvMNtNtCs5ra7QMvKR3l_10cuenv_core4base9discoveryNtB2_13BaseDiscovery12with_eval_fn
FNDA:9,_RNvMNtNtCs5ra7QMvKR3l_10cuenv_core4base9discoveryNtB2_13BaseDiscovery3new
FNDA:11,_RNvMNtNtCs5ra7QMvKR3l_10cuenv_core4base9discoveryNtB2_13BaseDiscovery5bases
FNDA:7,_RNvMNtNtCs5ra7QMvKR3l_10cuenv_core4base9discoveryNtB2_13BaseDiscovery8discover
FNDA:8,_RNvMNtNtCs5ra7QMvKR3l_10cuenv_core4base9discoveryNtB2_13BaseDiscovery9load_base
FNDA:13,_RNvNtNtCs5ra7QMvKR3l_10cuenv_core4base9discovery21derive_synthetic_name
FNDA:1,_RNCNvNtNtNtCs5ra7QMvKR3l_10cuenv_core4base9discovery5testss_27test_discovery_with_env_cue0B9_
FNDA:1,_RNCNvNtNtNtCs5ra7QMvKR3l_10cuenv_core4base9discovery5testss_29test_discovery_nested_env_cue0B9_
FNDA:0,_RNCNvNtNtNtCs5ra7QMvKR3l_10cuenv_core4base9discovery5testss_30test_discovery_empty_workspace0B9_
FNDA:3,_RNCNvNtNtNtCs5ra7QMvKR3l_10cuenv_core4base9discovery5testss_31test_discovery_multiple_env_cue0B9_
FNDA:0,_RNCNvNtNtNtCs5ra7QMvKR3l_10cuenv_core4base9discovery5testss_32test_base_discovery_with_eval_fn0B9_
FNDA:1,_RNCNvNtNtNtCs5ra7QMvKR3l_10cuenv_core4base9discovery5testss_33test_discovery_respects_gitignore0B9_
FNDA:1,_RNCNvNtNtNtCs5ra7QMvKR3l_10cuenv_core4base9discovery5testss_33test_discovery_respects_gitignores_0B9_
FNDA:2,_RNCNvNtNtNtCs5ra7QMvKR3l_10cuenv_core4base9discovery5testss_33test_discovery_skips_failed_loads0B9_
FNDA:1,_RNvNtNtNtCs5ra7QMvKR3l_10cuenv_core4base9discovery5testss_23test_base_discovery_new
FNDA:1,_RNvNtNtNtCs5ra7QMvKR3l_10cuenv_core4base9discovery5testss_23test_discovery_error_io
FNDA:1,_RNvNtNtNtCs5ra7QMvKR3l_10cuenv_core4base9discovery5testss_26test_derive_synthetic_name
FNDA:1,_RNvNtNtNtCs5ra7QMvKR3l_10cuenv_core4base9discovery5testss_26test_discovered_base_clone
FNDA:1,_RNvNtNtNtCs5ra7QMvKR3l_10cuenv_core4base9discovery5testss_26test_discovered_base_debug
FNDA:1,_RNvNtNtNtCs5ra7QMvKR3l_10cuenv_core4base9discovery5testss_27test_discovered_base_fields
FNDA:1,_RNvNtNtNtCs5ra7QMvKR3l_10cuenv_core4base9discovery5testss_27test_discovery_with_env_cue
FNDA:1,_RNvNtNtNtCs5ra7QMvKR3l_10cuenv_core4base9discovery5testss_29test_discovery_nested_env_cue
FNDA:1,_RNvNtNtNtCs5ra7QMvKR3l_10cuenv_core4base9discovery5testss_30test_discovery_empty_workspace
FNDA:1,_RNvNtNtNtCs5ra7QMvKR3l_10cuenv_core4base9discovery5testss_31test_discovery_error_eval_error
FNDA:1,_RNvNtNtNtCs5ra7QMvKR3l_10cuenv_core4base9discovery5testss_31test_discovery_multiple_env_cue
FNDA:1,_RNvNtNtNtCs5ra7QMvKR3l_10cuenv_core4base9discovery5testss_31test_discovery_requires_eval_fn
FNDA:1,_RNvNtNtNtCs5ra7QMvKR3l_10cuenv_core4base9discovery5testss_32test_base_discovery_with_eval_fn
FNDA:1,_RNvNtNtNtCs5ra7QMvKR3l_10cuenv_core4base9discovery5testss_33test_discovery_error_invalid_path
FNDA:1,_RNvNtNtNtCs5ra7QMvKR3l_10cuenv_core4base9discovery5testss_33test_discovery_respects_gitignore
FNDA:1,_RNvNtNtNtCs5ra7QMvKR3l_10cuenv_core4base9discovery5testss_33test_discovery_skips_failed_loads
FNDA:1,_RNvNtNtNtCs5ra7QMvKR3l_10cuenv_core4base9discovery5testss_37test_discovery_error_no_eval_function
FNDA:1,_RNvNtNtNtCs5ra7QMvKR3l_10cuenv_core4base9discovery5testss_41test_derive_synthetic_name_trailing_slash
FNDA:1,_RNvNtNtNtCs5ra7QMvKR3l_10cuenv_core4base9discovery5testss_42test_derive_synthetic_name_unrelated_paths
FNF:35
FNH:32
DA:45,9
DA:46,9
DA:47,9
DA:48,9
DA:49,9
DA:50,9
DA:51,9
DA:54,7
DA:55,7
DA:56,7
DA:57,7
DA:66,7
DA:67,7
DA:69,7
DA:70,7
DA:71,7
DA:72,7
DA:75,6
DA:76,6
DA:77,6
DA:78,6
DA:81,6
DA:83,26
DA:84,20
DA:85,20
DA:86,20
DA:87,20
DA:88,8
DA:89,7
DA:90,7
DA:91,7
DA:92,1
DA:93,1
DA:94,1
DA:95,0
DA:97,0
DA:99,1
DA:102,12
DA:104,0
DA:105,0
DA:107,0
DA:114,6
DA:115,1
DA:116,0
DA:117,0
DA:118,0
DA:119,0
DA:121,5
DA:123,6
DA:124,0
DA:125,0
DA:126,0
DA:129,6
DA:130,7
DA:133,8
DA:134,8
DA:135,8
DA:136,8
DA:137,8
DA:138,8
DA:139,8
DA:140,8
DA:141,8
DA:144,8
DA:145,8
DA:148,7
DA:150,7
DA:151,7
DA:152,7
DA:153,7
DA:154,7
DA:155,7
DA:156,8
DA:159,11
DA:160,11
DA:161,11
DA:169,13
DA:170,13
DA:171,13
DA:172,13
DA:174,13
DA:175,4
DA:176,9
DA:178,9
DA:179,9
DA:180,9
DA:181,9
DA:182,9
DA:183,13
DA:211,1
DA:213,1
DA:214,1
DA:217,1
DA:218,1
DA:221,1
DA:222,1
DA:225,1
DA:226,1
DA:227,1
DA:230,1
DA:231,1
DA:232,1
DA:234,1
DA:235,1
DA:238,1
DA:239,1
DA:240,1
DA:242,1
DA:243,1
DA:244,1
DA:251,1
DA:252,1
DA:253,1
DA:254,1
DA:257,1
DA:258,1
DA:259,1
DA:261,1
DA:262,1
DA:265,1
DA:266,1
DA:267,1
DA:268,1
DA:269,1
DA:272,1
DA:273,1
DA:274,1
DA:275,1
DA:277,1
DA:278,1
DA:279,1
DA:282,1
DA:283,1
DA:286,1
DA:288,1
DA:289,1
DA:291,1
DA:292,1
DA:293,1
DA:294,1
DA:297,1
DA:298,1
DA:301,1
DA:302,1
DA:304,1
DA:305,1
DA:307,1
DA:308,1
DA:309,1
DA:310,1
DA:313,1
DA:314,1
DA:317,1
DA:318,1
DA:319,1
DA:320,1
DA:321,1
DA:323,1
DA:324,3
DA:326,1
DA:327,1
DA:328,1
DA:331,1
DA:332,1
DA:335,1
DA:336,1
DA:337,1
DA:339,1
DA:340,2
DA:342,2
DA:343,1
DA:345,1
DA:347,2
DA:351,1
DA:353,1
DA:354,1
DA:357,1
DA:358,1
DA:361,1
DA:362,1
DA:363,1
DA:364,1
DA:365,1
DA:368,1
DA:371,1
DA:372,1
DA:373,1
DA:374,1
DA:376,1
DA:377,1
DA:379,1
DA:382,1
DA:384,1
DA:385,1
DA:386,1
DA:387,1
DA:388,1
DA:395,1
DA:396,1
DA:397,1
DA:398,1
DA:399,1
DA:400,1
DA:401,1
DA:403,1
DA:404,1
DA:405,1
DA:406,1
DA:409,1
DA:410,1
DA:411,1
DA:412,1
DA:413,1
DA:414,1
DA:415,1
DA:417,1
DA:418,1
DA:419,1
DA:422,1
DA:423,1
DA:424,1
DA:425,1
DA:426,1
DA:427,1
DA:428,1
DA:430,1
DA:431,1
DA:432,1
DA:439,1
DA:440,1
DA:441,1
DA:442,1
DA:443,1
DA:444,1
DA:447,1
DA:448,1
DA:449,1
DA:450,1
DA:451,1
DA:454,1
DA:455,1
DA:456,1
DA:457,1
DA:458,1
DA:459,1
DA:462,1
DA:463,1
DA:464,1
DA:465,1
DA:466,1
DA:467,1
BRF:0
BRH:0
LF:260
LH:245
end_of_record
SF:/Users/rawkode/Code/src/github.com/cuenv/cuenv/crates/core/src/cache/tasks.rs
FN:110,_RNCNvNtNtCsegEA1edg8Vr_10cuenv_core5cache5tasks10cache_root0B7_
FN:114,_RNCNvNtNtCsegEA1edg8Vr_10cuenv_core5cache5tasks10cache_roots_0B7_
FN:163,_RNCNvNtNtCsegEA1edg8Vr_10cuenv_core5cache5tasks11save_result0B7_
FN:173,_RNCNvNtNtCsegEA1edg8Vr_10cuenv_core5cache5tasks11save_results0_0B7_
FN:181,_RNCNvNtNtCsegEA1edg8Vr_10cuenv_core5cache5tasks11save_results1_0B7_
FN:189,_RNCNvNtNtCsegEA1edg8Vr_10cuenv_core5cache5tasks11save_results2_0B7_
FN:195,_RNCNvNtNtCsegEA1edg8Vr_10cuenv_core5cache5tasks11save_results3_0B7_
FN:207,_RNCNvNtNtCsegEA1edg8Vr_10cuenv_core5cache5tasks11save_results4_0B7_
FN:171,_RNCNvNtNtCsegEA1edg8Vr_10cuenv_core5cache5tasks11save_results_0B7_
FN:312,_RNCNvNtNtCsegEA1edg8Vr_10cuenv_core5cache5tasks13record_latest0B7_
FN:317,_RNCNvNtNtCsegEA1edg8Vr_10cuenv_core5cache5tasks13record_latests_0B7_
FN:376,_RNCNvNtNtCsegEA1edg8Vr_10cuenv_core5cache5tasks17compute_cache_key0B7_
FN:378,_RNCNvNtNtCsegEA1edg8Vr_10cuenv_core5cache5tasks17compute_cache_keys_0B7_
FN:233,_RNCNvNtNtCsegEA1edg8Vr_10cuenv_core5cache5tasks19materialize_outputs0B7_
FN:247,_RNCNvNtNtCsegEA1edg8Vr_10cuenv_core5cache5tasks19materialize_outputss0_0B7_
FN:259,_RNCNvNtNtCsegEA1edg8Vr_10cuenv_core5cache5tasks19materialize_outputss1_0B7_
FN:241,_RNCNvNtNtCsegEA1edg8Vr_10cuenv_core5cache5tasks19materialize_outputss_0B7_
FN:57,_RNCNvNtNtCsegEA1edg8Vr_10cuenv_core5cache5tasks22cache_root_from_inputs0B7_
FN:346,_RNCNvNtNtCsegEA1edg8Vr_10cuenv_core5cache5tasks22get_project_cache_keys0B7_
FN:351,_RNCNvNtNtCsegEA1edg8Vr_10cuenv_core5cache5tasks22get_project_cache_keyss_0B7_
FN:106,_RNvNtNtCsegEA1edg8Vr_10cuenv_core5cache5tasks10cache_root
FN:123,_RNvNtNtCsegEA1edg8Vr_10cuenv_core5cache5tasks11key_to_path
FN:153,_RNvNtNtCsegEA1edg8Vr_10cuenv_core5cache5tasks11save_result
FN:284,_RNvNtNtCsegEA1edg8Vr_10cuenv_core5cache5tasks12project_hash
FN:325,_RNvNtNtCsegEA1edg8Vr_10cuenv_core5cache5tasks13lookup_latest
FN:290,_RNvNtNtCsegEA1edg8Vr_10cuenv_core5cache5tasks13record_latest
FN:373,_RNvNtNtCsegEA1edg8Vr_10cuenv_core5cache5tasks17compute_cache_key
FN:275,_RNvNtNtCsegEA1edg8Vr_10cuenv_core5cache5tasks17latest_index_path
FN:231,_RNvNtNtCsegEA1edg8Vr_10cuenv_core5cache5tasks19materialize_outputs
FN:48,_RNvNtNtCsegEA1edg8Vr_10cuenv_core5cache5tasks22cache_root_from_inputs
FN:337,_RNvNtNtCsegEA1edg8Vr_10cuenv_core5cache5tasks22get_project_cache_keys
FN:132,_RNvNtNtCsegEA1edg8Vr_10cuenv_core5cache5tasks6lookup
FN:397,_RINvMNtNtNtCs5ra7QMvKR3l_10cuenv_core5cache5tasks5testsNtB3_11EnvVarGuard3setppEB9_
FN:411,_RNvXs_NtNtNtCs5ra7QMvKR3l_10cuenv_core5cache5tasks5testsNtB4_11EnvVarGuardNtNtNtCskzPJi2J8k3N_4core3ops4drop4Drop4drop
FN:631,_RNvNtNtNtCs5ra7QMvKR3l_10cuenv_core5cache5tasks5testss_17test_lookup_found
FN:624,_RNvNtNtNtCs5ra7QMvKR3l_10cuenv_core5cache5tasks5testss_21test_lookup_not_found
FN:525,_RNvNtNtNtCs5ra7QMvKR3l_10cuenv_core5cache5tasks5testss_22test_cache_entry_clone
FN:514,_RNvNtNtNtCs5ra7QMvKR3l_10cuenv_core5cache5tasks5testss_23test_cache_entry_fields
FN:612,_RNvNtNtNtCs5ra7QMvKR3l_10cuenv_core5cache5tasks5testss_26test_key_to_path_with_root
FN:461,_RNvNtNtNtCs5ra7QMvKR3l_10cuenv_core5cache5tasks5testss_27test_task_result_meta_serde
FN:659,_RNvNtNtNtCs5ra7QMvKR3l_10cuenv_core5cache5tasks5testss_28test_lookup_latest_not_found
FN:546,_RNvNtNtNtCs5ra7QMvKR3l_10cuenv_core5cache5tasks5testss_28test_task_latest_index_serde
FN:563,_RNvNtNtNtCs5ra7QMvKR3l_10cuenv_core5cache5tasks5testss_29test_cache_key_envelope_serde
FN:445,_RNvNtNtNtCs5ra7QMvKR3l_10cuenv_core5cache5tasks5testss_29test_output_index_entry_clone
FN:429,_RNvNtNtNtCs5ra7QMvKR3l_10cuenv_core5cache5tasks5testss_29test_output_index_entry_serde
FN:647,_RNvNtNtNtCs5ra7QMvKR3l_10cuenv_core5cache5tasks5testss_29test_record_and_lookup_latest
FN:668,_RNvNtNtNtCs5ra7QMvKR3l_10cuenv_core5cache5tasks5testss_29test_record_latest_overwrites
FN:540,_RNvNtNtNtCs5ra7QMvKR3l_10cuenv_core5cache5tasks5testss_30test_task_latest_index_default
FN:486,_RNvNtNtNtCs5ra7QMvKR3l_10cuenv_core5cache5tasks5testss_30test_task_result_meta_with_env
FN:775,_RNvNtNtNtCs5ra7QMvKR3l_10cuenv_core5cache5tasks5testss_32cache_root_respects_override_env
FN:759,_RNvNtNtNtCs5ra7QMvKR3l_10cuenv_core5cache5tasks5testss_33cache_root_skips_homeless_shelter
FN:685,_RNvNtNtNtCs5ra7QMvKR3l_10cuenv_core5cache5tasks5testss_33test_get_project_cache_keys_empty
FN:694,_RNvNtNtNtCs5ra7QMvKR3l_10cuenv_core5cache5tasks5testss_37test_get_project_cache_keys_with_data
FN:791,_RNvNtNtNtCs5ra7QMvKR3l_10cuenv_core5cache5tasks5testss_38save_and_materialize_outputs_roundtrip
FN:583,_RNvNtNtNtCs5ra7QMvKR3l_10cuenv_core5cache5tasks5testss_44test_cache_key_envelope_with_optional_fields
FN:715,_RNvNtNtNtCs5ra7QMvKR3l_10cuenv_core5cache5tasks5testss_46cache_key_is_deterministic_and_order_invariant
FN:110,_RNCNvNtNtCs5ra7QMvKR3l_10cuenv_core5cache5tasks10cache_root0B7_
FN:114,_RNCNvNtNtCs5ra7QMvKR3l_10cuenv_core5cache5tasks10cache_roots_0B7_
FN:163,_RNCNvNtNtCs5ra7QMvKR3l_10cuenv_core5cache5tasks11save_result0B7_
FN:173,_RNCNvNtNtCs5ra7QMvKR3l_10cuenv_core5cache5tasks11save_results0_0B7_
FN:181,_RNCNvNtNtCs5ra7QMvKR3l_10cuenv_core5cache5tasks11save_results1_0B7_
FN:189,_RNCNvNtNtCs5ra7QMvKR3l_10cuenv_core5cache5tasks11save_results2_0B7_
FN:195,_RNCNvNtNtCs5ra7QMvKR3l_10cuenv_core5cache5tasks11save_results3_0B7_
FN:207,_RNCNvNtNtCs5ra7QMvKR3l_10cuenv_core5cache5tasks11save_results4_0B7_
FN:171,_RNCNvNtNtCs5ra7QMvKR3l_10cuenv_core5cache5tasks11save_results_0B7_
FN:312,_RNCNvNtNtCs5ra7QMvKR3l_10cuenv_core5cache5tasks13record_latest0B7_
FN:317,_RNCNvNtNtCs5ra7QMvKR3l_10cuenv_core5cache5tasks13record_latests_0B7_
FN:376,_RNCNvNtNtCs5ra7QMvKR3l_10cuenv_core5cache5tasks17compute_cache_key0B7_
FN:378,_RNCNvNtNtCs5ra7QMvKR3l_10cuenv_core5cache5tasks17compute_cache_keys_0B7_
FN:233,_RNCNvNtNtCs5ra7QMvKR3l_10cuenv_core5cache5tasks19materialize_outputs0B7_
FN:247,_RNCNvNtNtCs5ra7QMvKR3l_10cuenv_core5cache5tasks19materialize_outputss0_0B7_
FN:259,_RNCNvNtNtCs5ra7QMvKR3l_10cuenv_core5cache5tasks19materialize_outputss1_0B7_
FN:241,_RNCNvNtNtCs5ra7QMvKR3l_10cuenv_core5cache5tasks19materialize_outputss_0B7_
FN:57,_RNCNvNtNtCs5ra7QMvKR3l_10cuenv_core5cache5tasks22cache_root_from_inputs0B7_
FN:346,_RNCNvNtNtCs5ra7QMvKR3l_10cuenv_core5cache5tasks22get_project_cache_keys0B7_
FN:351,_RNCNvNtNtCs5ra7QMvKR3l_10cuenv_core5cache5tasks22get_project_cache_keyss_0B7_
FN:106,_RNvNtNtCs5ra7QMvKR3l_10cuenv_core5cache5tasks10cache_root
FN:123,_RNvNtNtCs5ra7QMvKR3l_10cuenv_core5cache5tasks11key_to_path
FN:153,_RNvNtNtCs5ra7QMvKR3l_10cuenv_core5cache5tasks11save_result
FN:284,_RNvNtNtCs5ra7QMvKR3l_10cuenv_core5cache5tasks12project_hash
FN:325,_RNvNtNtCs5ra7QMvKR3l_10cuenv_core5cache5tasks13lookup_latest
FN:290,_RNvNtNtCs5ra7QMvKR3l_10cuenv_core5cache5tasks13record_latest
FN:373,_RNvNtNtCs5ra7QMvKR3l_10cuenv_core5cache5tasks17compute_cache_key
FN:275,_RNvNtNtCs5ra7QMvKR3l_10cuenv_core5cache5tasks17latest_index_path
FN:231,_RNvNtNtCs5ra7QMvKR3l_10cuenv_core5cache5tasks19materialize_outputs
FN:48,_RNvNtNtCs5ra7QMvKR3l_10cuenv_core5cache5tasks22cache_root_from_inputs
FN:337,_RNvNtNtCs5ra7QMvKR3l_10cuenv_core5cache5tasks22get_project_cache_keys
FN:132,_RNvNtNtCs5ra7QMvKR3l_10cuenv_core5cache5tasks6lookup
FNDA:0,_RNCNvNtNtCsegEA1edg8Vr_10cuenv_core5cache5tasks10cache_root0B7_
FNDA:0,_RNCNvNtNtCsegEA1edg8Vr_10cuenv_core5cache5tasks10cache_roots_0B7_
FNDA:0,_RNCNvNtNtCsegEA1edg8Vr_10cuenv_core5cache5tasks11save_result0B7_
FNDA:0,_RNCNvNtNtCsegEA1edg8Vr_10cuenv_core5cache5tasks11save_results0_0B7_
FNDA:0,_RNCNvNtNtCsegEA1edg8Vr_10cuenv_core5cache5tasks11save_results1_0B7_
FNDA:0,_RNCNvNtNtCsegEA1edg8Vr_10cuenv_core5cache5tasks11save_results2_0B7_
FNDA:0,_RNCNvNtNtCsegEA1edg8Vr_10cuenv_core5cache5tasks11save_results3_0B7_
FNDA:0,_RNCNvNtNtCsegEA1edg8Vr_10cuenv_core5cache5tasks11save_results4_0B7_
FNDA:0,_RNCNvNtNtCsegEA1edg8Vr_10cuenv_core5cache5tasks11save_results_0B7_
FNDA:0,_RNCNvNtNtCsegEA1edg8Vr_10cuenv_core5cache5tasks13record_latest0B7_
FNDA:0,_RNCNvNtNtCsegEA1edg8Vr_10cuenv_core5cache5tasks13record_latests_0B7_
FNDA:0,_RNCNvNtNtCsegEA1edg8Vr_10cuenv_core5cache5tasks17compute_cache_key0B7_
FNDA:0,_RNCNvNtNtCsegEA1edg8Vr_10cuenv_core5cache5tasks17compute_cache_keys_0B7_
FNDA:0,_RNCNvNtNtCsegEA1edg8Vr_10cuenv_core5cache5tasks19materialize_outputs0B7_
FNDA:0,_RNCNvNtNtCsegEA1edg8Vr_10cuenv_core5cache5tasks19materialize_outputss0_0B7_
FNDA:0,_RNCNvNtNtCsegEA1edg8Vr_10cuenv_core5cache5tasks19materialize_outputss1_0B7_
FNDA:0,_RNCNvNtNtCsegEA1edg8Vr_10cuenv_core5cache5tasks19materialize_outputss_0B7_
FNDA:0,_RNCNvNtNtCsegEA1edg8Vr_10cuenv_core5cache5tasks22cache_root_from_inputs0B7_
FNDA:0,_RNCNvNtNtCsegEA1edg8Vr_10cuenv_core5cache5tasks22get_project_cache_keys0B7_
FNDA:0,_RNCNvNtNtCsegEA1edg8Vr_10cuenv_core5cache5tasks22get_project_cache_keyss_0B7_
FNDA:4,_RNvNtNtCsegEA1edg8Vr_10cuenv_core5cache5tasks10cache_root
FNDA:0,_RNvNtNtCsegEA1edg8Vr_10cuenv_core5cache5tasks11key_to_path
FNDA:0,_RNvNtNtCsegEA1edg8Vr_10cuenv_core5cache5tasks11save_result
FNDA:0,_RNvNtNtCsegEA1edg8Vr_10cuenv_core5cache5tasks12project_hash
FNDA:0,_RNvNtNtCsegEA1edg8Vr_10cuenv_core5cache5tasks13lookup_latest
FNDA:0,_RNvNtNtCsegEA1edg8Vr_10cuenv_core5cache5tasks13record_latest
FNDA:0,_RNvNtNtCsegEA1edg8Vr_10cuenv_core5cache5tasks17compute_cache_key
FNDA:4,_RNvNtNtCsegEA1edg8Vr_10cuenv_core5cache5tasks17latest_index_path
FNDA:0,_RNvNtNtCsegEA1edg8Vr_10cuenv_core5cache5tasks19materialize_outputs
FNDA:4,_RNvNtNtCsegEA1edg8Vr_10cuenv_core5cache5tasks22cache_root_from_inputs
FNDA:4,_RNvNtNtCsegEA1edg8Vr_10cuenv_core5cache5tasks22get_project_cache_keys
FNDA:0,_RNvNtNtCsegEA1edg8Vr_10cuenv_core5cache5tasks6lookup
FNDA:0,_RINvMNtNtNtCs5ra7QMvKR3l_10cuenv_core5cache5tasks5testsNtB3_11EnvVarGuard3setppEB9_
FNDA:0,_RNvXs_NtNtNtCs5ra7QMvKR3l_10cuenv_core5cache5tasks5testsNtB4_11EnvVarGuardNtNtNtCskzPJi2J8k3N_4core3ops4drop4Drop4drop
FNDA:1,_RNvNtNtNtCs5ra7QMvKR3l_10cuenv_core5cache5tasks5testss_17test_lookup_found
FNDA:1,_RNvNtNtNtCs5ra7QMvKR3l_10cuenv_core5cache5tasks5testss_21test_lookup_not_found
FNDA:1,_RNvNtNtNtCs5ra7QMvKR3l_10cuenv_core5cache5tasks5testss_22test_cache_entry_clone
